(lp0
S'beverage'
p1
aS'drink'
p2
aS'drinkable'
p3
aS'potable'
p4
aS'chyme'
p5
aS'comestible'
p6
aS'edible'
p7
aS'eatable'
p8
aS'pabulum'
p9
aS'victual'
p10
aS'victuals'
p11
aS'comfort food'
p12
aS'commissariat'
p13
aS'provisions'
p14
aS'provender'
p15
aS'viands'
p16
aS'victuals'
p17
aS'culture medium'
p18
aS'medium'
p19
aS'fare'
p20
aS'feed'
p21
aS'provender'
p22
aS'foodstuff'
p23
aS'food product'
p24
aS'micronutrient'
p25
aS'miraculous food'
p26
aS'manna'
p27
aS'manna from heaven'
p28
aS'nutriment'
p29
aS'nourishment'
p30
aS'nutrition'
p31
aS'sustenance'
p32
aS'aliment'
p33
aS'alimentation'
p34
aS'victuals'
p35
aS'soul food'
p36
aS'water'
p37
aS'yolk'
p38
aS'vitellus'
p39
aS'alcohol'
p40
aS'alcoholic drink'
p41
aS'alcoholic beverage'
p42
aS'intoxicant'
p43
aS'inebriant'
p44
aS'cider'
p45
aS'cyder'
p46
aS'cocoa'
p47
aS'chocolate'
p48
aS'hot chocolate'
p49
aS'drinking chocolate'
p50
aS'coffee'
p51
aS'java'
p52
aS'cooler'
p53
aS'drinking water'
p54
aS'fizz'
p55
aS'fruit drink'
p56
aS'ade'
p57
aS'fruit juice'
p58
aS'fruit crush'
p59
aS'ginger beer'
p60
aS'hydromel'
p61
aS'mate'
p62
aS'milk'
p63
aS'mixer'
p64
aS'near beer'
p65
aS'oenomel'
p66
aS'potion'
p67
aS'refresher'
p68
aS'smoothie'
p69
aS'soft drink'
p70
aS'tea-like drink'
p71
aS'tea'
p72
aS'wish-wash'
p73
aS'tuck'
p74
aS'food cache'
p75
aS'larder'
p76
aS'agar'
p77
aS'nutrient agar'
p78
aS'board'
p79
aS'table'
p80
aS'chow'
p81
aS'chuck'
p82
aS'eats'
p83
aS'grub'
p84
aS'diet'
p85
aS'diet'
p86
aS'dietary'
p87
aS'menu'
p88
aS'ration'
p89
aS'bird feed'
p90
aS'bird food'
p91
aS'birdseed'
p92
aS'blood meal'
p93
aS'cattle cake'
p94
aS'corn gluten feed'
p95
aS'creep feed'
p96
aS'cud'
p97
aS'rechewed food'
p98
aS'feed grain'
p99
aS'fish meal'
p100
aS'fodder'
p101
aS'mast'
p102
aS'oil cake'
p103
aS'petfood'
p104
aS'pet-food'
p105
aS'pet food'
p106
aS'silage'
p107
aS'ensilage'
p108
aS'slop'
p109
aS'slops'
p110
aS'swill'
p111
aS'pigswill'
p112
aS'pigwash'
p113
aS'breadstuff'
p114
aS'canned food'
p115
aS'canned foods'
p116
aS'canned goods'
p117
aS'tinned goods'
p118
aS'carob'
p119
aS'carob powder'
p120
aS"saint-john's-bread"
p121
aS'cocoa'
p122
aS'coloring'
p123
aS'colouring'
p124
aS'food coloring'
p125
aS'food colouring'
p126
aS'food color'
p127
aS'food colour'
p128
aS'concentrate'
p129
aS'concoction'
p130
aS'mixture'
p131
aS'intermixture'
p132
aS'curd'
p133
aS'dairy product'
p134
aS'dehydrated food'
p135
aS'dehydrated foods'
p136
aS'egg'
p137
aS'eggs'
p138
aS'flour'
p139
aS'frozen food'
p140
aS'frozen foods'
p141
aS'grain'
p142
aS'food grain'
p143
aS'cereal'
p144
aS'ingredient'
p145
aS'fixings'
p146
aS'juice'
p147
aS'meal'
p148
aS'milk'
p149
aS'perishable'
p150
aS'spoilable'
p151
aS'roughage'
p152
aS'fiber'
p153
aS'starches'
p154
aS'tapioca'
p155
aS'course'
p156
aS'dainty'
p157
aS'delicacy'
p158
aS'goody'
p159
aS'kickshaw'
p160
aS'treat'
p161
aS'dish'
p162
aS'fast food'
p163
aS'finger food'
p164
aS'ingesta'
p165
aS'kosher'
p166
aS'meal'
p167
aS'repast'
p168
aS'mess'
p169
aS'milk'
p170
aS'mince'
p171
aS'puree'
p172
aS'stodge'
p173
aS'vitamin'
p174
aS'wheat germ'
p175
aS'branch water'
p176
aS'spring water'
p177
aS'aperitif'
p178
aS'brew'
p179
aS'brewage'
p180
aS'hard cider'
p181
aS'home brew'
p182
aS'homebrew'
p183
aS'hooch'
p184
aS'hootch'
p185
aS'kava'
p186
aS'kavakava'
p187
aS'koumiss'
p188
aS'kumis'
p189
aS'liqueur'
p190
aS'cordial'
p191
aS'liquor'
p192
aS'spirits'
p193
aS'booze'
p194
aS'hard drink'
p195
aS'hard liquor'
p196
aS'john barleycorn'
p197
aS'strong drink'
p198
aS'mixed drink'
p199
aS'neutral spirits'
p200
aS'ethyl alcohol'
p201
aS'nipa'
p202
aS'perry'
p203
aS'proof spirit'
p204
aS'pulque'
p205
aS'rotgut'
p206
aS'sake'
p207
aS'saki'
p208
aS'rice beer'
p209
aS'slug'
p210
aS'wine'
p211
aS'vino'
p212
aS'scrumpy'
p213
aS'sweet cider'
p214
aS'cafe au lait'
p215
aS'cafe noir'
p216
aS'demitasse'
p217
aS'cafe royale'
p218
aS'coffee royal'
p219
aS'cappuccino'
p220
aS'cappuccino coffee'
p221
aS'coffee cappuccino'
p222
aS'coffee substitute'
p223
aS'decaffeinated coffee'
p224
aS'decaf'
p225
aS'drip coffee'
p226
aS'espresso'
p227
aS'iced coffee'
p228
aS'ice coffee'
p229
aS'instant coffee'
p230
aS'irish coffee'
p231
aS'mocha'
p232
aS'mocha coffee'
p233
aS'turkish coffee'
p234
aS'bottled water'
p235
aS'ice water'
p236
aS'mineral water'
p237
aS'soda water'
p238
aS'carbonated water'
p239
aS'club soda'
p240
aS'seltzer'
p241
aS'sparkling water'
p242
aS'sugar water'
p243
aS'lemonade'
p244
aS'limeade'
p245
aS'orangeade'
p246
aS'apple juice'
p247
aS'cranberry juice'
p248
aS'grape juice'
p249
aS'grapefruit juice'
p250
aS'nectar'
p251
aS'orange juice'
p252
aS'pineapple juice'
p253
aS'acidophilus milk'
p254
aS'buttermilk'
p255
aS'certified milk'
p256
aS'chocolate milk'
p257
aS'condensed milk'
p258
aS"cows' milk"
p259
aS'evaporated milk'
p260
aS"goats' milk"
p261
aS'homogenized milk'
p262
aS'low-fat milk'
p263
aS'pasteurized milk'
p264
aS'powdered milk'
p265
aS'dry milk'
p266
aS'dried milk'
p267
aS'milk powder'
p268
aS'raw milk'
p269
aS'scalded milk'
p270
aS'semi-skimmed milk'
p271
aS'skim milk'
p272
aS'skimmed milk'
p273
aS'sour milk'
p274
aS'whole milk'
p275
aS"yak's milk"
p276
aS'elixir'
p277
aS'philter'
p278
aS'philtre'
p279
aS'love-potion'
p280
aS'love-philter'
p281
aS'love-philtre'
p282
aS'birch beer'
p283
aS'bitter lemon'
p284
aS'cola'
p285
aS'dope'
p286
aS'cream soda'
p287
aS'egg cream'
p288
aS'ginger ale'
p289
aS'ginger pop'
p290
aS'orange soda'
p291
aS'phosphate'
p292
aS'pop'
p293
aS'soda'
p294
aS'soda pop'
p295
aS'soda water'
p296
aS'tonic'
p297
aS'root beer'
p298
aS'sarsaparilla'
p299
aS'tonic'
p300
aS'tonic water'
p301
aS'quinine water'
p302
aS'cambric tea'
p303
aS'cuppa'
p304
aS'cupper'
p305
aS'herb tea'
p306
aS'herbal tea'
p307
aS'herbal'
p308
aS'ice tea'
p309
aS'iced tea'
p310
aS'sun tea'
p311
aS'blood agar'
p312
aS'training table'
p313
aS'allergy diet'
p314
aS'balanced diet'
p315
aS'bland diet'
p316
aS'ulcer diet'
p317
aS'carbohydrate loading'
p318
aS'carbo loading'
p319
aS'diabetic diet'
p320
aS'dietary supplement'
p321
aS'gluten-free diet'
p322
aS'high-protein diet'
p323
aS'high-vitamin diet'
p324
aS'vitamin-deficiency diet'
p325
aS'light diet'
p326
aS'liquid diet'
p327
aS'low-fat diet'
p328
aS'low-sodium diet'
p329
aS'low-salt diet'
p330
aS'salt-free diet'
p331
aS'reducing diet'
p332
aS'obesity diet'
p333
aS'soft diet'
p334
aS'pap'
p335
aS'spoon food'
p336
aS'vegetarianism'
p337
aS'field ration'
p338
aS'canary seed'
p339
aS'alfalfa'
p340
aS'broad bean'
p341
aS'horse bean'
p342
aS'eatage'
p343
aS'forage'
p344
aS'pasture'
p345
aS'pasturage'
p346
aS'grass'
p347
aS'hay'
p348
aS'stover'
p349
aS'chicken feed'
p350
aS'scratch'
p351
aS'oil meal'
p352
aS'cat food'
p353
aS'dog food'
p354
aS'canned meat'
p355
aS'tinned meat'
p356
aS'criollo'
p357
aS'frozen orange juice'
p358
aS'orange-juice concentrate'
p359
aS'tomato concentrate'
p360
aS'batter'
p361
aS'dough'
p362
aS'filling'
p363
aS'mincemeat'
p364
aS'mix'
p365
aS'premix'
p366
aS'roux'
p367
aS'stuffing'
p368
aS'dressing'
p369
aS'bean curd'
p370
aS'tofu'
p371
aS'butter'
p372
aS'cheese'
p373
aS'clabber'
p374
aS'cream'
p375
aS'curd'
p376
aS'half-and-half'
p377
aS'whey'
p378
aS'yogurt'
p379
aS'yoghurt'
p380
aS'yoghourt'
p381
aS'plain flour'
p382
aS'semolina'
p383
aS'soybean meal'
p384
aS'soybean flour'
p385
aS'soy flour'
p386
aS'wheat flour'
p387
aS'barley'
p388
aS'barleycorn'
p389
aS'buckwheat'
p390
aS'corn'
p391
aS'edible corn'
p392
aS'grist'
p393
aS'groats'
p394
aS'malt'
p395
aS'millet'
p396
aS'oat'
p397
aS'rice'
p398
aS'wheat'
p399
aS'wheat berry'
p400
aS'wild rice'
p401
aS'indian rice'
p402
aS'egg white'
p403
aS'white'
p404
aS'albumen'
p405
aS'ovalbumin'
p406
aS'egg yolk'
p407
aS'yolk'
p408
aS'flavorer'
p409
aS'flavourer'
p410
aS'flavoring'
p411
aS'flavouring'
p412
aS'seasoner'
p413
aS'seasoning'
p414
aS'malted milk'
p415
aS'tomato paste'
p416
aS'carrot juice'
p417
aS'gravy'
p418
aS'pan gravy'
p419
aS'lemon juice'
p420
aS'lime juice'
p421
aS'papaya juice'
p422
aS'tomato juice'
p423
aS'v-8 juice'
p424
aS'cornmeal'
p425
aS'indian meal'
p426
aS'farina'
p427
aS'kibble'
p428
aS'matzo meal'
p429
aS'matzoh meal'
p430
aS'matzah meal'
p431
aS'oatmeal'
p432
aS'rolled oats'
p433
aS'pea flour'
p434
aS'pinole'
p435
aS'coconut milk'
p436
aS'coconut cream'
p437
aS'coconut milk'
p438
aS'coconut water'
p439
aS'formula'
p440
aS'soya milk'
p441
aS'soybean milk'
p442
aS'soymilk'
p443
aS'bran'
p444
aS'bread'
p445
aS'breadstuff'
p446
aS'staff of life'
p447
aS'potato'
p448
aS'white potato'
p449
aS'irish potato'
p450
aS'murphy'
p451
aS'spud'
p452
aS'tater'
p453
aS'appetizer'
p454
aS'appetiser'
p455
aS'starter'
p456
aS'dessert'
p457
aS'sweet'
p458
aS'afters'
p459
aS'entree'
p460
aS'main course'
p461
aS'ambrosia'
p462
aS'nectar'
p463
aS'choice morsel'
p464
aS'tidbit'
p465
aS'titbit'
p466
aS'gelatin'
p467
aS'jelly'
p468
aS'marrow'
p469
aS'bone marrow'
p470
aS'savory'
p471
aS'savoury'
p472
aS'sweet'
p473
aS'confection'
p474
aS'adobo'
p475
aS'applesauce'
p476
aS'apple sauce'
p477
aS'bacon and eggs'
p478
aS'barbecue'
p479
aS'barbeque'
p480
aS'barbecued spareribs'
p481
aS'spareribs'
p482
aS'barbecued wing'
p483
aS'beef bourguignonne'
p484
aS'boeuf bourguignonne'
p485
aS'beef stroganoff'
p486
aS'beef wellington'
p487
aS'filet de boeuf en croute'
p488
aS'biryani'
p489
aS'biriani'
p490
aS'bitok'
p491
aS'boiled dinner'
p492
aS'new england boiled dinner'
p493
aS'boiled egg'
p494
aS'coddled egg'
p495
aS'boston baked beans'
p496
aS'bubble and squeak'
p497
aS'buffalo wing'
p498
aS'burrito'
p499
aS'carbonnade flamande'
p500
aS'belgian beef stew'
p501
aS'casserole'
p502
aS'chicken and rice'
p503
aS'chicken cordon bleu'
p504
aS'chicken kiev'
p505
aS'chicken marengo'
p506
aS'chicken paprika'
p507
aS'chicken paprikash'
p508
aS'chicken provencale'
p509
aS'chili'
p510
aS'chili con carne'
p511
aS'chop suey'
p512
aS'chow mein'
p513
aS'coq au vin'
p514
aS'coquille'
p515
aS'coquilles saint-jacques'
p516
aS'cottage pie'
p517
aS'couscous'
p518
aS'croquette'
p519
aS'curry'
p520
aS'custard'
p521
aS'deviled egg'
p522
aS'stuffed egg'
p523
aS'dolmas'
p524
aS'stuffed grape leaves'
p525
aS'egg roll'
p526
aS'spring roll'
p527
aS'eggs benedict'
p528
aS'enchilada'
p529
aS'escalope de veau orloff'
p530
aS'falafel'
p531
aS'felafel'
p532
aS'fish and chips'
p533
aS'fish stick'
p534
aS'fish finger'
p535
aS'fondue'
p536
aS'fondu'
p537
aS'fondue'
p538
aS'fondu'
p539
aS'french toast'
p540
aS'fried egg'
p541
aS'fried rice'
p542
aS'chinese fried rice'
p543
aS'frittata'
p544
aS'frog legs'
p545
aS'galantine'
p546
aS'gefilte fish'
p547
aS'fish ball'
p548
aS'haggis'
p549
aS'ham and eggs'
p550
aS'hash'
p551
aS'jambalaya'
p552
aS'kabob'
p553
aS'kebab'
p554
aS'shish kebab'
p555
aS'kedgeree'
p556
aS'kishke'
p557
aS'stuffed derma'
p558
aS'lobster thermidor'
p559
aS'lutefisk'
p560
aS'lutfisk'
p561
aS'macedoine'
p562
aS'maryland chicken'
p563
aS'meat loaf'
p564
aS'meatloaf'
p565
aS'meatball'
p566
aS'mold'
p567
aS'mould'
p568
aS'moo goo gai pan'
p569
aS'moussaka'
p570
aS'mousse'
p571
aS'omelet'
p572
aS'omelette'
p573
aS'osso buco'
p574
aS'paella'
p575
aS'pasta'
p576
aS'patty'
p577
aS'cake'
p578
aS'pepper steak'
p579
aS'pheasant under glass'
p580
aS'piece de resistance'
p581
aS'pilaf'
p582
aS'pilaff'
p583
aS'pilau'
p584
aS'pilaw'
p585
aS'pizza'
p586
aS'pizza pie'
p587
aS'poached egg'
p588
aS'dropped egg'
p589
aS'poi'
p590
aS'pork and beans'
p591
aS'porridge'
p592
aS'potpie'
p593
aS'pudding'
p594
aS'ramekin'
p595
aS'ramequin'
p596
aS'refried beans'
p597
aS'frijoles refritos'
p598
aS'rijsttaffel'
p599
aS'rijstaffel'
p600
aS'rijstafel'
p601
aS'risotto'
p602
aS'italian rice'
p603
aS'rissole'
p604
aS'roulade'
p605
aS'salad'
p606
aS'salisbury steak'
p607
aS'sandwich plate'
p608
aS'sashimi'
p609
aS'sauerbraten'
p610
aS'sauerkraut'
p611
aS'saute'
p612
aS'scallopine'
p613
aS'scallopini'
p614
aS'scampi'
p615
aS'schnitzel'
p616
aS'wiener schnitzel'
p617
aS'scotch egg'
p618
aS'scotch woodcock'
p619
aS'scrambled eggs'
p620
aS'scrapple'
p621
aS'seafood newburg'
p622
aS'shirred egg'
p623
aS'baked egg'
p624
aS'egg en cocotte'
p625
aS'side dish'
p626
aS'side order'
p627
aS'entremets'
p628
aS'snack food'
p629
aS'souffle'
p630
aS'soup'
p631
aS'spaghetti and meatballs'
p632
aS'spanish rice'
p633
aS'special'
p634
aS'steak au poivre'
p635
aS'peppered steak'
p636
aS'pepper steak'
p637
aS'steak tartare'
p638
aS'tartar steak'
p639
aS'cannibal mound'
p640
aS'stew'
p641
aS'stuffed cabbage'
p642
aS'stuffed peppers'
p643
aS'stuffed tomato'
p644
aS'cold stuffed tomato'
p645
aS'stuffed tomato'
p646
aS'hot stuffed tomato'
p647
aS'succotash'
p648
aS'sukiyaki'
p649
aS'sushi'
p650
aS'swiss steak'
p651
aS'taco'
p652
aS'tamale'
p653
aS'tamale pie'
p654
aS'tempura'
p655
aS'teriyaki'
p656
aS'terrine'
p657
aS'tetrazzini'
p658
aS'timbale'
p659
aS'tostada'
p660
aS'turnover'
p661
aS'veal cordon bleu'
p662
aS'veal parmesan'
p663
aS'veal parmigiana'
p664
aS'viand'
p665
aS'welsh rarebit'
p666
aS'welsh rabbit'
p667
aS'rarebit'
p668
aS'banquet'
p669
aS'feast'
p670
aS'spread'
p671
aS'bite'
p672
aS'collation'
p673
aS'snack'
p674
aS'breakfast'
p675
aS'brunch'
p676
aS'buffet'
p677
aS'dinner'
p678
aS'lunch'
p679
aS'luncheon'
p680
aS'tiffin'
p681
aS'dejeuner'
p682
aS'mess'
p683
aS'nosh-up'
p684
aS'picnic'
p685
aS"ploughman's lunch"
p686
aS'potluck'
p687
aS'refection'
p688
aS'square meal'
p689
aS'supper'
p690
aS'tea'
p691
aS'afternoon tea'
p692
aS'teatime'
p693
aS'colostrum'
p694
aS'foremilk'
p695
aS"mother's milk"
p696
aS'fat-soluble vitamin'
p697
aS'water-soluble vitamin'
p698
aS'beer'
p699
aS'cassiri'
p700
aS'kvass'
p701
aS'mead'
p702
aS'spruce beer'
p703
aS'pruno'
p704
aS'absinth'
p705
aS'absinthe'
p706
aS'amaretto'
p707
aS'anisette'
p708
aS'anisette de bordeaux'
p709
aS'benedictine'
p710
aS'chartreuse'
p711
aS'coffee liqueur'
p712
aS'creme de cacao'
p713
aS'creme de fraise'
p714
aS'creme de menthe'
p715
aS'drambuie'
p716
aS'galliano'
p717
aS'kummel'
p718
aS'maraschino'
p719
aS'maraschino liqueur'
p720
aS'orange liqueur'
p721
aS'pastis'
p722
aS'pernod'
p723
aS'pousse-cafe'
p724
aS'ratafia'
p725
aS'ratafee'
p726
aS'sambuca'
p727
aS'aqua vitae'
p728
aS'ardent spirits'
p729
aS'aquavit'
p730
aS'akvavit'
p731
aS'arrack'
p732
aS'arak'
p733
aS'bitters'
p734
aS'brandy'
p735
aS'firewater'
p736
aS'gin'
p737
aS'lacing'
p738
aS'mescal'
p739
aS'ouzo'
p740
aS'rum'
p741
aS'schnapps'
p742
aS'schnaps'
p743
aS'tequila'
p744
aS'vodka'
p745
aS'whiskey'
p746
aS'whisky'
p747
aS'cocktail'
p748
aS'dom pedro'
p749
aS'flip'
p750
aS'highball'
p751
aS'hot toddy'
p752
aS'toddy'
p753
aS'mimosa'
p754
aS"buck's fizz"
p755
aS'pina colada'
p756
aS'punch'
p757
aS'rickey'
p758
aS'spritzer'
p759
aS'swizzle'
p760
aS'altar wine'
p761
aS'sacramental wine'
p762
aS'blush wine'
p763
aS'pink wine'
p764
aS'rose'
p765
aS'rose wine'
p766
aS'bordeaux'
p767
aS'bordeaux wine'
p768
aS'burgundy'
p769
aS'burgundy wine'
p770
aS'california wine'
p771
aS'cotes de provence'
p772
aS'dessert wine'
p773
aS'dubonnet'
p774
aS'fortified wine'
p775
aS'generic'
p776
aS'generic wine'
p777
aS'jug wine'
p778
aS'macon'
p779
aS'maconnais'
p780
aS'mulled wine'
p781
aS'plonk'
p782
aS'red wine'
p783
aS'retsina'
p784
aS'rhone wine'
p785
aS'sparkling wine'
p786
aS'table wine'
p787
aS'tokay'
p788
aS'varietal'
p789
aS'varietal wine'
p790
aS'vermouth'
p791
aS'vintage'
p792
aS'white wine'
p793
aS'mulled cider'
p794
aS'chicory'
p795
aS'chicory root'
p796
aS'postum'
p797
aS'caffe latte'
p798
aS'latte'
p799
aS'lithia water'
p800
aS'seltzer'
p801
aS'vichy water'
p802
aS'must'
p803
aS'nonfat dry milk'
p804
aS'elixir of life'
p805
aS'coca cola'
p806
aS'coke'
p807
aS'pepsi'
p808
aS'pepsi cola'
p809
aS'tisane'
p810
aS'vitamin pill'
p811
aS'clear liquid diet'
p812
aS'fad diet'
p813
aS'low-calorie diet'
p814
aS'macrobiotic diet'
p815
aS'c-ration'
p816
aS'k ration'
p817
aS'timothy'
p818
aS'fanny adams'
p819
aS'spam'
p820
aS'fritter batter'
p821
aS'pancake batter'
p822
aS'puff batter'
p823
aS'pouf paste'
p824
aS'pate a choux'
p825
aS'bread dough'
p826
aS'pastry'
p827
aS'pastry dough'
p828
aS'lekvar'
p829
aS'ready-mix'
p830
aS'self-rising flour'
p831
aS'self-raising flour'
p832
aS'forcemeat'
p833
aS'farce'
p834
aS'oyster stuffing'
p835
aS'oyster dressing'
p836
aS'turkey stuffing'
p837
aS'brown butter'
p838
aS'beurre noisette'
p839
aS'clarified butter'
p840
aS'drawn butter'
p841
aS'meuniere butter'
p842
aS'lemon butter'
p843
aS'stick'
p844
aS'yak butter'
p845
aS'bleu'
p846
aS'blue cheese'
p847
aS'brick cheese'
p848
aS'brie'
p849
aS'camembert'
p850
aS'cheddar'
p851
aS'cheddar cheese'
p852
aS'armerican cheddar'
p853
aS'american cheese'
p854
aS'cheshire cheese'
p855
aS'cottage cheese'
p856
aS'pot cheese'
p857
aS'farm cheese'
p858
aS"farmer's cheese"
p859
aS'cream cheese'
p860
aS'double gloucester'
p861
aS'edam'
p862
aS'goat cheese'
p863
aS'chevre'
p864
aS'gouda'
p865
aS'gouda cheese'
p866
aS'grated cheese'
p867
aS'hand cheese'
p868
aS'liederkranz'
p869
aS'limburger'
p870
aS'mozzarella'
p871
aS'muenster'
p872
aS'parmesan'
p873
aS'process cheese'
p874
aS'processed cheese'
p875
aS'quark cheese'
p876
aS'quark'
p877
aS'ricotta'
p878
aS'string cheese'
p879
aS'swiss cheese'
p880
aS'triple cream'
p881
aS'triple creme'
p882
aS'velveeta'
p883
aS'clotted cream'
p884
aS'devonshire cream'
p885
aS'double creme'
p886
aS'heavy whipping cream'
p887
aS'heavy cream'
p888
aS'light cream'
p889
aS'coffee cream'
p890
aS'single cream'
p891
aS'sour cream'
p892
aS'soured cream'
p893
aS'whipping cream'
p894
aS'light whipping cream'
p895
aS'blueberry yogurt'
p896
aS'frozen yogurt'
p897
aS'whole wheat flour'
p898
aS'graham flour'
p899
aS'graham'
p900
aS'whole meal flour'
p901
aS'pearl barley'
p902
aS'hominy'
p903
aS'popcorn'
p904
aS'sweet corn'
p905
aS'green corn'
p906
aS'wort'
p907
aS'brown rice'
p908
aS'paddy'
p909
aS'white rice'
p910
aS'polished rice'
p911
aS'bulgur'
p912
aS'bulghur'
p913
aS'bulgur wheat'
p914
aS'cracked wheat'
p915
aS'almond extract'
p916
aS'anchovy paste'
p917
aS'angelica'
p918
aS'anise'
p919
aS'aniseed'
p920
aS'anise seed'
p921
aS'bouillon cube'
p922
aS'caraway seed'
p923
aS'cardamom'
p924
aS'cardamon'
p925
aS'cardamum'
p926
aS'cassareep'
p927
aS'cayenne'
p928
aS'cayenne pepper'
p929
aS'red pepper'
p930
aS'celery salt'
p931
aS'celery seed'
p932
aS'chili powder'
p933
aS'cola extract'
p934
aS'condiment'
p935
aS'coriander'
p936
aS'coriander seed'
p937
aS'curry powder'
p938
aS'dill seed'
p939
aS'fennel seed'
p940
aS'fenugreek'
p941
aS'fenugreek seed'
p942
aS'garlic'
p943
aS'ail'
p944
aS'garlic chive'
p945
aS'garlic salt'
p946
aS'ginger'
p947
aS'gingerroot'
p948
aS'herb'
p949
aS'juniper berries'
p950
aS'lemon extract'
p951
aS'lemon oil'
p952
aS'mocha'
p953
aS'monosodium glutamate'
p954
aS'msg'
p955
aS'mustard seed'
p956
aS'nasturtium'
p957
aS'onion salt'
p958
aS'paprika'
p959
aS'pepper'
p960
aS'peppercorn'
p961
aS'peppermint oil'
p962
aS'poppy seed'
p963
aS'saffron'
p964
aS'salt'
p965
aS'table salt'
p966
aS'common salt'
p967
aS'sassafras'
p968
aS'seasoned salt'
p969
aS'sesame seed'
p970
aS'benniseed'
p971
aS'sour salt'
p972
aS'spearmint oil'
p973
aS'spice'
p974
aS'sweetening'
p975
aS'sweetener'
p976
aS'turmeric'
p977
aS'vanilla'
p978
aS'vanilla extract'
p979
aS'vanilla bean'
p980
aS'wintergreen oil'
p981
aS'oil of wintergreen'
p982
aS'anadama bread'
p983
aS'bap'
p984
aS'barmbrack'
p985
aS'breadstick'
p986
aS'bread-stick'
p987
aS'brown bread'
p988
aS'boston brown bread'
p989
aS'bun'
p990
aS'roll'
p991
aS'caraway seed bread'
p992
aS'challah'
p993
aS'hallah'
p994
aS'cinnamon bread'
p995
aS'cracked-wheat bread'
p996
aS'cracker'
p997
aS'crouton'
p998
aS'dark bread'
p999
aS'whole wheat bread'
p1000
aS'whole meal bread'
p1001
aS'brown bread'
p1002
aS'english muffin'
p1003
aS'flatbread'
p1004
aS'garlic bread'
p1005
aS'gluten bread'
p1006
aS'host'
p1007
aS'loaf of bread'
p1008
aS'loaf'
p1009
aS'matzo'
p1010
aS'matzoh'
p1011
aS'matzah'
p1012
aS'unleavened bread'
p1013
aS'nan'
p1014
aS'naan'
p1015
aS'onion bread'
p1016
aS'quick bread'
p1017
aS'raisin bread'
p1018
aS'rye bread'
p1019
aS'salt-rising bread'
p1020
aS'simnel'
p1021
aS'sour bread'
p1022
aS'sourdough bread'
p1023
aS'toast'
p1024
aS'wafer'
p1025
aS'white bread'
p1026
aS'light bread'
p1027
aS'baked potato'
p1028
aS'french fries'
p1029
aS'french-fried potatoes'
p1030
aS'fries'
p1031
aS'chips'
p1032
aS'home fries'
p1033
aS'home-fried potatoes'
p1034
aS'mashed potato'
p1035
aS'uruguay potato'
p1036
aS'antipasto'
p1037
aS'canape'
p1038
aS'cocktail'
p1039
aS'crudites'
p1040
aS"hors d'oeuvre"
p1041
aS'ambrosia'
p1042
aS'baked alaska'
p1043
aS'blancmange'
p1044
aS'charlotte'
p1045
aS'compote'
p1046
aS'fruit compote'
p1047
aS'dumpling'
p1048
aS'flan'
p1049
aS'frozen dessert'
p1050
aS'junket'
p1051
aS'mousse'
p1052
aS'pavlova'
p1053
aS'peach melba'
p1054
aS'pudding'
p1055
aS'pud'
p1056
aS'pudding'
p1057
aS'syllabub'
p1058
aS'sillabub'
p1059
aS'tiramisu'
p1060
aS'whip'
p1061
aS'zabaglione'
p1062
aS'sabayon'
p1063
aS'plate'
p1064
aS'aspic'
p1065
aS"calf's-foot jelly"
p1066
aS'gelatin dessert'
p1067
aS'candied apple'
p1068
aS'candy apple'
p1069
aS'taffy apple'
p1070
aS'caramel apple'
p1071
aS'toffee apple'
p1072
aS'candy'
p1073
aS'confect'
p1074
aS'center'
p1075
aS'centre'
p1076
aS'chewing gum'
p1077
aS'gum'
p1078
aS'comfit'
p1079
aS'confectionery'
p1080
aS'confiture'
p1081
aS'hardbake'
p1082
aS'maraschino'
p1083
aS'maraschino cherry'
p1084
aS'nonpareil'
p1085
aS'sweetmeat'
p1086
aS'hard-boiled egg'
p1087
aS'hard-cooked egg'
p1088
aS'beef burrito'
p1089
aS'quesadilla'
p1090
aS'chicken casserole'
p1091
aS'arroz con pollo'
p1092
aS'lamb curry'
p1093
aS'bavarian cream'
p1094
aS'creme anglais'
p1095
aS'creme brulee'
p1096
aS'creme caramel'
p1097
aS'fruit custard'
p1098
aS'beef fondue'
p1099
aS'boeuf fondu bourguignon'
p1100
aS'cheese fondue'
p1101
aS'chocolate fondue'
p1102
aS'corned beef hash'
p1103
aS'souvlaki'
p1104
aS'souvlakia'
p1105
aS'fish loaf'
p1106
aS'porcupine ball'
p1107
aS'porcupines'
p1108
aS'swedish meatball'
p1109
aS'chicken mousse'
p1110
aS'fish mousse'
p1111
aS'egg foo yong'
p1112
aS'egg fu yung'
p1113
aS'firm omelet'
p1114
aS'fluffy omelet'
p1115
aS'cannelloni'
p1116
aS'lasagna'
p1117
aS'lasagne'
p1118
aS'macaroni and cheese'
p1119
aS'spaghetti'
p1120
aS'fish cake'
p1121
aS'fish ball'
p1122
aS'bulgur pilaf'
p1123
aS'anchovy pizza'
p1124
aS'cheese pizza'
p1125
aS'pepperoni pizza'
p1126
aS'sausage pizza'
p1127
aS'sicilian pizza'
p1128
aS'gruel'
p1129
aS'hasty pudding'
p1130
aS'oatmeal'
p1131
aS'burgoo'
p1132
aS'carrot pudding'
p1133
aS'corn pudding'
p1134
aS'chicken salad'
p1135
aS'coleslaw'
p1136
aS'slaw'
p1137
aS'crab louis'
p1138
aS'fruit salad'
p1139
aS'herring salad'
p1140
aS'molded salad'
p1141
aS'pasta salad'
p1142
aS'potato salad'
p1143
aS'salad nicoise'
p1144
aS'salmagundi'
p1145
aS'tabbouleh'
p1146
aS'tabooli'
p1147
aS'tossed salad'
p1148
aS'tuna fish salad'
p1149
aS'tuna salad'
p1150
aS'veal scallopini'
p1151
aS'lobster newburg'
p1152
aS'lobster a la newburg'
p1153
aS'shrimp newburg'
p1154
aS'mushy peas'
p1155
aS'raita'
p1156
aS'chip'
p1157
aS'crisp'
p1158
aS'potato chip'
p1159
aS'saratoga chip'
p1160
aS'corn chip'
p1161
aS'potato skin'
p1162
aS'potato peel'
p1163
aS'potato peelings'
p1164
aS'sandwich'
p1165
aS'cheese souffle'
p1166
aS'alphabet soup'
p1167
aS'bisque'
p1168
aS'borsch'
p1169
aS'borsh'
p1170
aS'borscht'
p1171
aS'borsht'
p1172
aS'borshch'
p1173
aS'bortsch'
p1174
aS'broth'
p1175
aS'stock'
p1176
aS'broth'
p1177
aS'chicken soup'
p1178
aS'chowder'
p1179
aS'cock-a-leekie'
p1180
aS'cocky-leeky'
p1181
aS'consomme'
p1182
aS'eggdrop soup'
p1183
aS'gazpacho'
p1184
aS'green pea soup'
p1185
aS'potage st. germain'
p1186
aS'gumbo'
p1187
aS'julienne'
p1188
aS'lentil soup'
p1189
aS'marmite'
p1190
aS'mock turtle soup'
p1191
aS'mulligatawny'
p1192
aS'oxtail soup'
p1193
aS'pea soup'
p1194
aS'pepper pot'
p1195
aS'philadelphia pepper pot'
p1196
aS'petite marmite'
p1197
aS'minestrone'
p1198
aS'vegetable soup'
p1199
aS'potage'
p1200
aS'pottage'
p1201
aS'scotch broth'
p1202
aS'soup du jour'
p1203
aS'split-pea soup'
p1204
aS'turtle soup'
p1205
aS'green turtle soup'
p1206
aS'vichyssoise'
p1207
aS'won ton'
p1208
aS'wonton'
p1209
aS'wonton soup'
p1210
aS'beef stew'
p1211
aS'bigos'
p1212
aS'brunswick stew'
p1213
aS'burgoo'
p1214
aS'fish stew'
p1215
aS'fricassee'
p1216
aS'goulash'
p1217
aS'hungarian goulash'
p1218
aS'gulyas'
p1219
aS'hot pot'
p1220
aS'hotpot'
p1221
aS'hotchpotch'
p1222
aS'irish stew'
p1223
aS'lobscouse'
p1224
aS'lobscuse'
p1225
aS'scouse'
p1226
aS'lobster stew'
p1227
aS'mulligan stew'
p1228
aS'mulligan'
p1229
aS'irish burgoo'
p1230
aS'olla podrida'
p1231
aS'spanish burgoo'
p1232
aS'oyster stew'
p1233
aS'pot-au-feu'
p1234
aS'pottage'
p1235
aS'purloo'
p1236
aS'chicken purloo'
p1237
aS'poilu'
p1238
aS'ragout'
p1239
aS'ratatouille'
p1240
aS'slumgullion'
p1241
aS'chicken taco'
p1242
aS'chicken tetrazzini'
p1243
aS'bean tostada'
p1244
aS'apple turnover'
p1245
aS'knish'
p1246
aS'pirogi'
p1247
aS'piroshki'
p1248
aS'pirozhki'
p1249
aS'samosa'
p1250
aS'coffee break'
p1251
aS'tea break'
p1252
aS'nosh'
p1253
aS'refreshment'
p1254
aS'continental breakfast'
p1255
aS'petit dejeuner'
p1256
aS'power breakfast'
p1257
aS'smorgasbord'
p1258
aS'high tea'
p1259
aS'business lunch'
p1260
aS'cookout'
p1261
aS'seder'
p1262
aS'passover supper'
p1263
aS'vitamin a'
p1264
aS'antiophthalmic factor'
p1265
aS'axerophthol'
p1266
aS'a'
p1267
aS'vitamin d'
p1268
aS'calciferol'
p1269
aS'viosterol'
p1270
aS'ergocalciferol'
p1271
aS'cholecalciferol'
p1272
aS'd'
p1273
aS'vitamin e'
p1274
aS'tocopherol'
p1275
aS'e'
p1276
aS'vitamin k'
p1277
aS'naphthoquinone'
p1278
aS'antihemorrhagic factor'
p1279
aS'b-complex vitamin'
p1280
aS'b complex'
p1281
aS'vitamin b complex'
p1282
aS'vitamin b'
p1283
aS'b vitamin'
p1284
aS'b'
p1285
aS'vitamin c'
p1286
aS'c'
p1287
aS'ascorbic acid'
p1288
aS'vitamin p'
p1289
aS'bioflavinoid'
p1290
aS'citrin'
p1291
aS'ale'
p1292
aS'draft beer'
p1293
aS'draught beer'
p1294
aS'lager'
p1295
aS'lager beer'
p1296
aS'suds'
p1297
aS'metheglin'
p1298
aS'kahlua'
p1299
aS'curacao'
p1300
aS'curacoa'
p1301
aS'grand marnier'
p1302
aS'triple sec'
p1303
aS'applejack'
p1304
aS'armagnac'
p1305
aS'calvados'
p1306
aS'cognac'
p1307
aS'eau de vie'
p1308
aS'grappa'
p1309
aS'kirsch'
p1310
aS'marc'
p1311
aS'slivovitz'
p1312
aS'bathtub gin'
p1313
aS'geneva'
p1314
aS'holland gin'
p1315
aS'hollands'
p1316
aS'sloe gin'
p1317
aS'demerara'
p1318
aS'demerara rum'
p1319
aS'grog'
p1320
aS'jamaica rum'
p1321
aS'blended whiskey'
p1322
aS'blended whisky'
p1323
aS'bourbon'
p1324
aS'corn whiskey'
p1325
aS'corn whisky'
p1326
aS'corn'
p1327
aS'irish'
p1328
aS'irish whiskey'
p1329
aS'irish whisky'
p1330
aS'rye'
p1331
aS'rye whiskey'
p1332
aS'rye whisky'
p1333
aS'scotch'
p1334
aS'scotch whiskey'
p1335
aS'scotch whisky'
p1336
aS'malt whiskey'
p1337
aS'malt whisky'
p1338
aS'scotch malt whiskey'
p1339
aS'scotch malt whisky'
p1340
aS'sour mash'
p1341
aS'sour mash whiskey'
p1342
aS'bloody mary'
p1343
aS'bullshot'
p1344
aS'daiquiri'
p1345
aS'rum cocktail'
p1346
aS'gimlet'
p1347
aS'gin and it'
p1348
aS'grasshopper'
p1349
aS'harvey wallbanger'
p1350
aS'manhattan'
p1351
aS'margarita'
p1352
aS'martini'
p1353
aS'old fashioned'
p1354
aS'pink lady'
p1355
aS"planter's punch"
p1356
aS'sazerac'
p1357
aS'screwdriver'
p1358
aS'sidecar'
p1359
aS'sour'
p1360
aS'stinger'
p1361
aS'white russian'
p1362
aS'cobbler'
p1363
aS'collins'
p1364
aS'tom collins'
p1365
aS'gin and tonic'
p1366
aS'julep'
p1367
aS'mint julep'
p1368
aS'scotch and soda'
p1369
aS'sling'
p1370
aS'zombie'
p1371
aS'zombi'
p1372
aS'tom and jerry'
p1373
aS'eggnog'
p1374
aS'fish house punch'
p1375
aS'fruit punch'
p1376
aS'glogg'
p1377
aS'may wine'
p1378
aS'milk punch'
p1379
aS'wassail'
p1380
aS'gin rickey'
p1381
aS'claret'
p1382
aS'red bordeaux'
p1383
aS'medoc'
p1384
aS'beaujolais'
p1385
aS'chablis'
p1386
aS'white burgundy'
p1387
aS'montrachet'
p1388
aS'straw wine'
p1389
aS'madeira'
p1390
aS'marsala'
p1391
aS'muscat'
p1392
aS'muscatel'
p1393
aS'muscadel'
p1394
aS'muscadelle'
p1395
aS'port'
p1396
aS'port wine'
p1397
aS'sherry'
p1398
aS'bishop'
p1399
aS'negus'
p1400
aS'cabernet'
p1401
aS'cabernet sauvignon'
p1402
aS'chianti'
p1403
aS'merlot'
p1404
aS'pinot noir'
p1405
aS'rioja'
p1406
aS'zinfandel'
p1407
aS'champagne'
p1408
aS'bubbly'
p1409
aS'cold duck'
p1410
aS'vin ordinaire'
p1411
aS'dry vermouth'
p1412
aS'french vermouth'
p1413
aS'sweet vermouth'
p1414
aS'italian vermouth'
p1415
aS'canary wine'
p1416
aS'chardonnay'
p1417
aS'pinot chardonnay'
p1418
aS'chenin blanc'
p1419
aS'moselle'
p1420
aS'muscadet'
p1421
aS'pinot blanc'
p1422
aS'rhine wine'
p1423
aS'rhenish'
p1424
aS'hock'
p1425
aS'sack'
p1426
aS'sauterne'
p1427
aS'sauternes'
p1428
aS'sauvignon blanc'
p1429
aS'soave'
p1430
aS'verdicchio'
p1431
aS'vouvray'
p1432
aS'yquem'
p1433
aS'camomile tea'
p1434
aS'multivitamin'
p1435
aS'multivitamin pill'
p1436
aS'puff paste'
p1437
aS'pate feuillete'
p1438
aS'brownie mix'
p1439
aS'cake mix'
p1440
aS'lemonade mix'
p1441
aS'ghee'
p1442
aS'bavarian blue'
p1443
aS'danish blue'
p1444
aS'gorgonzola'
p1445
aS'roquefort'
p1446
aS'stilton'
p1447
aS'rat cheese'
p1448
aS'store cheese'
p1449
aS'double cream'
p1450
aS'mascarpone'
p1451
aS'emmenthal'
p1452
aS'emmental'
p1453
aS'emmenthaler'
p1454
aS'emmentaler'
p1455
aS'gruyere'
p1456
aS'sapsago'
p1457
aS'lye hominy'
p1458
aS'pearl hominy'
p1459
aS'catsup'
p1460
aS'ketchup'
p1461
aS'cetchup'
p1462
aS'tomato ketchup'
p1463
aS'chili sauce'
p1464
aS'chutney'
p1465
aS'indian relish'
p1466
aS'cranberry sauce'
p1467
aS'dip'
p1468
aS'duck sauce'
p1469
aS'hoisin sauce'
p1470
aS'horseradish'
p1471
aS'marinade'
p1472
aS'mint sauce'
p1473
aS'mustard'
p1474
aS'table mustard'
p1475
aS'relish'
p1476
aS'salsa'
p1477
aS'sauce'
p1478
aS'soy sauce'
p1479
aS'soy'
p1480
aS'spread'
p1481
aS'paste'
p1482
aS'steak sauce'
p1483
aS'taco sauce'
p1484
aS'vinegar'
p1485
aS'acetum'
p1486
aS'wasabi'
p1487
aS'clove'
p1488
aS'garlic clove'
p1489
aS'angelica'
p1490
aS'basil'
p1491
aS'sweet basil'
p1492
aS'bay leaf'
p1493
aS'borage'
p1494
aS'caraway'
p1495
aS'chervil'
p1496
aS'chives'
p1497
aS'comfrey'
p1498
aS'healing herb'
p1499
aS'coriander'
p1500
aS'chinese parsley'
p1501
aS'cilantro'
p1502
aS'costmary'
p1503
aS'dill'
p1504
aS'dill weed'
p1505
aS'fennel'
p1506
aS'common fennel'
p1507
aS'fines herbes'
p1508
aS'hyssop'
p1509
aS'lemon balm'
p1510
aS'lovage'
p1511
aS'marjoram'
p1512
aS'oregano'
p1513
aS'mint'
p1514
aS'parsley'
p1515
aS'rosemary'
p1516
aS'rue'
p1517
aS'sage'
p1518
aS'savory'
p1519
aS'savoury'
p1520
aS'sweet cicely'
p1521
aS'sweet woodruff'
p1522
aS'waldmeister'
p1523
aS'tarragon'
p1524
aS'estragon'
p1525
aS'tea'
p1526
aS'tea leaf'
p1527
aS'thyme'
p1528
aS'spanish paprika'
p1529
aS'black pepper'
p1530
aS'white pepper'
p1531
aS'allspice'
p1532
aS'chinese anise'
p1533
aS'star anise'
p1534
aS'star aniseed'
p1535
aS'cinnamon'
p1536
aS'clove'
p1537
aS'fennel'
p1538
aS'five spice powder'
p1539
aS'ginger'
p1540
aS'powdered ginger'
p1541
aS'mace'
p1542
aS'nutmeg'
p1543
aS'aspartame'
p1544
aS'honey'
p1545
aS'saccharin'
p1546
aS'sugar'
p1547
aS'refined sugar'
p1548
aS'syrup'
p1549
aS'sirup'
p1550
aS'grissino'
p1551
aS'bagel'
p1552
aS'beigel'
p1553
aS'brioche'
p1554
aS'clover-leaf roll'
p1555
aS'crescent roll'
p1556
aS'croissant'
p1557
aS'frankfurter bun'
p1558
aS'hotdog bun'
p1559
aS'hamburger bun'
p1560
aS'hamburger roll'
p1561
aS'hard roll'
p1562
aS'vienna roll'
p1563
aS'kaiser roll'
p1564
aS'onion roll'
p1565
aS'parker house roll'
p1566
aS'soft roll'
p1567
aS'sweet roll'
p1568
aS'coffee roll'
p1569
aS'tea bread'
p1570
aS'graham cracker'
p1571
aS'oyster cracker'
p1572
aS'pretzel'
p1573
aS'saltine'
p1574
aS'soda cracker'
p1575
aS'water biscuit'
p1576
aS'graham bread'
p1577
aS'bannock'
p1578
aS'chapatti'
p1579
aS'chapati'
p1580
aS'flatbrod'
p1581
aS'pita'
p1582
aS'pocket bread'
p1583
aS'french loaf'
p1584
aS'banana bread'
p1585
aS'biscuit'
p1586
aS'cornbread'
p1587
aS'date-nut bread'
p1588
aS'date bread'
p1589
aS'irish soda bread'
p1590
aS'muffin'
p1591
aS'gem'
p1592
aS'nut bread'
p1593
aS'oatcake'
p1594
aS'scone'
p1595
aS'skillet bread'
p1596
aS'fry bread'
p1597
aS'yorkshire pudding'
p1598
aS'black bread'
p1599
aS'pumpernickel'
p1600
aS'jewish rye bread'
p1601
aS'jewish rye'
p1602
aS'limpa'
p1603
aS'swedish rye bread'
p1604
aS'swedish rye'
p1605
aS'cinnamon toast'
p1606
aS'melba toast'
p1607
aS'orange toast'
p1608
aS'zwieback'
p1609
aS'rusk'
p1610
aS'brussels biscuit'
p1611
aS'twice-baked bread'
p1612
aS'french bread'
p1613
aS'italian bread'
p1614
aS'jacket potato'
p1615
aS'crab cocktail'
p1616
aS'fruit cocktail'
p1617
aS'shrimp cocktail'
p1618
aS'carrot stick'
p1619
aS'celery stick'
p1620
aS'pigs in blankets'
p1621
aS'rollmops'
p1622
aS'stuffed mushroom'
p1623
aS'charlotte russe'
p1624
aS'apple dumpling'
p1625
aS'frozen custard'
p1626
aS'soft ice cream'
p1627
aS'frozen pudding'
p1628
aS'ice-cream cake'
p1629
aS'icebox cake'
p1630
aS'ice-cream cone'
p1631
aS'ice-cream sundae'
p1632
aS'sundae'
p1633
aS'ice'
p1634
aS'frappe'
p1635
aS'ice cream'
p1636
aS'icecream'
p1637
aS'ice lolly'
p1638
aS'lolly'
p1639
aS'lollipop'
p1640
aS'popsicle'
p1641
aS'ice milk'
p1642
aS'parfait'
p1643
aS'sherbert'
p1644
aS'sherbet'
p1645
aS'snowball'
p1646
aS'snowball'
p1647
aS'split'
p1648
aS'chocolate mousse'
p1649
aS'trifle'
p1650
aS'brown betty'
p1651
aS'chocolate pudding'
p1652
aS'duff'
p1653
aS'plum duff'
p1654
aS'flummery'
p1655
aS'nesselrode'
p1656
aS'nesselrode pudding'
p1657
aS'pease pudding'
p1658
aS'plum pudding'
p1659
aS'christmas pudding'
p1660
aS'roly-poly'
p1661
aS'roly-poly pudding'
p1662
aS'steamed pudding'
p1663
aS'suet pudding'
p1664
aS'tapioca pudding'
p1665
aS'vanilla pudding'
p1666
aS'prune whip'
p1667
aS'jello'
p1668
aS'jell-o'
p1669
aS'bonbon'
p1670
aS'brandyball'
p1671
aS'brittle'
p1672
aS'toffee'
p1673
aS'toffy'
p1674
aS'butterscotch'
p1675
aS'candy bar'
p1676
aS'candy cane'
p1677
aS'candy corn'
p1678
aS'caramel'
p1679
aS'carob bar'
p1680
aS'cotton candy'
p1681
aS'spun sugar'
p1682
aS'candyfloss'
p1683
aS'dragee'
p1684
aS'dragee'
p1685
aS'easter egg'
p1686
aS'fondant'
p1687
aS'fudge'
p1688
aS'gumdrop'
p1689
aS'hard candy'
p1690
aS'honey crisp'
p1691
aS'horehound'
p1692
aS'jelly bean'
p1693
aS'jelly egg'
p1694
aS'kiss'
p1695
aS'candy kiss'
p1696
aS'licorice'
p1697
aS'liquorice'
p1698
aS'life saver'
p1699
aS'lollipop'
p1700
aS'sucker'
p1701
aS'all-day sucker'
p1702
aS'lozenge'
p1703
aS'marshmallow'
p1704
aS'marzipan'
p1705
aS'marchpane'
p1706
aS'mint'
p1707
aS'mint candy'
p1708
aS'nougat'
p1709
aS'nougat bar'
p1710
aS'nut bar'
p1711
aS'patty'
p1712
aS'peanut bar'
p1713
aS'popcorn ball'
p1714
aS'praline'
p1715
aS'rock candy'
p1716
aS'rock'
p1717
aS'rock candy'
p1718
aS'sugar candy'
p1719
aS'sugarplum'
p1720
aS'taffy'
p1721
aS'truffle'
p1722
aS'chocolate truffle'
p1723
aS'turkish delight'
p1724
aS'bubble gum'
p1725
aS'gum ball'
p1726
aS'candied fruit'
p1727
aS'succade'
p1728
aS'crystallized fruit'
p1729
aS'conserve'
p1730
aS'preserve'
p1731
aS'conserves'
p1732
aS'preserves'
p1733
aS'easter egg'
p1734
aS'chicken cacciatore'
p1735
aS'chicken cacciatora'
p1736
aS"hunter's chicken"
p1737
aS'salmon loaf'
p1738
aS'french omelet'
p1739
aS'western omelet'
p1740
aS'codfish ball'
p1741
aS'codfish cake'
p1742
aS'congee'
p1743
aS'jook'
p1744
aS'loblolly'
p1745
aS'skilly'
p1746
aS'waldorf salad'
p1747
aS'macaroni salad'
p1748
aS'caesar salad'
p1749
aS'combination salad'
p1750
aS'green salad'
p1751
aS'tortilla chip'
p1752
aS'bacon-lettuce-tomato sandwich'
p1753
aS'blt'
p1754
aS'bomber'
p1755
aS'grinder'
p1756
aS'hero'
p1757
aS'hero sandwich'
p1758
aS'hoagie'
p1759
aS'hoagy'
p1760
aS'cuban sandwich'
p1761
aS'italian sandwich'
p1762
aS'poor boy'
p1763
aS'sub'
p1764
aS'submarine'
p1765
aS'submarine sandwich'
p1766
aS'torpedo'
p1767
aS'wedge'
p1768
aS'zep'
p1769
aS'butty'
p1770
aS'chicken sandwich'
p1771
aS'club sandwich'
p1772
aS'three-decker'
p1773
aS'triple-decker'
p1774
aS'gyro'
p1775
aS'ham sandwich'
p1776
aS'hamburger'
p1777
aS'beefburger'
p1778
aS'burger'
p1779
aS'hotdog'
p1780
aS'hot dog'
p1781
aS'red hot'
p1782
aS'open-face sandwich'
p1783
aS'open sandwich'
p1784
aS'reuben'
p1785
aS'sloppy joe'
p1786
aS'tunaburger'
p1787
aS'western'
p1788
aS'western sandwich'
p1789
aS'wrap'
p1790
aS'beef broth'
p1791
aS'beef stock'
p1792
aS'chicken broth'
p1793
aS'chicken stock'
p1794
aS'liquor'
p1795
aS'pot liquor'
p1796
aS'pot likker'
p1797
aS'stock cube'
p1798
aS'barley water'
p1799
aS'bouillon'
p1800
aS'clam chowder'
p1801
aS'corn chowder'
p1802
aS'fish chowder'
p1803
aS'madrilene'
p1804
aS'bouillabaisse'
p1805
aS'matelote'
p1806
aS'chicken stew'
p1807
aS'turkey stew'
p1808
aS'beef goulash'
p1809
aS'pork-and-veal goulash'
p1810
aS'porkholt'
p1811
aS'salmi'
p1812
aS'barbecue'
p1813
aS'barbeque'
p1814
aS'burgoo'
p1815
aS'clambake'
p1816
aS'fish fry'
p1817
aS'wiener roast'
p1818
aS'weenie roast'
p1819
aS'last supper'
p1820
aS"lord's supper"
p1821
aS'vitamin a1'
p1822
aS'retinol'
p1823
aS'vitamin a2'
p1824
aS'dehydroretinol'
p1825
aS'alpha-tocopheral'
p1826
aS'vitamin k1'
p1827
aS'phylloquinone'
p1828
aS'phytonadione'
p1829
aS'vitamin k3'
p1830
aS'menadione'
p1831
aS'biotin'
p1832
aS'vitamin h'
p1833
aS'choline'
p1834
aS'inositol'
p1835
aS'niacin'
p1836
aS'nicotinic acid'
p1837
aS'pantothenic acid'
p1838
aS'pantothen'
p1839
aS'vitamin b1'
p1840
aS'thiamine'
p1841
aS'thiamin'
p1842
aS'aneurin'
p1843
aS'antiberiberi factor'
p1844
aS'vitamin b12'
p1845
aS'cobalamin'
p1846
aS'cyanocobalamin'
p1847
aS'antipernicious anemia factor'
p1848
aS'vitamin b2'
p1849
aS'vitamin g'
p1850
aS'riboflavin'
p1851
aS'lactoflavin'
p1852
aS'ovoflavin'
p1853
aS'hepatoflavin'
p1854
aS'vitamin b6'
p1855
aS'pyridoxine'
p1856
aS'pyridoxal'
p1857
aS'pyridoxamine'
p1858
aS'adermin'
p1859
aS'vitamin bc'
p1860
aS'vitamin m'
p1861
aS'folate'
p1862
aS'folic acid'
p1863
aS'folacin'
p1864
aS'pteroylglutamic acid'
p1865
aS'pteroylmonoglutamic acid'
p1866
aS'bitter'
p1867
aS'burton'
p1868
aS'pale ale'
p1869
aS'porter'
p1870
aS"porter's beer"
p1871
aS'stout'
p1872
aS'weissbier'
p1873
aS'white beer'
p1874
aS'wheat beer'
p1875
aS'bock'
p1876
aS'bock beer'
p1877
aS'light beer'
p1878
aS'malt'
p1879
aS'malt liquor'
p1880
aS'munich beer'
p1881
aS'munchener'
p1882
aS'oktoberfest'
p1883
aS'octoberfest'
p1884
aS'pilsner'
p1885
aS'pilsener'
p1886
aS'moonshine'
p1887
aS'bootleg'
p1888
aS'corn liquor'
p1889
aS'poteen'
p1890
aS'virgin mary'
p1891
aS'bloody shame'
p1892
aS'nada daiquiri'
p1893
aS'strawberry daiquiri'
p1894
aS'rob roy'
p1895
aS'vodka martini'
p1896
aS'whiskey sour'
p1897
aS'whisky sour'
p1898
aS'brandy sling'
p1899
aS'gin sling'
p1900
aS'rum sling'
p1901
aS'champagne cup'
p1902
aS'claret cup'
p1903
aS'saint emilion'
p1904
aS'malmsey'
p1905
aS'amontillado'
p1906
aS'manzanilla'
p1907
aS'liebfraumilch'
p1908
aS'riesling'
p1909
aS'phyllo'
p1910
aS'bean dip'
p1911
aS'cheese dip'
p1912
aS'clam dip'
p1913
aS'guacamole'
p1914
aS'chinese mustard'
p1915
aS'powdered mustard'
p1916
aS'dry mustard'
p1917
aS'chowchow'
p1918
aS'olive'
p1919
aS'piccalilli'
p1920
aS'pickle'
p1921
aS'pickle relish'
p1922
aS'aioli'
p1923
aS'aioli sauce'
p1924
aS'garlic sauce'
p1925
aS'allemande'
p1926
aS'allemande sauce'
p1927
aS'anchovy sauce'
p1928
aS'apricot sauce'
p1929
aS'barbecue sauce'
p1930
aS'bearnaise'
p1931
aS'bercy'
p1932
aS'bercy butter'
p1933
aS'bordelaise'
p1934
aS'bourguignon'
p1935
aS'bourguignon sauce'
p1936
aS'burgundy sauce'
p1937
aS'bread sauce'
p1938
aS'brown sauce'
p1939
aS'sauce espagnole'
p1940
aS'caper sauce'
p1941
aS'chinese brown sauce'
p1942
aS'brown sauce'
p1943
aS'chocolate sauce'
p1944
aS'chocolate syrup'
p1945
aS'cocktail sauce'
p1946
aS'seafood sauce'
p1947
aS'colbert'
p1948
aS'colbert butter'
p1949
aS'curry sauce'
p1950
aS'demiglace'
p1951
aS'demi-glaze'
p1952
aS'dressing'
p1953
aS'salad dressing'
p1954
aS'espagnole'
p1955
aS'sauce espagnole'
p1956
aS'gravy'
p1957
aS'hard sauce'
p1958
aS'hollandaise'
p1959
aS'horseradish sauce'
p1960
aS'sauce albert'
p1961
aS'hot sauce'
p1962
aS'hungarian sauce'
p1963
aS'paprika sauce'
p1964
aS"hunter's sauce"
p1965
aS'sauce chausseur'
p1966
aS'lyonnaise sauce'
p1967
aS'brown onion sauce'
p1968
aS'marchand de vin'
p1969
aS'mushroom wine sauce'
p1970
aS'mole'
p1971
aS'mushroom sauce'
p1972
aS'mustard sauce'
p1973
aS'nantua'
p1974
aS'shrimp sauce'
p1975
aS'newburg sauce'
p1976
aS'peach sauce'
p1977
aS'pepper sauce'
p1978
aS'poivrade'
p1979
aS'pesto'
p1980
aS'plum sauce'
p1981
aS'poulette'
p1982
aS'ravigote'
p1983
aS'ravigotte'
p1984
aS'remoulade sauce'
p1985
aS'smitane'
p1986
aS'snail butter'
p1987
aS'soubise'
p1988
aS'white onion sauce'
p1989
aS'spaghetti sauce'
p1990
aS'pasta sauce'
p1991
aS'tartare sauce'
p1992
aS'tartar sauce'
p1993
aS'veloute'
p1994
aS'white sauce'
p1995
aS'bechamel sauce'
p1996
aS'bechamel'
p1997
aS'wine sauce'
p1998
aS'worcester sauce'
p1999
aS'worcestershire'
p2000
aS'worcestershire sauce'
p2001
aS'anchovy butter'
p2002
aS'cheese spread'
p2003
aS'fishpaste'
p2004
aS'garlic butter'
p2005
aS'hummus'
p2006
aS'humus'
p2007
aS'hommos'
p2008
aS'hoummos'
p2009
aS'humous'
p2010
aS'lobster butter'
p2011
aS'margarine'
p2012
aS'margarin'
p2013
aS'oleo'
p2014
aS'oleomargarine'
p2015
aS'marge'
p2016
aS'marshmallow fluff'
p2017
aS'miso'
p2018
aS'nut butter'
p2019
aS'onion butter'
p2020
aS'pate'
p2021
aS'peanut butter'
p2022
aS'pimento butter'
p2023
aS'shrimp butter'
p2024
aS'tahini'
p2025
aS'tapenade'
p2026
aS'chili vinegar'
p2027
aS'cider vinegar'
p2028
aS'wine vinegar'
p2029
aS'clary sage'
p2030
aS'summer savory'
p2031
aS'summer savoury'
p2032
aS'winter savory'
p2033
aS'winter savoury'
p2034
aS'black tea'
p2035
aS'green tea'
p2036
aS'oolong'
p2037
aS'tea bag'
p2038
aS'stick cinnamon'
p2039
aS'beet sugar'
p2040
aS'brown sugar'
p2041
aS'cane sugar'
p2042
aS'caramel'
p2043
aS'caramelized sugar'
p2044
aS'corn sugar'
p2045
aS'granulated sugar'
p2046
aS'lump sugar'
p2047
aS'sugarloaf'
p2048
aS'sugar loaf'
p2049
aS'loaf sugar'
p2050
aS'corn syrup'
p2051
aS'grenadine'
p2052
aS'maple syrup'
p2053
aS'molasses'
p2054
aS'sorghum'
p2055
aS'sorghum molasses'
p2056
aS'sugar syrup'
p2057
aS'treacle'
p2058
aS'golden syrup'
p2059
aS'onion bagel'
p2060
aS'bialy'
p2061
aS'bialystoker'
p2062
aS'bear claw'
p2063
aS'bear paw'
p2064
aS'cinnamon roll'
p2065
aS'cinnamon bun'
p2066
aS'cinnamon snail'
p2067
aS'cross bun'
p2068
aS'hot cross bun'
p2069
aS'danish'
p2070
aS'danish pastry'
p2071
aS'honey bun'
p2072
aS'sticky bun'
p2073
aS'caramel bun'
p2074
aS'schnecken'
p2075
aS'pinwheel roll'
p2076
aS'soft pretzel'
p2077
aS'baking-powder biscuit'
p2078
aS'buttermilk biscuit'
p2079
aS'soda biscuit'
p2080
aS'drop biscuit'
p2081
aS'hardtack'
p2082
aS'pilot biscuit'
p2083
aS'pilot bread'
p2084
aS'sea biscuit'
p2085
aS'ship biscuit'
p2086
aS'rolled biscuit'
p2087
aS'ashcake'
p2088
aS'ash cake'
p2089
aS'corn tash'
p2090
aS'corn cake'
p2091
aS'corn dab'
p2092
aS'corn dodger'
p2093
aS'dodger'
p2094
aS'cornpone'
p2095
aS'pone'
p2096
aS'hush puppy'
p2097
aS'hushpuppy'
p2098
aS'johnnycake'
p2099
aS'johnny cake'
p2100
aS'journey cake'
p2101
aS'skillet corn bread'
p2102
aS'spoon bread'
p2103
aS'batter bread'
p2104
aS'bran muffin'
p2105
aS'corn muffin'
p2106
aS'popover'
p2107
aS'drop scone'
p2108
aS'griddlecake'
p2109
aS'scotch pancake'
p2110
aS'baguet'
p2111
aS'baguette'
p2112
aS'water ice'
p2113
aS'sorbet'
p2114
aS'chocolate ice cream'
p2115
aS'neapolitan ice cream'
p2116
aS'peach ice cream'
p2117
aS'strawberry ice cream'
p2118
aS'tutti-frutti'
p2119
aS'vanilla ice cream'
p2120
aS'banana split'
p2121
aS'tipsy cake'
p2122
aS'spotted dick'
p2123
aS'peanut brittle'
p2124
aS'candy egg'
p2125
aS'chocolate egg'
p2126
aS'chocolate fudge'
p2127
aS'divinity'
p2128
aS'divinity fudge'
p2129
aS'penuche'
p2130
aS'penoche'
p2131
aS'panoche'
p2132
aS'panocha'
p2133
aS'jujube'
p2134
aS'barley-sugar'
p2135
aS'barley candy'
p2136
aS'jawbreaker'
p2137
aS'lemon drop'
p2138
aS'sourball'
p2139
aS'chocolate kiss'
p2140
aS'meringue kiss'
p2141
aS'molasses kiss'
p2142
aS'scotch kiss'
p2143
aS'cachou'
p2144
aS'cough drop'
p2145
aS'troche'
p2146
aS'pastille'
p2147
aS'pastil'
p2148
aS'peppermint'
p2149
aS'peppermint candy'
p2150
aS'peppermint patty'
p2151
aS'molasses taffy'
p2152
aS'candied citrus peel'
p2153
aS'crystallized ginger'
p2154
aS'apple butter'
p2155
aS'chowchow'
p2156
aS'jam'
p2157
aS'jelly'
p2158
aS'lemon curd'
p2159
aS'lemon cheese'
p2160
aS'marmalade'
p2161
aS"chef's salad"
p2162
aS'nacho'
p2163
aS'cheeseburger'
p2164
aS'chili dog'
p2165
aS'manhattan clam chowder'
p2166
aS'new england clam chowder'
p2167
aS'guinness'
p2168
aS'weizenbier'
p2169
aS'weizenbock'
p2170
aS'black olive'
p2171
aS'ripe olive'
p2172
aS'green olive'
p2173
aS'caper'
p2174
aS'dill pickle'
p2175
aS'gherkin'
p2176
aS'sweet pickle'
p2177
aS'hot-fudge sauce'
p2178
aS'fudge sauce'
p2179
aS'anchovy dressing'
p2180
aS'bleu cheese dressing'
p2181
aS'blue cheese dressing'
p2182
aS'blue cheese dressing'
p2183
aS'roquefort dressing'
p2184
aS'french dressing'
p2185
aS'vinaigrette'
p2186
aS'sauce vinaigrette'
p2187
aS'half-and-half dressing'
p2188
aS'italian dressing'
p2189
aS'lorenzo dressing'
p2190
aS'mayonnaise'
p2191
aS'mayo'
p2192
aS'russian dressing'
p2193
aS'russian mayonnaise'
p2194
aS'salad cream'
p2195
aS'sauce louis'
p2196
aS'thousand island dressing'
p2197
aS'tabasco'
p2198
aS'tabasco sauce'
p2199
aS'bolognese pasta sauce'
p2200
aS'carbonara'
p2201
aS'marinara'
p2202
aS'tomato sauce'
p2203
aS'blanc'
p2204
aS'cheese sauce'
p2205
aS'cream sauce'
p2206
aS'duck pate'
p2207
aS'foie gras'
p2208
aS'pate de foie gras'
p2209
aS'congou'
p2210
aS'congo'
p2211
aS'congou tea'
p2212
aS'english breakfast tea'
p2213
aS'darjeeling'
p2214
aS'orange pekoe'
p2215
aS'pekoe'
p2216
aS'souchong'
p2217
aS'soochong'
p2218
aS'hyson'
p2219
aS'demerara'
p2220
aS'demerara sugar'
p2221
aS'powdered sugar'
p2222
aS'shortcake'
p2223
aS'hoecake'
p2224
aS'shawnee cake'
p2225
aS'choc-ice'
p2226
aS'grapefruit peel'
p2227
aS'lemon peel'
p2228
aS'orange peel'
p2229
aS'strawberry jam'
p2230
aS'strawberry preserves'
p2231
aS'apple jelly'
p2232
aS'grape jelly'
p2233
aS'orange marmalade'
p2234
aS'bread and butter pickle'
p2235
aS'green mayonnaise'
p2236
aS'sauce verte'
p2237
aS'mornay sauce'
p2238
aS'castor sugar'
p2239
aS'caster sugar'
p2240
aS'icing sugar'
p2241
aS'crabapple jelly'
p2242
aS'baked goods'
p2243
aS'breakfast food'
p2244
aS'butter'
p2245
aS'cheese'
p2246
aS'chocolate'
p2247
aS'coconut'
p2248
aS'coconut meat'
p2249
aS'convenience food'
p2250
aS'dika bread'
p2251
aS'fish'
p2252
aS'fresh food'
p2253
aS'fresh foods'
p2254
aS'health food'
p2255
aS'junk food'
p2256
aS'leftovers'
p2257
aS'loaf'
p2258
aS'meat'
p2259
aS'pasta'
p2260
aS'alimentary paste'
p2261
aS'produce'
p2262
aS'green goods'
p2263
aS'green groceries'
p2264
aS'garden truck'
p2265
aS'seafood'
p2266
aS'slop'
p2267
aS'yogurt'
p2268
aS'yoghurt'
p2269
aS'yoghourt'
p2270
aS'bread'
p2271
aS'breadstuff'
p2272
aS'staff of life'
p2273
aS'cake'
p2274
aS'pastry'
p2275
aS'cereal'
p2276
aS'muesli'
p2277
aS'brown butter'
p2278
aS'beurre noisette'
p2279
aS'clarified butter'
p2280
aS'drawn butter'
p2281
aS'meuniere butter'
p2282
aS'lemon butter'
p2283
aS'stick'
p2284
aS'yak butter'
p2285
aS'bleu'
p2286
aS'blue cheese'
p2287
aS'brick cheese'
p2288
aS'brie'
p2289
aS'camembert'
p2290
aS'cheddar'
p2291
aS'cheddar cheese'
p2292
aS'armerican cheddar'
p2293
aS'american cheese'
p2294
aS'cheshire cheese'
p2295
aS'cottage cheese'
p2296
aS'pot cheese'
p2297
aS'farm cheese'
p2298
aS"farmer's cheese"
p2299
aS'cream cheese'
p2300
aS'double gloucester'
p2301
aS'edam'
p2302
aS'goat cheese'
p2303
aS'chevre'
p2304
aS'gouda'
p2305
aS'gouda cheese'
p2306
aS'grated cheese'
p2307
aS'hand cheese'
p2308
aS'liederkranz'
p2309
aS'limburger'
p2310
aS'mozzarella'
p2311
aS'muenster'
p2312
aS'parmesan'
p2313
aS'process cheese'
p2314
aS'processed cheese'
p2315
aS'quark cheese'
p2316
aS'quark'
p2317
aS'ricotta'
p2318
aS'string cheese'
p2319
aS'swiss cheese'
p2320
aS'triple cream'
p2321
aS'triple creme'
p2322
aS'velveeta'
p2323
aS'bitter chocolate'
p2324
aS'baking chocolate'
p2325
aS'cooking chocolate'
p2326
aS'bittersweet chocolate'
p2327
aS'semi-sweet chocolate'
p2328
aS'dark chocolate'
p2329
aS'chocolate candy'
p2330
aS'chocolate liquor'
p2331
aS'cocoa butter'
p2332
aS'cocoa powder'
p2333
aS'couverture'
p2334
aS'milk chocolate'
p2335
aS'white chocolate'
p2336
aS'copra'
p2337
aS'delicatessen'
p2338
aS'delicatessen food'
p2339
aS'ready-mix'
p2340
aS'takeout'
p2341
aS'takeout food'
p2342
aS'takeaway'
p2343
aS'tv dinner'
p2344
aS'alewife'
p2345
aS'anchovy'
p2346
aS'eel'
p2347
aS'haddock'
p2348
aS'hake'
p2349
aS'mullet'
p2350
aS'grey mullet'
p2351
aS'gray mullet'
p2352
aS'panfish'
p2353
aS'rock salmon'
p2354
aS'salmon'
p2355
aS'schrod'
p2356
aS'scrod'
p2357
aS'shad'
p2358
aS'smelt'
p2359
aS'stockfish'
p2360
aS'trout'
p2361
aS'haslet'
p2362
aS'headcheese'
p2363
aS'lunch meat'
p2364
aS'luncheon meat'
p2365
aS'pound cake'
p2366
aS'scrapple'
p2367
aS'sugarloaf'
p2368
aS'sugar loaf'
p2369
aS'loaf sugar'
p2370
aS'beef'
p2371
aS'boeuf'
p2372
aS'bird'
p2373
aS'fowl'
p2374
aS'carbonado'
p2375
aS'cold cuts'
p2376
aS'cut'
p2377
aS'cut of meat'
p2378
aS'dark meat'
p2379
aS'escargot'
p2380
aS'snail'
p2381
aS'game'
p2382
aS'halal'
p2383
aS'horsemeat'
p2384
aS'horseflesh'
p2385
aS'jerky'
p2386
aS'jerked meat'
p2387
aS'jerk'
p2388
aS'lamb'
p2389
aS'mouton'
p2390
aS'mutton'
p2391
aS'pemmican'
p2392
aS'pemican'
p2393
aS'pork'
p2394
aS'porc'
p2395
aS'raw meat'
p2396
aS'red meat'
p2397
aS'sausage'
p2398
aS'sausage meat'
p2399
aS'stew meat'
p2400
aS'variety meat'
p2401
aS'organs'
p2402
aS'veal'
p2403
aS'veau'
p2404
aS'couscous'
p2405
aS'dumpling'
p2406
aS'dumplings'
p2407
aS'farfalle'
p2408
aS'bowtie pasta'
p2409
aS'fedelline'
p2410
aS'fettuccine'
p2411
aS'fettuccini'
p2412
aS'lasagna'
p2413
aS'lasagne'
p2414
aS'linguine'
p2415
aS'linguini'
p2416
aS'macaroni'
p2417
aS'manicotti'
p2418
aS'mostaccioli'
p2419
aS'noodle'
p2420
aS'orzo'
p2421
aS'penne'
p2422
aS'ravioli'
p2423
aS'cappelletti'
p2424
aS'rigatoni'
p2425
aS'spaghetti'
p2426
aS'spaghettini'
p2427
aS'tagliatelle'
p2428
aS'tortellini'
p2429
aS'vermicelli'
p2430
aS'ziti'
p2431
aS'eater'
p2432
aS'edible fruit'
p2433
aS'vegetable'
p2434
aS'veggie'
p2435
aS'veg'
p2436
aS'freshwater fish'
p2437
aS'milt'
p2438
aS'soft roe'
p2439
aS'octopus'
p2440
aS'periwinkle'
p2441
aS'winkle'
p2442
aS'prawn'
p2443
aS'shrimp'
p2444
aS'roe'
p2445
aS'hard roe'
p2446
aS'saltwater fish'
p2447
aS'shellfish'
p2448
aS'squid'
p2449
aS'calamari'
p2450
aS'calamary'
p2451
aS'whelk'
p2452
aS'whitefish'
p2453
aS'blueberry yogurt'
p2454
aS'frozen yogurt'
p2455
aS'anadama bread'
p2456
aS'bap'
p2457
aS'barmbrack'
p2458
aS'breadstick'
p2459
aS'bread-stick'
p2460
aS'brown bread'
p2461
aS'boston brown bread'
p2462
aS'bun'
p2463
aS'roll'
p2464
aS'caraway seed bread'
p2465
aS'challah'
p2466
aS'hallah'
p2467
aS'cinnamon bread'
p2468
aS'cracked-wheat bread'
p2469
aS'cracker'
p2470
aS'crouton'
p2471
aS'dark bread'
p2472
aS'whole wheat bread'
p2473
aS'whole meal bread'
p2474
aS'brown bread'
p2475
aS'english muffin'
p2476
aS'flatbread'
p2477
aS'garlic bread'
p2478
aS'gluten bread'
p2479
aS'host'
p2480
aS'loaf of bread'
p2481
aS'loaf'
p2482
aS'matzo'
p2483
aS'matzoh'
p2484
aS'matzah'
p2485
aS'unleavened bread'
p2486
aS'nan'
p2487
aS'naan'
p2488
aS'onion bread'
p2489
aS'quick bread'
p2490
aS'raisin bread'
p2491
aS'rye bread'
p2492
aS'salt-rising bread'
p2493
aS'simnel'
p2494
aS'sour bread'
p2495
aS'sourdough bread'
p2496
aS'toast'
p2497
aS'wafer'
p2498
aS'white bread'
p2499
aS'light bread'
p2500
aS'applesauce cake'
p2501
aS'baba'
p2502
aS'birthday cake'
p2503
aS'boston cream pie'
p2504
aS'cheesecake'
p2505
aS'chiffon cake'
p2506
aS'chocolate cake'
p2507
aS'coconut cake'
p2508
aS'coffeecake'
p2509
aS'coffee cake'
p2510
aS'cookie'
p2511
aS'cooky'
p2512
aS'biscuit'
p2513
aS'crumb cake'
p2514
aS'crumpet'
p2515
aS'cupcake'
p2516
aS'eccles cake'
p2517
aS'friedcake'
p2518
aS'fruitcake'
p2519
aS'gateau'
p2520
aS'genoise'
p2521
aS'gingerbread'
p2522
aS'honey cake'
p2523
aS'jumble'
p2524
aS'jumbal'
p2525
aS'layer cake'
p2526
aS'marble cake'
p2527
aS'pancake'
p2528
aS'battercake'
p2529
aS'flannel cake'
p2530
aS'flannel-cake'
p2531
aS'flapcake'
p2532
aS'flapjack'
p2533
aS'griddlecake'
p2534
aS'hotcake'
p2535
aS'hot cake'
p2536
aS'petit four'
p2537
aS'prune cake'
p2538
aS'rock cake'
p2539
aS'savarin'
p2540
aS'seedcake'
p2541
aS'seed cake'
p2542
aS'spice cake'
p2543
aS'sponge cake'
p2544
aS'teacake'
p2545
aS'torte'
p2546
aS'upside-down cake'
p2547
aS'skillet cake'
p2548
aS'victoria sandwich'
p2549
aS'victoria sponge'
p2550
aS'waffle'
p2551
aS'wedding cake'
p2552
aS'bridecake'
p2553
aS'white cake'
p2554
aS'baklava'
p2555
aS'dowdy'
p2556
aS'pandowdy'
p2557
aS'frangipane'
p2558
aS'french pastry'
p2559
aS'patty shell'
p2560
aS'bouchee'
p2561
aS'pie'
p2562
aS'pie crust'
p2563
aS'pie shell'
p2564
aS'profiterole'
p2565
aS'puff'
p2566
aS'rugulah'
p2567
aS'rugelach'
p2568
aS'ruggelach'
p2569
aS'sausage roll'
p2570
aS'streusel'
p2571
aS'strudel'
p2572
aS'tart'
p2573
aS'timbale'
p2574
aS'timbale case'
p2575
aS'toad-in-the-hole'
p2576
aS'vol-au-vent'
p2577
aS'cold cereal'
p2578
aS'dry cereal'
p2579
aS'hot cereal'
p2580
aS'pablum'
p2581
aS'ghee'
p2582
aS'bavarian blue'
p2583
aS'danish blue'
p2584
aS'gorgonzola'
p2585
aS'roquefort'
p2586
aS'stilton'
p2587
aS'rat cheese'
p2588
aS'store cheese'
p2589
aS'double cream'
p2590
aS'mascarpone'
p2591
aS'emmenthal'
p2592
aS'emmental'
p2593
aS'emmenthaler'
p2594
aS'emmentaler'
p2595
aS'gruyere'
p2596
aS'sapsago'
p2597
aS'choc'
p2598
aS'chocolate bar'
p2599
aS'chocolate kiss'
p2600
aS'jimmies'
p2601
aS'sprinkles'
p2602
aS'nonpareil'
p2603
aS'dutch-processed cocoa'
p2604
aS'brownie mix'
p2605
aS'cake mix'
p2606
aS'lemonade mix'
p2607
aS'elver'
p2608
aS'smoked eel'
p2609
aS'finnan haddie'
p2610
aS'finnan haddock'
p2611
aS'finnan'
p2612
aS'smoked haddock'
p2613
aS'atlantic salmon'
p2614
aS'chinook salmon'
p2615
aS'chinook'
p2616
aS'king salmon'
p2617
aS'kippered salmon'
p2618
aS'red salmon'
p2619
aS'sockeye'
p2620
aS'sockeye salmon'
p2621
aS'silver salmon'
p2622
aS'coho salmon'
p2623
aS'coho'
p2624
aS'cohoe'
p2625
aS'smoked salmon'
p2626
aS'american smelt'
p2627
aS'rainbow smelt'
p2628
aS'european smelt'
p2629
aS'sparling'
p2630
aS'rainbow trout'
p2631
aS'sea trout'
p2632
aS'salmon trout'
p2633
aS'bully beef'
p2634
aS'corned beef'
p2635
aS'corn beef'
p2636
aS'ground beef'
p2637
aS'hamburger'
p2638
aS'pastrami'
p2639
aS'poultry'
p2640
aS'wildfowl'
p2641
aS'brisket'
p2642
aS'chine'
p2643
aS'confit'
p2644
aS'cut of beef'
p2645
aS'cut of lamb'
p2646
aS'cut of mutton'
p2647
aS'cut of pork'
p2648
aS'cut of veal'
p2649
aS'entrecote'
p2650
aS'forequarter'
p2651
aS'hindquarter'
p2652
aS'leg'
p2653
aS'loin'
p2654
aS'neck'
p2655
aS'rack'
p2656
aS'rib'
p2657
aS'roast'
p2658
aS'joint'
p2659
aS'saddle'
p2660
aS'shank'
p2661
aS'shin'
p2662
aS'shin bone'
p2663
aS'shoulder'
p2664
aS'side'
p2665
aS'side of meat'
p2666
aS'sirloin'
p2667
aS'steak'
p2668
aS'tenderloin'
p2669
aS'undercut'
p2670
aS'buffalo'
p2671
aS'rabbit'
p2672
aS'hare'
p2673
aS'venison'
p2674
aS'beef jerky'
p2675
aS'biltong'
p2676
aS'cochon de lait'
p2677
aS'suckling pig'
p2678
aS"pigs' feet"
p2679
aS"pigs' knuckles"
p2680
aS'salt pork'
p2681
aS'gobbet'
p2682
aS'blood sausage'
p2683
aS'blood pudding'
p2684
aS'black pudding'
p2685
aS'bologna'
p2686
aS'bologna sausage'
p2687
aS'chipolata'
p2688
aS'chorizo'
p2689
aS'frank'
p2690
aS'frankfurter'
p2691
aS'hotdog'
p2692
aS'hot dog'
p2693
aS'dog'
p2694
aS'wiener'
p2695
aS'wienerwurst'
p2696
aS'weenie'
p2697
aS'knackwurst'
p2698
aS'knockwurst'
p2699
aS'liver pudding'
p2700
aS'liver sausage'
p2701
aS'liverwurst'
p2702
aS'pepperoni'
p2703
aS'pork sausage'
p2704
aS'salami'
p2705
aS'souse'
p2706
aS'brain'
p2707
aS'chitterlings'
p2708
aS'chitlins'
p2709
aS'chitlings'
p2710
aS'giblet'
p2711
aS'giblets'
p2712
aS'heart'
p2713
aS'liver'
p2714
aS'neck sweetbread'
p2715
aS'throat sweetbread'
p2716
aS'offal'
p2717
aS'stomach sweetbread'
p2718
aS'sweetbread'
p2719
aS'sweetbreads'
p2720
aS'tongue'
p2721
aS'tripe'
p2722
aS"calves' feet"
p2723
aS'gnocchi'
p2724
aS'matzo ball'
p2725
aS'matzoh ball'
p2726
aS'matzah ball'
p2727
aS'won ton'
p2728
aS'wonton'
p2729
aS'fettuccine alfredo'
p2730
aS'egg noodle'
p2731
aS'ackee'
p2732
aS'akee'
p2733
aS'anchovy pear'
p2734
aS'river pear'
p2735
aS'apple'
p2736
aS'apricot'
p2737
aS'avocado'
p2738
aS'alligator pear'
p2739
aS'avocado pear'
p2740
aS'aguacate'
p2741
aS'banana'
p2742
aS'barbados gooseberry'
p2743
aS'blade apple'
p2744
aS'berry'
p2745
aS'breadfruit'
p2746
aS'canistel'
p2747
aS'eggfruit'
p2748
aS'carambola'
p2749
aS'star fruit'
p2750
aS'carissa plum'
p2751
aS'natal plum'
p2752
aS'ceriman'
p2753
aS'monstera'
p2754
aS'cherry'
p2755
aS'citrus'
p2756
aS'citrus fruit'
p2757
aS'citrous fruit'
p2758
aS'cling'
p2759
aS'clingstone'
p2760
aS'cocoa plum'
p2761
aS'coco plum'
p2762
aS'icaco'
p2763
aS'custard apple'
p2764
aS'date'
p2765
aS'dried fruit'
p2766
aS'durian'
p2767
aS'elderberry'
p2768
aS'feijoa'
p2769
aS'pineapple guava'
p2770
aS'fig'
p2771
aS'freestone'
p2772
aS'garambulla'
p2773
aS'genip'
p2774
aS'spanish lime'
p2775
aS'genipap'
p2776
aS'genipap fruit'
p2777
aS'grape'
p2778
aS'guava'
p2779
aS'hog plum'
p2780
aS'wild plum'
p2781
aS'hog plum'
p2782
aS'yellow mombin'
p2783
aS'jaboticaba'
p2784
aS'jackfruit'
p2785
aS'jak'
p2786
aS'jack'
p2787
aS'jujube'
p2788
aS'chinese date'
p2789
aS'chinese jujube'
p2790
aS'kai apple'
p2791
aS'ketembilla'
p2792
aS'kitembilla'
p2793
aS'kitambilla'
p2794
aS'kiwi'
p2795
aS'kiwi fruit'
p2796
aS'chinese gooseberry'
p2797
aS'lanseh'
p2798
aS'lansa'
p2799
aS'lansat'
p2800
aS'lanset'
p2801
aS'litchi'
p2802
aS'litchi nut'
p2803
aS'litchee'
p2804
aS'lichi'
p2805
aS'leechee'
p2806
aS'lichee'
p2807
aS'lychee'
p2808
aS'longanberry'
p2809
aS"dragon's eye"
p2810
aS'loquat'
p2811
aS'japanese plum'
p2812
aS'mamey'
p2813
aS'mammee'
p2814
aS'mammee apple'
p2815
aS'mango'
p2816
aS'mangosteen'
p2817
aS'marang'
p2818
aS'medlar'
p2819
aS'medlar'
p2820
aS'melon'
p2821
aS'mombin'
p2822
aS'nectarine'
p2823
aS'papaw'
p2824
aS'pawpaw'
p2825
aS'papaya'
p2826
aS'passion fruit'
p2827
aS'peach'
p2828
aS'pear'
p2829
aS'pineapple'
p2830
aS'ananas'
p2831
aS'pitahaya'
p2832
aS'plum'
p2833
aS'plumcot'
p2834
aS'pomegranate'
p2835
aS'prickly pear'
p2836
aS'pulasan'
p2837
aS'pulassan'
p2838
aS'quandong'
p2839
aS'quandang'
p2840
aS'quantong'
p2841
aS'native peach'
p2842
aS'quince'
p2843
aS'rambutan'
p2844
aS'rambotan'
p2845
aS'rose apple'
p2846
aS'sapodilla'
p2847
aS'sapodilla plum'
p2848
aS'sapota'
p2849
aS'sapote'
p2850
aS'mammee'
p2851
aS'marmalade plum'
p2852
aS'sorb'
p2853
aS'sorb apple'
p2854
aS'sour gourd'
p2855
aS'monkey bread'
p2856
aS'sour gourd'
p2857
aS'tamarind'
p2858
aS'tamarindo'
p2859
aS'tangelo'
p2860
aS'ugli'
p2861
aS'ugli fruit'
p2862
aS'windfall'
p2863
aS'artichoke'
p2864
aS'globe artichoke'
p2865
aS'artichoke heart'
p2866
aS'asparagus'
p2867
aS'bamboo shoot'
p2868
aS'cardoon'
p2869
aS'celery'
p2870
aS'cruciferous vegetable'
p2871
aS'cucumber'
p2872
aS'cuke'
p2873
aS'fennel'
p2874
aS'florence fennel'
p2875
aS'finocchio'
p2876
aS'greens'
p2877
aS'green'
p2878
aS'leafy vegetable'
p2879
aS'gumbo'
p2880
aS'okra'
p2881
aS'julienne'
p2882
aS'julienne vegetable'
p2883
aS'leek'
p2884
aS'legume'
p2885
aS'mushroom'
p2886
aS'onion'
p2887
aS'pieplant'
p2888
aS'rhubarb'
p2889
aS'plantain'
p2890
aS'potherb'
p2891
aS'pumpkin'
p2892
aS'raw vegetable'
p2893
aS'rabbit food'
p2894
aS'root vegetable'
p2895
aS'solanaceous vegetable'
p2896
aS'squash'
p2897
aS'truffle'
p2898
aS'earthnut'
p2899
aS'bream'
p2900
aS'freshwater bream'
p2901
aS'brook trout'
p2902
aS'speckled trout'
p2903
aS'buffalofish'
p2904
aS'carp'
p2905
aS'catfish'
p2906
aS'mudcat'
p2907
aS'freshwater bass'
p2908
aS'bass'
p2909
aS'lake trout'
p2910
aS'perch'
p2911
aS'pike'
p2912
aS'sucker'
p2913
aS'sunfish'
p2914
aS'whitefish'
p2915
aS'river prawn'
p2916
aS'caviar'
p2917
aS'caviare'
p2918
aS'coral'
p2919
aS'shad roe'
p2920
aS'blowfish'
p2921
aS'sea squab'
p2922
aS'puffer'
p2923
aS'pufferfish'
p2924
aS'bluefish'
p2925
aS'bream'
p2926
aS'sea bream'
p2927
aS'butterfish'
p2928
aS'cod'
p2929
aS'codfish'
p2930
aS'croaker'
p2931
aS'cusk'
p2932
aS'dolphinfish'
p2933
aS'mahimahi'
p2934
aS'flatfish'
p2935
aS'grouper'
p2936
aS'herring'
p2937
aS'kingfish'
p2938
aS'lingcod'
p2939
aS'mackerel'
p2940
aS'monkfish'
p2941
aS'pollack'
p2942
aS'pollock'
p2943
aS'pompano'
p2944
aS'porgy'
p2945
aS'scup'
p2946
aS'red rockfish'
p2947
aS'rockfish'
p2948
aS'sailfish'
p2949
aS'sardine'
p2950
aS'pilchard'
p2951
aS'scup'
p2952
aS'sea bass'
p2953
aS'bass'
p2954
aS'snapper'
p2955
aS'swordfish'
p2956
aS'tuna'
p2957
aS'tuna fish'
p2958
aS'tunny'
p2959
aS'weakfish'
p2960
aS'whiting'
p2961
aS'whiting'
p2962
aS'clam'
p2963
aS'cockle'
p2964
aS'crab'
p2965
aS'crabmeat'
p2966
aS'crayfish'
p2967
aS'crawfish'
p2968
aS'crawdad'
p2969
aS'ecrevisse'
p2970
aS'huitre'
p2971
aS'oyster'
p2972
aS'limpet'
p2973
aS'lobster'
p2974
aS'mussel'
p2975
aS'scallop'
p2976
aS'scollop'
p2977
aS'escallop'
p2978
aS'spiny lobster'
p2979
aS'langouste'
p2980
aS'rock lobster'
p2981
aS'crayfish'
p2982
aS'grissino'
p2983
aS'bagel'
p2984
aS'beigel'
p2985
aS'brioche'
p2986
aS'clover-leaf roll'
p2987
aS'crescent roll'
p2988
aS'croissant'
p2989
aS'frankfurter bun'
p2990
aS'hotdog bun'
p2991
aS'hamburger bun'
p2992
aS'hamburger roll'
p2993
aS'hard roll'
p2994
aS'vienna roll'
p2995
aS'kaiser roll'
p2996
aS'onion roll'
p2997
aS'parker house roll'
p2998
aS'soft roll'
p2999
aS'sweet roll'
p3000
aS'coffee roll'
p3001
aS'tea bread'
p3002
aS'graham cracker'
p3003
aS'oyster cracker'
p3004
aS'pretzel'
p3005
aS'saltine'
p3006
aS'soda cracker'
p3007
aS'water biscuit'
p3008
aS'graham bread'
p3009
aS'bannock'
p3010
aS'chapatti'
p3011
aS'chapati'
p3012
aS'flatbrod'
p3013
aS'pita'
p3014
aS'pocket bread'
p3015
aS'french loaf'
p3016
aS'meat loaf'
p3017
aS'meatloaf'
p3018
aS'banana bread'
p3019
aS'biscuit'
p3020
aS'cornbread'
p3021
aS'date-nut bread'
p3022
aS'date bread'
p3023
aS'irish soda bread'
p3024
aS'muffin'
p3025
aS'gem'
p3026
aS'nut bread'
p3027
aS'oatcake'
p3028
aS'scone'
p3029
aS'skillet bread'
p3030
aS'fry bread'
p3031
aS'yorkshire pudding'
p3032
aS'black bread'
p3033
aS'pumpernickel'
p3034
aS'jewish rye bread'
p3035
aS'jewish rye'
p3036
aS'limpa'
p3037
aS'swedish rye bread'
p3038
aS'swedish rye'
p3039
aS'cinnamon toast'
p3040
aS'melba toast'
p3041
aS'orange toast'
p3042
aS'zwieback'
p3043
aS'rusk'
p3044
aS'brussels biscuit'
p3045
aS'twice-baked bread'
p3046
aS'french bread'
p3047
aS'italian bread'
p3048
aS'baba au rhum'
p3049
aS'rum baba'
p3050
aS"devil's food"
p3051
aS"devil's food cake"
p3052
aS'babka'
p3053
aS'coffee ring'
p3054
aS'almond cookie'
p3055
aS'almond crescent'
p3056
aS'anise cookie'
p3057
aS'brownie'
p3058
aS'butter cookie'
p3059
aS'chocolate chip cookie'
p3060
aS'toll house cookie'
p3061
aS'dog biscuit'
p3062
aS'fortune cookie'
p3063
aS'fruit bar'
p3064
aS'gingerbread man'
p3065
aS'gingersnap'
p3066
aS'ginger snap'
p3067
aS'snap'
p3068
aS'ginger nut'
p3069
aS'granola bar'
p3070
aS'kiss'
p3071
aS'ladyfinger'
p3072
aS'macaroon'
p3073
aS'molasses cookie'
p3074
aS'oatmeal cookie'
p3075
aS'oreo'
p3076
aS'oreo cookie'
p3077
aS'raisin-nut cookie'
p3078
aS'raisin cookie'
p3079
aS'refrigerator cookie'
p3080
aS'spice cookie'
p3081
aS'sugar cookie'
p3082
aS'teacake'
p3083
aS'tea biscuit'
p3084
aS'wafer'
p3085
aS'cruller'
p3086
aS'twister'
p3087
aS'doughboy'
p3088
aS'doughnut'
p3089
aS'donut'
p3090
aS'sinker'
p3091
aS'french fritter'
p3092
aS'beignet'
p3093
aS'fritter'
p3094
aS'christmas cake'
p3095
aS'simnel'
p3096
aS'blini'
p3097
aS'bliny'
p3098
aS'blintz'
p3099
aS'blintze'
p3100
aS'buckwheat cake'
p3101
aS'buttermilk pancake'
p3102
aS'crape'
p3103
aS'crepe'
p3104
aS'french pancake'
p3105
aS'pfannkuchen'
p3106
aS'german pancake'
p3107
aS'potato pancake'
p3108
aS'latke'
p3109
aS'tortilla'
p3110
aS'angel cake'
p3111
aS'angel food cake'
p3112
aS'jellyroll'
p3113
aS'swiss roll'
p3114
aS'madeira cake'
p3115
aS'madeira sponge'
p3116
aS'twinkie'
p3117
aS'sally lunn'
p3118
aS'belgian waffle'
p3119
aS'napoleon'
p3120
aS'apple pie'
p3121
aS'blueberry pie'
p3122
aS'deep-dish pie'
p3123
aS'cobbler'
p3124
aS'lemon meringue pie'
p3125
aS'meat pie'
p3126
aS'mince pie'
p3127
aS'patty'
p3128
aS'pecan pie'
p3129
aS'pumpkin pie'
p3130
aS'rhubarb pie'
p3131
aS'shoofly pie'
p3132
aS'squash pie'
p3133
aS'tart'
p3134
aS'cream puff'
p3135
aS'chou'
p3136
aS'apple tart'
p3137
aS'bran flake'
p3138
aS'corn flake'
p3139
aS'granola'
p3140
aS'puffed rice'
p3141
aS'puffed wheat'
p3142
aS'raisin bran'
p3143
aS'wheatflake'
p3144
aS'frumenty'
p3145
aS'grits'
p3146
aS'hominy grits'
p3147
aS'kasha'
p3148
aS'mush'
p3149
aS'cornmeal mush'
p3150
aS'hershey bar'
p3151
aS'lox'
p3152
aS'chicken'
p3153
aS'poulet'
p3154
aS'volaille'
p3155
aS'duck'
p3156
aS'goose'
p3157
aS'guinea hen'
p3158
aS'rock cornish hen'
p3159
aS'squab'
p3160
aS'dove'
p3161
aS'turkey'
p3162
aS'grouse'
p3163
aS'partridge'
p3164
aS'pheasant'
p3165
aS'quail'
p3166
aS'lamb chop'
p3167
aS'lamb-chop'
p3168
aS'lambchop'
p3169
aS'mutton chop'
p3170
aS'porkchop'
p3171
aS'aitchbone'
p3172
aS'beef loin'
p3173
aS'beef neck'
p3174
aS'blade'
p3175
aS'chuck'
p3176
aS'chuck short ribs'
p3177
aS'flank'
p3178
aS'flat bone'
p3179
aS'pin bone'
p3180
aS'plate'
p3181
aS'round'
p3182
aS'rump'
p3183
aS'short ribs'
p3184
aS'sirloin tip'
p3185
aS'wedge bone'
p3186
aS'breast of lamb'
p3187
aS"poitrine d'agneau"
p3188
aS'loin of lamb'
p3189
aS'saddle of lamb'
p3190
aS'scrag'
p3191
aS'bacon'
p3192
aS'ham'
p3193
aS'jambon'
p3194
aS'gammon'
p3195
aS'picnic ham'
p3196
aS'picnic shoulder'
p3197
aS'pork loin'
p3198
aS'spareribs'
p3199
aS'scrag'
p3200
aS'scrag end'
p3201
aS'ham hock'
p3202
aS'leg of lamb'
p3203
aS'gigot'
p3204
aS'rack of lamb'
p3205
aS'crown roast'
p3206
aS'sparerib'
p3207
aS'beef roast'
p3208
aS'roast beef'
p3209
aS'blade roast'
p3210
aS'lamb roast'
p3211
aS'roast lamb'
p3212
aS'pork roast'
p3213
aS'roast pork'
p3214
aS'pot roast'
p3215
aS'rib roast'
p3216
aS'standing rib roast'
p3217
aS'rump roast'
p3218
aS'top round'
p3219
aS'veal roast'
p3220
aS'roast veal'
p3221
aS'foreshank'
p3222
aS'hindshank'
p3223
aS'side of beef'
p3224
aS'side of pork'
p3225
aS'beefsteak'
p3226
aS'fish steak'
p3227
aS'beef tenderloin'
p3228
aS'pork tenderloin'
p3229
aS'fatback'
p3230
aS'sowbelly'
p3231
aS'polony'
p3232
aS'vienna sausage'
p3233
aS'banger'
p3234
aS'bratwurst'
p3235
aS'brat'
p3236
aS'linguica'
p3237
aS'saveloy'
p3238
aS"calf's brain"
p3239
aS"calves' liver"
p3240
aS"calf's liver"
p3241
aS'chicken liver'
p3242
aS'goose liver'
p3243
aS'tomalley'
p3244
aS'beef tongue'
p3245
aS"calf's tongue"
p3246
aS'honeycomb tripe'
p3247
aS'cooking apple'
p3248
aS'crab apple'
p3249
aS'crabapple'
p3250
aS'eating apple'
p3251
aS'dessert apple'
p3252
aS'acerola'
p3253
aS'barbados cherry'
p3254
aS'surinam cherry'
p3255
aS'west indian cherry'
p3256
aS'bilberry'
p3257
aS'whortleberry'
p3258
aS'european blueberry'
p3259
aS'blackberry'
p3260
aS'blueberry'
p3261
aS'boysenberry'
p3262
aS'cranberry'
p3263
aS'currant'
p3264
aS'dewberry'
p3265
aS'huckleberry'
p3266
aS'lingonberry'
p3267
aS'mountain cranberry'
p3268
aS'cowberry'
p3269
aS'lowbush cranberry'
p3270
aS'loganberry'
p3271
aS'mulberry'
p3272
aS'persimmon'
p3273
aS'raspberry'
p3274
aS'saskatoon'
p3275
aS'serviceberry'
p3276
aS'shadberry'
p3277
aS'juneberry'
p3278
aS'strawberry'
p3279
aS'sugarberry'
p3280
aS'hackberry'
p3281
aS'wintergreen'
p3282
aS'boxberry'
p3283
aS'checkerberry'
p3284
aS'teaberry'
p3285
aS'spiceberry'
p3286
aS'capulin'
p3287
aS'mexican black cherry'
p3288
aS'sour cherry'
p3289
aS'sweet cherry'
p3290
aS'black cherry'
p3291
aS'citrange'
p3292
aS'citron'
p3293
aS'grapefruit'
p3294
aS'kumquat'
p3295
aS'lemon'
p3296
aS'lime'
p3297
aS'mandarin'
p3298
aS'mandarin orange'
p3299
aS'orange'
p3300
aS'pomelo'
p3301
aS'shaddock'
p3302
aS"bullock's heart"
p3303
aS'jamaica apple'
p3304
aS'cherimoya'
p3305
aS'cherimolla'
p3306
aS'ilama'
p3307
aS'pond apple'
p3308
aS'soursop'
p3309
aS'guanabana'
p3310
aS'sweetsop'
p3311
aS'annon'
p3312
aS'sugar apple'
p3313
aS'dried apricot'
p3314
aS'prune'
p3315
aS'raisin'
p3316
aS'muscadine'
p3317
aS'bullace grape'
p3318
aS'slipskin grape'
p3319
aS'vinifera grape'
p3320
aS'melon ball'
p3321
aS'muskmelon'
p3322
aS'sweet melon'
p3323
aS'watermelon'
p3324
aS'bell apple'
p3325
aS'sweet cup'
p3326
aS'water lemon'
p3327
aS'yellow granadilla'
p3328
aS'granadilla'
p3329
aS'sweet calabash'
p3330
aS'anjou'
p3331
aS'bartlett'
p3332
aS'bartlett pear'
p3333
aS'bosc'
p3334
aS'seckel'
p3335
aS'seckel pear'
p3336
aS'beach plum'
p3337
aS'damson'
p3338
aS'damson plum'
p3339
aS'greengage'
p3340
aS'greengage plum'
p3341
aS'sloe'
p3342
aS'victoria plum'
p3343
aS'pascal celery'
p3344
aS'paschal celery'
p3345
aS'broccoli'
p3346
aS'broccoli rabe'
p3347
aS'broccoli raab'
p3348
aS'brussels sprouts'
p3349
aS'cabbage'
p3350
aS'chou'
p3351
aS'cauliflower'
p3352
aS'kohlrabi'
p3353
aS'turnip cabbage'
p3354
aS'mustard'
p3355
aS'mustard greens'
p3356
aS'leaf mustard'
p3357
aS'indian mustard'
p3358
aS'radish'
p3359
aS'turnip'
p3360
aS'gherkin'
p3361
aS'beet green'
p3362
aS'chard'
p3363
aS'swiss chard'
p3364
aS'spinach beet'
p3365
aS'leaf beet'
p3366
aS'chop-suey greens'
p3367
aS'dandelion green'
p3368
aS'french sorrel'
p3369
aS"lamb's-quarter"
p3370
aS'pigweed'
p3371
aS'wild spinach'
p3372
aS'salad green'
p3373
aS'salad greens'
p3374
aS'sorrel'
p3375
aS'common sorrel'
p3376
aS'spinach'
p3377
aS'sprout'
p3378
aS'turnip greens'
p3379
aS'wild spinach'
p3380
aS'bean'
p3381
aS'edible bean'
p3382
aS'black-eyed pea'
p3383
aS'cowpea'
p3384
aS'chickpea'
p3385
aS'garbanzo'
p3386
aS'lentil'
p3387
aS'pea'
p3388
aS'pulse'
p3389
aS'bermuda onion'
p3390
aS'green onion'
p3391
aS'spring onion'
p3392
aS'scallion'
p3393
aS'shallot'
p3394
aS'spanish onion'
p3395
aS'vidalia onion'
p3396
aS'beet'
p3397
aS'beetroot'
p3398
aS'carrot'
p3399
aS'celeriac'
p3400
aS'celery root'
p3401
aS'jerusalem artichoke'
p3402
aS'sunchoke'
p3403
aS'parsnip'
p3404
aS'potato'
p3405
aS'white potato'
p3406
aS'irish potato'
p3407
aS'murphy'
p3408
aS'spud'
p3409
aS'tater'
p3410
aS'salsify'
p3411
aS'sweet potato'
p3412
aS'taro'
p3413
aS'taro root'
p3414
aS'cocoyam'
p3415
aS'dasheen'
p3416
aS'edda'
p3417
aS'yam'
p3418
aS'eggplant'
p3419
aS'aubergine'
p3420
aS'mad apple'
p3421
aS'pepper'
p3422
aS'tomatillo'
p3423
aS'husk tomato'
p3424
aS'mexican husk tomato'
p3425
aS'tomato'
p3426
aS'summer squash'
p3427
aS'winter squash'
p3428
aS'largemouth bass'
p3429
aS'smallmouth bass'
p3430
aS'muskellunge'
p3431
aS'pickerel'
p3432
aS'crappie'
p3433
aS'lake herring'
p3434
aS'cisco'
p3435
aS'beluga caviar'
p3436
aS'fugu'
p3437
aS'salt cod'
p3438
aS'flounder'
p3439
aS'halibut'
p3440
aS'sole'
p3441
aS'fillet of sole'
p3442
aS'bloater'
p3443
aS'kipper'
p3444
aS'kippered herring'
p3445
aS'pickled herring'
p3446
aS'red herring'
p3447
aS'smoked herring'
p3448
aS'sprat'
p3449
aS'brisling'
p3450
aS'whitebait'
p3451
aS'smoked mackerel'
p3452
aS'spanish mackerel'
p3453
aS'redfish'
p3454
aS'rosefish'
p3455
aS'ocean perch'
p3456
aS'striped bass'
p3457
aS'striper'
p3458
aS'red snapper'
p3459
aS'albacore'
p3460
aS'bluefin'
p3461
aS'bluefin tuna'
p3462
aS'bonito'
p3463
aS'quahaug'
p3464
aS'quahog'
p3465
aS'hard-shell clam'
p3466
aS'round clam'
p3467
aS'soft-shell clam'
p3468
aS'steamer'
p3469
aS'steamer clam'
p3470
aS'long-neck clam'
p3471
aS'alaska king crab'
p3472
aS'alaskan king crab'
p3473
aS'king crab'
p3474
aS'alaska crab'
p3475
aS'blue crab'
p3476
aS'crab legs'
p3477
aS'dungeness crab'
p3478
aS'japanese crab'
p3479
aS'soft-shell crab'
p3480
aS'soft-shelled crab'
p3481
aS'stone crab'
p3482
aS'bluepoint'
p3483
aS'blue point'
p3484
aS'oysters rockefeller'
p3485
aS'american lobster'
p3486
aS'northern lobster'
p3487
aS'maine lobster'
p3488
aS'european lobster'
p3489
aS'lobster tail'
p3490
aS'norwegian lobster'
p3491
aS'langoustine'
p3492
aS'scampo'
p3493
aS'bay scallop'
p3494
aS'sea scallop'
p3495
aS'onion bagel'
p3496
aS'bialy'
p3497
aS'bialystoker'
p3498
aS'bear claw'
p3499
aS'bear paw'
p3500
aS'cinnamon roll'
p3501
aS'cinnamon bun'
p3502
aS'cinnamon snail'
p3503
aS'cross bun'
p3504
aS'hot cross bun'
p3505
aS'danish'
p3506
aS'danish pastry'
p3507
aS'honey bun'
p3508
aS'sticky bun'
p3509
aS'caramel bun'
p3510
aS'schnecken'
p3511
aS'pinwheel roll'
p3512
aS'soft pretzel'
p3513
aS'fish loaf'
p3514
aS'baking-powder biscuit'
p3515
aS'buttermilk biscuit'
p3516
aS'soda biscuit'
p3517
aS'drop biscuit'
p3518
aS'hardtack'
p3519
aS'pilot biscuit'
p3520
aS'pilot bread'
p3521
aS'sea biscuit'
p3522
aS'ship biscuit'
p3523
aS'rolled biscuit'
p3524
aS'ashcake'
p3525
aS'ash cake'
p3526
aS'corn tash'
p3527
aS'corn cake'
p3528
aS'corn dab'
p3529
aS'corn dodger'
p3530
aS'dodger'
p3531
aS'cornpone'
p3532
aS'pone'
p3533
aS'hush puppy'
p3534
aS'hushpuppy'
p3535
aS'johnnycake'
p3536
aS'johnny cake'
p3537
aS'journey cake'
p3538
aS'skillet corn bread'
p3539
aS'spoon bread'
p3540
aS'batter bread'
p3541
aS'bran muffin'
p3542
aS'corn muffin'
p3543
aS'popover'
p3544
aS'drop scone'
p3545
aS'griddlecake'
p3546
aS'scotch pancake'
p3547
aS'baguet'
p3548
aS'baguette'
p3549
aS'shortbread'
p3550
aS'shortbread cookie'
p3551
aS'apricot bar'
p3552
aS'date bar'
p3553
aS'brandysnap'
p3554
aS'coconut macaroon'
p3555
aS'ratafia'
p3556
aS'ratafia biscuit'
p3557
aS'raised doughnut'
p3558
aS'apple fritter'
p3559
aS'corn fritter'
p3560
aS'crepe suzette'
p3561
aS'tostada'
p3562
aS'kidney pie'
p3563
aS'pasty'
p3564
aS"shepherd's pie"
p3565
aS'steak and kidney pie'
p3566
aS'tourtiere'
p3567
aS'apple tart'
p3568
aS'lobster tart'
p3569
aS'quiche'
p3570
aS'tartlet'
p3571
aS'eclair'
p3572
aS'atole'
p3573
aS'hasty pudding'
p3574
aS'polenta'
p3575
aS'nova scotia lox'
p3576
aS'nova lox'
p3577
aS'nova scotia salmon'
p3578
aS'nova salmon'
p3579
aS'nova style salmon'
p3580
aS'scandinavian lox'
p3581
aS'broiler'
p3582
aS'capon'
p3583
aS'fryer'
p3584
aS'frier'
p3585
aS'pullet'
p3586
aS'hen'
p3587
aS'roaster'
p3588
aS'spatchcock'
p3589
aS'duckling'
p3590
aS'bacon strip'
p3591
aS'canadian bacon'
p3592
aS'flitch'
p3593
aS'side of bacon'
p3594
aS'gammon'
p3595
aS'prosciutto'
p3596
aS'virginia ham'
p3597
aS'bottom round'
p3598
aS'breast of veal'
p3599
aS'fricandeau'
p3600
aS'pork belly'
p3601
aS'chopped steak'
p3602
aS'chop steak'
p3603
aS'chopsteak'
p3604
aS'hamburger steak'
p3605
aS'beef patty'
p3606
aS'delmonico steak'
p3607
aS'club steak'
p3608
aS'fillet'
p3609
aS'filet'
p3610
aS'flank steak'
p3611
aS'minute steak'
p3612
aS'porterhouse'
p3613
aS'porterhouse steak'
p3614
aS'round steak'
p3615
aS'rump steak'
p3616
aS'sirloin steak'
p3617
aS'strip steak'
p3618
aS'new york strip'
p3619
aS't-bone steak'
p3620
aS'flitch'
p3621
aS"bramley's seedling"
p3622
aS"lane's prince albert"
p3623
aS'newtown wonder'
p3624
aS'rome beauty'
p3625
aS'baldwin'
p3626
aS'cortland'
p3627
aS'delicious'
p3628
aS'empire'
p3629
aS'granny smith'
p3630
aS"grimes' golden"
p3631
aS'jonathan'
p3632
aS'mcintosh'
p3633
aS'northern spy'
p3634
aS'pearmain'
p3635
aS'pippin'
p3636
aS'prima'
p3637
aS'stayman'
p3638
aS'stayman winesap'
p3639
aS'winesap'
p3640
aS'black currant'
p3641
aS'gooseberry'
p3642
aS'red currant'
p3643
aS'amarelle'
p3644
aS'morello'
p3645
aS'bing cherry'
p3646
aS'heart cherry'
p3647
aS'oxheart'
p3648
aS'oxheart cherry'
p3649
aS'key lime'
p3650
aS'clementine'
p3651
aS'satsuma'
p3652
aS'tangerine'
p3653
aS'bitter orange'
p3654
aS'seville orange'
p3655
aS'sour orange'
p3656
aS'sweet orange'
p3657
aS'temple orange'
p3658
aS'currant'
p3659
aS'seeded raisin'
p3660
aS'seedless raisin'
p3661
aS'sultana'
p3662
aS'scuppernong'
p3663
aS'fox grape'
p3664
aS'emperor'
p3665
aS'muscat'
p3666
aS'muscatel'
p3667
aS'muscat grape'
p3668
aS'ribier'
p3669
aS'sultana'
p3670
aS'thompson seedless'
p3671
aS'tokay'
p3672
aS'cantaloup'
p3673
aS'cantaloupe'
p3674
aS'net melon'
p3675
aS'netted melon'
p3676
aS'nutmeg melon'
p3677
aS'winter melon'
p3678
aS'bok choy'
p3679
aS'bok choi'
p3680
aS'chinese cabbage'
p3681
aS'celery cabbage'
p3682
aS'chinese celery'
p3683
aS'head cabbage'
p3684
aS'kale'
p3685
aS'kail'
p3686
aS'cole'
p3687
aS'rutabaga'
p3688
aS'swede'
p3689
aS'swedish turnip'
p3690
aS'yellow turnip'
p3691
aS'white turnip'
p3692
aS'celtuce'
p3693
aS'chicory'
p3694
aS'curly endive'
p3695
aS'chicory escarole'
p3696
aS'endive'
p3697
aS'escarole'
p3698
aS'cress'
p3699
aS'lettuce'
p3700
aS'salad burnet'
p3701
aS'alfalfa sprout'
p3702
aS'bean sprout'
p3703
aS'common bean'
p3704
aS'goa bean'
p3705
aS'soy'
p3706
aS'soybean'
p3707
aS'soya'
p3708
aS'soya bean'
p3709
aS'cajan pea'
p3710
aS'pigeon pea'
p3711
aS'dahl'
p3712
aS'field pea'
p3713
aS'green pea'
p3714
aS'garden pea'
p3715
aS'marrowfat pea'
p3716
aS'purple onion'
p3717
aS'red onion'
p3718
aS'mangel-wurzel'
p3719
aS'sugar beet'
p3720
aS'baked potato'
p3721
aS'french fries'
p3722
aS'french-fried potatoes'
p3723
aS'fries'
p3724
aS'chips'
p3725
aS'home fries'
p3726
aS'home-fried potatoes'
p3727
aS'mashed potato'
p3728
aS'uruguay potato'
p3729
aS'oyster plant'
p3730
aS'vegetable oyster'
p3731
aS'scorzonera'
p3732
aS'black salsify'
p3733
aS'yam'
p3734
aS'hot pepper'
p3735
aS'sweet pepper'
p3736
aS'beefsteak tomato'
p3737
aS'cherry tomato'
p3738
aS'cocozelle'
p3739
aS'marrow'
p3740
aS'vegetable marrow'
p3741
aS'pattypan squash'
p3742
aS'spaghetti squash'
p3743
aS'yellow squash'
p3744
aS'zucchini'
p3745
aS'courgette'
p3746
aS'acorn squash'
p3747
aS'butternut squash'
p3748
aS'cushaw'
p3749
aS'hubbard squash'
p3750
aS'turban squash'
p3751
aS'winter crookneck squash'
p3752
aS'lemon sole'
p3753
aS'winter flounder'
p3754
aS'plaice'
p3755
aS'sand dab'
p3756
aS'turbot'
p3757
aS'yellowtail flounder'
p3758
aS'grey sole'
p3759
aS'gray sole'
p3760
aS'lemon sole'
p3761
aS'english sole'
p3762
aS'rollmops'
p3763
aS'cherrystone'
p3764
aS'cherrystone clam'
p3765
aS'littleneck'
p3766
aS'littleneck clam'
p3767
aS'salmon loaf'
p3768
aS'shortcake'
p3769
aS'hoecake'
p3770
aS'shawnee cake'
p3771
aS'berlin doughnut'
p3772
aS'bismark'
p3773
aS'jelly doughnut'
p3774
aS'fastnacht'
p3775
aS'cornish pasty'
p3776
aS'pork pie'
p3777
aS'quiche lorraine'
p3778
aS'chocolate eclair'
p3779
aS'oven stuffer'
p3780
aS'oven stuffer roaster'
p3781
aS'chateaubriand'
p3782
aS'filet mignon'
p3783
aS'tournedos'
p3784
aS'golden delicious'
p3785
aS'yellow delicious'
p3786
aS'red delicious'
p3787
aS'macoun'
p3788
aS"cox's orange pippin"
p3789
aS'blackheart'
p3790
aS'blackheart cherry'
p3791
aS'jaffa orange'
p3792
aS'navel orange'
p3793
aS'valencia orange'
p3794
aS'catawba'
p3795
aS'concord grape'
p3796
aS'flame tokay'
p3797
aS'casaba'
p3798
aS'casaba melon'
p3799
aS'honeydew'
p3800
aS'honeydew melon'
p3801
aS'persian melon'
p3802
aS'red cabbage'
p3803
aS'savoy cabbage'
p3804
aS'savoy'
p3805
aS'collards'
p3806
aS'collard greens'
p3807
aS'radicchio'
p3808
aS'belgian endive'
p3809
aS'french endive'
p3810
aS'witloof'
p3811
aS'garden cress'
p3812
aS'watercress'
p3813
aS'winter cress'
p3814
aS'butterhead lettuce'
p3815
aS'cos'
p3816
aS'cos lettuce'
p3817
aS'romaine'
p3818
aS'romaine lettuce'
p3819
aS'crisphead lettuce'
p3820
aS'iceberg lettuce'
p3821
aS'iceberg'
p3822
aS'leaf lettuce'
p3823
aS'loose-leaf lettuce'
p3824
aS'black bean'
p3825
aS'turtle bean'
p3826
aS'flageolet'
p3827
aS'haricot'
p3828
aS'fresh bean'
p3829
aS'frijole'
p3830
aS'kidney bean'
p3831
aS'navy bean'
p3832
aS'pea bean'
p3833
aS'white bean'
p3834
aS'pinto bean'
p3835
aS'field soybean'
p3836
aS'snow pea'
p3837
aS'sugar pea'
p3838
aS'split-pea'
p3839
aS'sugar snap pea'
p3840
aS'jacket potato'
p3841
aS'chili'
p3842
aS'chili pepper'
p3843
aS'chilli'
p3844
aS'chilly'
p3845
aS'chile'
p3846
aS'tabasco'
p3847
aS'red pepper'
p3848
aS'bell pepper'
p3849
aS'globe pepper'
p3850
aS'green pepper'
p3851
aS'pimento'
p3852
aS'pimiento'
p3853
aS'plum tomato'
p3854
aS'crookneck'
p3855
aS'crookneck squash'
p3856
aS'summer crookneck'
p3857
aS'buttercup squash'
p3858
aS'bibb lettuce'
p3859
aS'boston lettuce'
p3860
aS'buttercrunch'
p3861
aS'green bean'
p3862
aS'shell bean'
p3863
aS'wax bean'
p3864
aS'yellow bean'
p3865
aS'cayenne'
p3866
aS'cayenne pepper'
p3867
aS'jalapeno'
p3868
aS'jalapeno pepper'
p3869
aS'haricot vert'
p3870
aS'haricots verts'
p3871
aS'french bean'
p3872
aS'kentucky wonder'
p3873
aS'kentucky wonder bean'
p3874
aS'scarlet runner'
p3875
aS'scarlet runner bean'
p3876
aS'runner bean'
p3877
aS'english runner bean'
p3878
aS'snap bean'
p3879
aS'snap'
p3880
aS'string bean'
p3881
aS'fava bean'
p3882
aS'broad bean'
p3883
aS'green soybean'
p3884
aS'lima bean'
p3885
aS'sieva bean'
p3886
aS'butter bean'
p3887
aS'butterbean'
p3888
aS'civet bean'
p3889
aS'chipotle'
p3890
aS'fordhooks'
p3891
aS'almond extract'
p3892
aS'anchovy paste'
p3893
aS'angelica'
p3894
aS'anise'
p3895
aS'aniseed'
p3896
aS'anise seed'
p3897
aS'bouillon cube'
p3898
aS'caraway seed'
p3899
aS'cardamom'
p3900
aS'cardamon'
p3901
aS'cardamum'
p3902
aS'cassareep'
p3903
aS'cayenne'
p3904
aS'cayenne pepper'
p3905
aS'red pepper'
p3906
aS'celery salt'
p3907
aS'celery seed'
p3908
aS'chili powder'
p3909
aS'cola extract'
p3910
aS'condiment'
p3911
aS'coriander'
p3912
aS'coriander seed'
p3913
aS'curry powder'
p3914
aS'dill seed'
p3915
aS'fennel seed'
p3916
aS'fenugreek'
p3917
aS'fenugreek seed'
p3918
aS'garlic'
p3919
aS'ail'
p3920
aS'garlic chive'
p3921
aS'garlic salt'
p3922
aS'ginger'
p3923
aS'gingerroot'
p3924
aS'herb'
p3925
aS'juniper berries'
p3926
aS'lemon extract'
p3927
aS'lemon oil'
p3928
aS'mocha'
p3929
aS'monosodium glutamate'
p3930
aS'msg'
p3931
aS'mustard seed'
p3932
aS'nasturtium'
p3933
aS'onion salt'
p3934
aS'paprika'
p3935
aS'pepper'
p3936
aS'peppercorn'
p3937
aS'peppermint oil'
p3938
aS'poppy seed'
p3939
aS'saffron'
p3940
aS'salt'
p3941
aS'table salt'
p3942
aS'common salt'
p3943
aS'sassafras'
p3944
aS'seasoned salt'
p3945
aS'sesame seed'
p3946
aS'benniseed'
p3947
aS'sour salt'
p3948
aS'spearmint oil'
p3949
aS'spice'
p3950
aS'sweetening'
p3951
aS'sweetener'
p3952
aS'turmeric'
p3953
aS'vanilla'
p3954
aS'vanilla extract'
p3955
aS'vanilla bean'
p3956
aS'wintergreen oil'
p3957
aS'oil of wintergreen'
p3958
aS'catsup'
p3959
aS'ketchup'
p3960
aS'cetchup'
p3961
aS'tomato ketchup'
p3962
aS'chili sauce'
p3963
aS'chutney'
p3964
aS'indian relish'
p3965
aS'cranberry sauce'
p3966
aS'dip'
p3967
aS'duck sauce'
p3968
aS'hoisin sauce'
p3969
aS'horseradish'
p3970
aS'marinade'
p3971
aS'mint sauce'
p3972
aS'mustard'
p3973
aS'table mustard'
p3974
aS'relish'
p3975
aS'salsa'
p3976
aS'sauce'
p3977
aS'soy sauce'
p3978
aS'soy'
p3979
aS'spread'
p3980
aS'paste'
p3981
aS'steak sauce'
p3982
aS'taco sauce'
p3983
aS'vinegar'
p3984
aS'acetum'
p3985
aS'wasabi'
p3986
aS'clove'
p3987
aS'garlic clove'
p3988
aS'angelica'
p3989
aS'basil'
p3990
aS'sweet basil'
p3991
aS'bay leaf'
p3992
aS'borage'
p3993
aS'caraway'
p3994
aS'chervil'
p3995
aS'chives'
p3996
aS'comfrey'
p3997
aS'healing herb'
p3998
aS'coriander'
p3999
aS'chinese parsley'
p4000
aS'cilantro'
p4001
aS'costmary'
p4002
aS'dill'
p4003
aS'dill weed'
p4004
aS'fennel'
p4005
aS'common fennel'
p4006
aS'fines herbes'
p4007
aS'hyssop'
p4008
aS'lemon balm'
p4009
aS'lovage'
p4010
aS'marjoram'
p4011
aS'oregano'
p4012
aS'mint'
p4013
aS'parsley'
p4014
aS'rosemary'
p4015
aS'rue'
p4016
aS'sage'
p4017
aS'savory'
p4018
aS'savoury'
p4019
aS'sweet cicely'
p4020
aS'sweet woodruff'
p4021
aS'waldmeister'
p4022
aS'tarragon'
p4023
aS'estragon'
p4024
aS'tea'
p4025
aS'tea leaf'
p4026
aS'thyme'
p4027
aS'spanish paprika'
p4028
aS'black pepper'
p4029
aS'white pepper'
p4030
aS'allspice'
p4031
aS'chinese anise'
p4032
aS'star anise'
p4033
aS'star aniseed'
p4034
aS'cinnamon'
p4035
aS'clove'
p4036
aS'fennel'
p4037
aS'five spice powder'
p4038
aS'ginger'
p4039
aS'powdered ginger'
p4040
aS'mace'
p4041
aS'nutmeg'
p4042
aS'aspartame'
p4043
aS'honey'
p4044
aS'saccharin'
p4045
aS'sugar'
p4046
aS'refined sugar'
p4047
aS'syrup'
p4048
aS'sirup'
p4049
aS'bean dip'
p4050
aS'cheese dip'
p4051
aS'clam dip'
p4052
aS'guacamole'
p4053
aS'chinese mustard'
p4054
aS'powdered mustard'
p4055
aS'dry mustard'
p4056
aS'chowchow'
p4057
aS'olive'
p4058
aS'piccalilli'
p4059
aS'pickle'
p4060
aS'pickle relish'
p4061
aS'aioli'
p4062
aS'aioli sauce'
p4063
aS'garlic sauce'
p4064
aS'allemande'
p4065
aS'allemande sauce'
p4066
aS'anchovy sauce'
p4067
aS'apricot sauce'
p4068
aS'barbecue sauce'
p4069
aS'bearnaise'
p4070
aS'bercy'
p4071
aS'bercy butter'
p4072
aS'bordelaise'
p4073
aS'bourguignon'
p4074
aS'bourguignon sauce'
p4075
aS'burgundy sauce'
p4076
aS'bread sauce'
p4077
aS'brown sauce'
p4078
aS'sauce espagnole'
p4079
aS'caper sauce'
p4080
aS'chinese brown sauce'
p4081
aS'brown sauce'
p4082
aS'chocolate sauce'
p4083
aS'chocolate syrup'
p4084
aS'cocktail sauce'
p4085
aS'seafood sauce'
p4086
aS'colbert'
p4087
aS'colbert butter'
p4088
aS'curry sauce'
p4089
aS'demiglace'
p4090
aS'demi-glaze'
p4091
aS'dressing'
p4092
aS'salad dressing'
p4093
aS'espagnole'
p4094
aS'sauce espagnole'
p4095
aS'gravy'
p4096
aS'hard sauce'
p4097
aS'hollandaise'
p4098
aS'horseradish sauce'
p4099
aS'sauce albert'
p4100
aS'hot sauce'
p4101
aS'hungarian sauce'
p4102
aS'paprika sauce'
p4103
aS"hunter's sauce"
p4104
aS'sauce chausseur'
p4105
aS'lyonnaise sauce'
p4106
aS'brown onion sauce'
p4107
aS'marchand de vin'
p4108
aS'mushroom wine sauce'
p4109
aS'mole'
p4110
aS'mushroom sauce'
p4111
aS'mustard sauce'
p4112
aS'nantua'
p4113
aS'shrimp sauce'
p4114
aS'newburg sauce'
p4115
aS'peach sauce'
p4116
aS'pepper sauce'
p4117
aS'poivrade'
p4118
aS'pesto'
p4119
aS'plum sauce'
p4120
aS'poulette'
p4121
aS'ravigote'
p4122
aS'ravigotte'
p4123
aS'remoulade sauce'
p4124
aS'smitane'
p4125
aS'snail butter'
p4126
aS'soubise'
p4127
aS'white onion sauce'
p4128
aS'spaghetti sauce'
p4129
aS'pasta sauce'
p4130
aS'tartare sauce'
p4131
aS'tartar sauce'
p4132
aS'veloute'
p4133
aS'white sauce'
p4134
aS'bechamel sauce'
p4135
aS'bechamel'
p4136
aS'wine sauce'
p4137
aS'worcester sauce'
p4138
aS'worcestershire'
p4139
aS'worcestershire sauce'
p4140
aS'anchovy butter'
p4141
aS'cheese spread'
p4142
aS'fishpaste'
p4143
aS'garlic butter'
p4144
aS'hummus'
p4145
aS'humus'
p4146
aS'hommos'
p4147
aS'hoummos'
p4148
aS'humous'
p4149
aS'lobster butter'
p4150
aS'margarine'
p4151
aS'margarin'
p4152
aS'oleo'
p4153
aS'oleomargarine'
p4154
aS'marge'
p4155
aS'marshmallow fluff'
p4156
aS'miso'
p4157
aS'nut butter'
p4158
aS'onion butter'
p4159
aS'pate'
p4160
aS'peanut butter'
p4161
aS'pimento butter'
p4162
aS'shrimp butter'
p4163
aS'tahini'
p4164
aS'tapenade'
p4165
aS'chili vinegar'
p4166
aS'cider vinegar'
p4167
aS'wine vinegar'
p4168
aS'clary sage'
p4169
aS'summer savory'
p4170
aS'summer savoury'
p4171
aS'winter savory'
p4172
aS'winter savoury'
p4173
aS'black tea'
p4174
aS'green tea'
p4175
aS'oolong'
p4176
aS'tea bag'
p4177
aS'stick cinnamon'
p4178
aS'beet sugar'
p4179
aS'brown sugar'
p4180
aS'cane sugar'
p4181
aS'caramel'
p4182
aS'caramelized sugar'
p4183
aS'corn sugar'
p4184
aS'granulated sugar'
p4185
aS'lump sugar'
p4186
aS'sugarloaf'
p4187
aS'sugar loaf'
p4188
aS'loaf sugar'
p4189
aS'corn syrup'
p4190
aS'grenadine'
p4191
aS'maple syrup'
p4192
aS'molasses'
p4193
aS'sorghum'
p4194
aS'sorghum molasses'
p4195
aS'sugar syrup'
p4196
aS'treacle'
p4197
aS'golden syrup'
p4198
aS'black olive'
p4199
aS'ripe olive'
p4200
aS'green olive'
p4201
aS'caper'
p4202
aS'dill pickle'
p4203
aS'gherkin'
p4204
aS'sweet pickle'
p4205
aS'hot-fudge sauce'
p4206
aS'fudge sauce'
p4207
aS'anchovy dressing'
p4208
aS'bleu cheese dressing'
p4209
aS'blue cheese dressing'
p4210
aS'blue cheese dressing'
p4211
aS'roquefort dressing'
p4212
aS'french dressing'
p4213
aS'vinaigrette'
p4214
aS'sauce vinaigrette'
p4215
aS'half-and-half dressing'
p4216
aS'italian dressing'
p4217
aS'lorenzo dressing'
p4218
aS'mayonnaise'
p4219
aS'mayo'
p4220
aS'russian dressing'
p4221
aS'russian mayonnaise'
p4222
aS'salad cream'
p4223
aS'sauce louis'
p4224
aS'thousand island dressing'
p4225
aS'tabasco'
p4226
aS'tabasco sauce'
p4227
aS'bolognese pasta sauce'
p4228
aS'carbonara'
p4229
aS'marinara'
p4230
aS'tomato sauce'
p4231
aS'blanc'
p4232
aS'cheese sauce'
p4233
aS'cream sauce'
p4234
aS'stick'
p4235
aS'duck pate'
p4236
aS'foie gras'
p4237
aS'pate de foie gras'
p4238
aS'congou'
p4239
aS'congo'
p4240
aS'congou tea'
p4241
aS'english breakfast tea'
p4242
aS'darjeeling'
p4243
aS'orange pekoe'
p4244
aS'pekoe'
p4245
aS'souchong'
p4246
aS'soochong'
p4247
aS'hyson'
p4248
aS'demerara'
p4249
aS'demerara sugar'
p4250
aS'powdered sugar'
p4251
aS'bread and butter pickle'
p4252
aS'green mayonnaise'
p4253
aS'sauce verte'
p4254
aS'mornay sauce'
p4255
aS'castor sugar'
p4256
aS'caster sugar'
p4257
aS'icing sugar'
p4258
aS'sesame oil'
p4259
aS'poppy seeds'
p4260
aS'canola oil'
p4261
aS'baking powder'
p4262
aS'cornstarch'
p4263
aS'pecans'
p4264
a.