(lp0
S'beverage'
p1
aS'drink'
p2
aS'drinkable'
p3
aS'potable'
p4
aS'chyme'
p5
aS'comestible'
p6
aS'edible'
p7
aS'eatable'
p8
aS'pabulum'
p9
aS'victual'
p10
aS'victuals'
p11
aS'comfort food'
p12
aS'commissariat'
p13
aS'provisions'
p14
aS'provender'
p15
aS'viands'
p16
aS'victuals'
p17
aS'culture medium'
p18
aS'medium'
p19
aS'fare'
p20
aS'feed'
p21
aS'provender'
p22
aS'foodstuff'
p23
aS'food product'
p24
aS'micronutrient'
p25
aS'miraculous food'
p26
aS'manna'
p27
aS'manna from heaven'
p28
aS'nutriment'
p29
aS'nourishment'
p30
aS'nutrition'
p31
aS'sustenance'
p32
aS'aliment'
p33
aS'alimentation'
p34
aS'victuals'
p35
aS'soul food'
p36
aS'water'
p37
aS'yolk'
p38
aS'vitellus'
p39
aS'alcohol'
p40
aS'alcoholic drink'
p41
aS'alcoholic beverage'
p42
aS'intoxicant'
p43
aS'inebriant'
p44
aS'cider'
p45
aS'cyder'
p46
aS'cocoa'
p47
aS'chocolate'
p48
aS'hot chocolate'
p49
aS'drinking chocolate'
p50
aS'coffee'
p51
aS'java'
p52
aS'cooler'
p53
aS'drinking water'
p54
aS'fizz'
p55
aS'fruit drink'
p56
aS'ade'
p57
aS'fruit juice'
p58
aS'fruit crush'
p59
aS'ginger beer'
p60
aS'hydromel'
p61
aS'mate'
p62
aS'milk'
p63
aS'mixer'
p64
aS'near beer'
p65
aS'oenomel'
p66
aS'potion'
p67
aS'refresher'
p68
aS'smoothie'
p69
aS'soft drink'
p70
aS'tea-like drink'
p71
aS'tea'
p72
aS'wish-wash'
p73
aS'tuck'
p74
aS'food cache'
p75
aS'larder'
p76
aS'agar'
p77
aS'nutrient agar'
p78
aS'board'
p79
aS'table'
p80
aS'chow'
p81
aS'chuck'
p82
aS'eats'
p83
aS'grub'
p84
aS'diet'
p85
aS'diet'
p86
aS'dietary'
p87
aS'menu'
p88
aS'ration'
p89
aS'bird feed'
p90
aS'bird food'
p91
aS'birdseed'
p92
aS'blood meal'
p93
aS'cattle cake'
p94
aS'corn gluten feed'
p95
aS'creep feed'
p96
aS'cud'
p97
aS'rechewed food'
p98
aS'feed grain'
p99
aS'fish meal'
p100
aS'fodder'
p101
aS'mash'
p102
aS'mast'
p103
aS'oil cake'
p104
aS'petfood'
p105
aS'pet-food'
p106
aS'pet food'
p107
aS'silage'
p108
aS'ensilage'
p109
aS'slop'
p110
aS'slops'
p111
aS'swill'
p112
aS'pigswill'
p113
aS'pigwash'
p114
aS'breadstuff'
p115
aS'canned food'
p116
aS'canned foods'
p117
aS'canned goods'
p118
aS'tinned goods'
p119
aS'carob'
p120
aS'carob powder'
p121
aS"saint-john's-bread"
p122
aS'cocoa'
p123
aS'coloring'
p124
aS'colouring'
p125
aS'food coloring'
p126
aS'food colouring'
p127
aS'food color'
p128
aS'food colour'
p129
aS'concentrate'
p130
aS'concoction'
p131
aS'mixture'
p132
aS'intermixture'
p133
aS'curd'
p134
aS'dairy product'
p135
aS'dehydrated food'
p136
aS'dehydrated foods'
p137
aS'egg'
p138
aS'eggs'
p139
aS'flour'
p140
aS'frozen food'
p141
aS'frozen foods'
p142
aS'grain'
p143
aS'food grain'
p144
aS'cereal'
p145
aS'ingredient'
p146
aS'fixings'
p147
aS'juice'
p148
aS'meal'
p149
aS'milk'
p150
aS'perishable'
p151
aS'spoilable'
p152
aS'roughage'
p153
aS'fiber'
p154
aS'starches'
p155
aS'tapioca'
p156
aS'course'
p157
aS'dainty'
p158
aS'delicacy'
p159
aS'goody'
p160
aS'kickshaw'
p161
aS'treat'
p162
aS'dish'
p163
aS'fast food'
p164
aS'finger food'
p165
aS'ingesta'
p166
aS'kosher'
p167
aS'meal'
p168
aS'repast'
p169
aS'mess'
p170
aS'milk'
p171
aS'mince'
p172
aS'puree'
p173
aS'stodge'
p174
aS'vitamin'
p175
aS'wheat germ'
p176
aS'branch water'
p177
aS'spring water'
p178
aS'aperitif'
p179
aS'brew'
p180
aS'brewage'
p181
aS'hard cider'
p182
aS'home brew'
p183
aS'homebrew'
p184
aS'hooch'
p185
aS'hootch'
p186
aS'kava'
p187
aS'kavakava'
p188
aS'koumiss'
p189
aS'kumis'
p190
aS'liqueur'
p191
aS'cordial'
p192
aS'liquor'
p193
aS'spirits'
p194
aS'booze'
p195
aS'hard drink'
p196
aS'hard liquor'
p197
aS'john barleycorn'
p198
aS'strong drink'
p199
aS'mixed drink'
p200
aS'neutral spirits'
p201
aS'ethyl alcohol'
p202
aS'nipa'
p203
aS'perry'
p204
aS'proof spirit'
p205
aS'pulque'
p206
aS'rotgut'
p207
aS'sake'
p208
aS'saki'
p209
aS'rice beer'
p210
aS'slug'
p211
aS'wine'
p212
aS'vino'
p213
aS'scrumpy'
p214
aS'sweet cider'
p215
aS'cafe au lait'
p216
aS'cafe noir'
p217
aS'demitasse'
p218
aS'cafe royale'
p219
aS'coffee royal'
p220
aS'cappuccino'
p221
aS'cappuccino coffee'
p222
aS'coffee cappuccino'
p223
aS'coffee substitute'
p224
aS'decaffeinated coffee'
p225
aS'decaf'
p226
aS'drip coffee'
p227
aS'espresso'
p228
aS'iced coffee'
p229
aS'ice coffee'
p230
aS'instant coffee'
p231
aS'irish coffee'
p232
aS'mocha'
p233
aS'mocha coffee'
p234
aS'turkish coffee'
p235
aS'bottled water'
p236
aS'ice water'
p237
aS'mineral water'
p238
aS'soda water'
p239
aS'carbonated water'
p240
aS'club soda'
p241
aS'seltzer'
p242
aS'sparkling water'
p243
aS'sugar water'
p244
aS'lemonade'
p245
aS'limeade'
p246
aS'orangeade'
p247
aS'apple juice'
p248
aS'cranberry juice'
p249
aS'grape juice'
p250
aS'grapefruit juice'
p251
aS'nectar'
p252
aS'orange juice'
p253
aS'pineapple juice'
p254
aS'acidophilus milk'
p255
aS'buttermilk'
p256
aS'certified milk'
p257
aS'chocolate milk'
p258
aS'condensed milk'
p259
aS"cows' milk"
p260
aS'evaporated milk'
p261
aS"goats' milk"
p262
aS'homogenized milk'
p263
aS'low-fat milk'
p264
aS'pasteurized milk'
p265
aS'powdered milk'
p266
aS'dry milk'
p267
aS'dried milk'
p268
aS'milk powder'
p269
aS'raw milk'
p270
aS'scalded milk'
p271
aS'semi-skimmed milk'
p272
aS'skim milk'
p273
aS'skimmed milk'
p274
aS'sour milk'
p275
aS'whole milk'
p276
aS"yak's milk"
p277
aS'elixir'
p278
aS'philter'
p279
aS'philtre'
p280
aS'love-potion'
p281
aS'love-philter'
p282
aS'love-philtre'
p283
aS'birch beer'
p284
aS'bitter lemon'
p285
aS'cola'
p286
aS'dope'
p287
aS'cream soda'
p288
aS'egg cream'
p289
aS'ginger ale'
p290
aS'ginger pop'
p291
aS'orange soda'
p292
aS'phosphate'
p293
aS'pop'
p294
aS'soda'
p295
aS'soda pop'
p296
aS'soda water'
p297
aS'tonic'
p298
aS'root beer'
p299
aS'sarsaparilla'
p300
aS'tonic'
p301
aS'tonic water'
p302
aS'quinine water'
p303
aS'cambric tea'
p304
aS'cuppa'
p305
aS'cupper'
p306
aS'herb tea'
p307
aS'herbal tea'
p308
aS'herbal'
p309
aS'ice tea'
p310
aS'iced tea'
p311
aS'sun tea'
p312
aS'blood agar'
p313
aS'training table'
p314
aS'allergy diet'
p315
aS'balanced diet'
p316
aS'bland diet'
p317
aS'ulcer diet'
p318
aS'carbohydrate loading'
p319
aS'carbo loading'
p320
aS'diabetic diet'
p321
aS'dietary supplement'
p322
aS'gluten-free diet'
p323
aS'high-protein diet'
p324
aS'high-vitamin diet'
p325
aS'vitamin-deficiency diet'
p326
aS'light diet'
p327
aS'liquid diet'
p328
aS'low-fat diet'
p329
aS'low-sodium diet'
p330
aS'low-salt diet'
p331
aS'salt-free diet'
p332
aS'reducing diet'
p333
aS'obesity diet'
p334
aS'soft diet'
p335
aS'pap'
p336
aS'spoon food'
p337
aS'vegetarianism'
p338
aS'field ration'
p339
aS'canary seed'
p340
aS'alfalfa'
p341
aS'broad bean'
p342
aS'horse bean'
p343
aS'eatage'
p344
aS'forage'
p345
aS'pasture'
p346
aS'pasturage'
p347
aS'grass'
p348
aS'hay'
p349
aS'stover'
p350
aS'chicken feed'
p351
aS'scratch'
p352
aS'oil meal'
p353
aS'cat food'
p354
aS'dog food'
p355
aS'canned meat'
p356
aS'tinned meat'
p357
aS'criollo'
p358
aS'frozen orange juice'
p359
aS'orange-juice concentrate'
p360
aS'tomato concentrate'
p361
aS'batter'
p362
aS'dough'
p363
aS'filling'
p364
aS'mincemeat'
p365
aS'mix'
p366
aS'premix'
p367
aS'roux'
p368
aS'stuffing'
p369
aS'dressing'
p370
aS'bean curd'
p371
aS'tofu'
p372
aS'butter'
p373
aS'cheese'
p374
aS'clabber'
p375
aS'cream'
p376
aS'curd'
p377
aS'half-and-half'
p378
aS'whey'
p379
aS'yogurt'
p380
aS'yoghurt'
p381
aS'yoghourt'
p382
aS'plain flour'
p383
aS'semolina'
p384
aS'soybean meal'
p385
aS'soybean flour'
p386
aS'soy flour'
p387
aS'wheat flour'
p388
aS'barley'
p389
aS'barleycorn'
p390
aS'buckwheat'
p391
aS'corn'
p392
aS'edible corn'
p393
aS'grist'
p394
aS'groats'
p395
aS'malt'
p396
aS'millet'
p397
aS'oat'
p398
aS'rice'
p399
aS'wheat'
p400
aS'wheat berry'
p401
aS'wild rice'
p402
aS'indian rice'
p403
aS'egg white'
p404
aS'white'
p405
aS'albumen'
p406
aS'ovalbumin'
p407
aS'egg yolk'
p408
aS'yolk'
p409
aS'flavorer'
p410
aS'flavourer'
p411
aS'flavoring'
p412
aS'flavouring'
p413
aS'seasoner'
p414
aS'seasoning'
p415
aS'malted milk'
p416
aS'tomato paste'
p417
aS'carrot juice'
p418
aS'gravy'
p419
aS'pan gravy'
p420
aS'lemon juice'
p421
aS'lime juice'
p422
aS'papaya juice'
p423
aS'tomato juice'
p424
aS'v-8 juice'
p425
aS'cornmeal'
p426
aS'indian meal'
p427
aS'farina'
p428
aS'kibble'
p429
aS'matzo meal'
p430
aS'matzoh meal'
p431
aS'matzah meal'
p432
aS'oatmeal'
p433
aS'rolled oats'
p434
aS'pea flour'
p435
aS'pinole'
p436
aS'coconut milk'
p437
aS'coconut cream'
p438
aS'coconut milk'
p439
aS'coconut water'
p440
aS'formula'
p441
aS'soya milk'
p442
aS'soybean milk'
p443
aS'soymilk'
p444
aS'bran'
p445
aS'bread'
p446
aS'breadstuff'
p447
aS'staff of life'
p448
aS'potato'
p449
aS'white potato'
p450
aS'irish potato'
p451
aS'murphy'
p452
aS'spud'
p453
aS'tater'
p454
aS'appetizer'
p455
aS'appetiser'
p456
aS'starter'
p457
aS'dessert'
p458
aS'sweet'
p459
aS'afters'
p460
aS'entree'
p461
aS'main course'
p462
aS'ambrosia'
p463
aS'nectar'
p464
aS'choice morsel'
p465
aS'tidbit'
p466
aS'titbit'
p467
aS'gelatin'
p468
aS'jelly'
p469
aS'marrow'
p470
aS'bone marrow'
p471
aS'savory'
p472
aS'savoury'
p473
aS'sweet'
p474
aS'confection'
p475
aS'adobo'
p476
aS'applesauce'
p477
aS'apple sauce'
p478
aS'bacon and eggs'
p479
aS'barbecue'
p480
aS'barbeque'
p481
aS'barbecued spareribs'
p482
aS'spareribs'
p483
aS'barbecued wing'
p484
aS'beef bourguignonne'
p485
aS'boeuf bourguignonne'
p486
aS'beef stroganoff'
p487
aS'beef wellington'
p488
aS'filet de boeuf en croute'
p489
aS'biryani'
p490
aS'biriani'
p491
aS'bitok'
p492
aS'boiled dinner'
p493
aS'new england boiled dinner'
p494
aS'boiled egg'
p495
aS'coddled egg'
p496
aS'boston baked beans'
p497
aS'bubble and squeak'
p498
aS'buffalo wing'
p499
aS'burrito'
p500
aS'carbonnade flamande'
p501
aS'belgian beef stew'
p502
aS'casserole'
p503
aS'chicken and rice'
p504
aS'chicken cordon bleu'
p505
aS'chicken kiev'
p506
aS'chicken marengo'
p507
aS'chicken paprika'
p508
aS'chicken paprikash'
p509
aS'chicken provencale'
p510
aS'chili'
p511
aS'chili con carne'
p512
aS'chop suey'
p513
aS'chow mein'
p514
aS'coq au vin'
p515
aS'coquille'
p516
aS'coquilles saint-jacques'
p517
aS'cottage pie'
p518
aS'couscous'
p519
aS'croquette'
p520
aS'curry'
p521
aS'custard'
p522
aS'deviled egg'
p523
aS'stuffed egg'
p524
aS'dolmas'
p525
aS'stuffed grape leaves'
p526
aS'egg roll'
p527
aS'spring roll'
p528
aS'eggs benedict'
p529
aS'enchilada'
p530
aS'escalope de veau orloff'
p531
aS'falafel'
p532
aS'felafel'
p533
aS'fish and chips'
p534
aS'fish stick'
p535
aS'fish finger'
p536
aS'fondue'
p537
aS'fondu'
p538
aS'fondue'
p539
aS'fondu'
p540
aS'french toast'
p541
aS'fried egg'
p542
aS'fried rice'
p543
aS'chinese fried rice'
p544
aS'frittata'
p545
aS'frog legs'
p546
aS'galantine'
p547
aS'gefilte fish'
p548
aS'fish ball'
p549
aS'haggis'
p550
aS'ham and eggs'
p551
aS'hash'
p552
aS'jambalaya'
p553
aS'kabob'
p554
aS'kebab'
p555
aS'shish kebab'
p556
aS'kedgeree'
p557
aS'kishke'
p558
aS'stuffed derma'
p559
aS'lobster thermidor'
p560
aS'lutefisk'
p561
aS'lutfisk'
p562
aS'macedoine'
p563
aS'maryland chicken'
p564
aS'meat loaf'
p565
aS'meatloaf'
p566
aS'meatball'
p567
aS'mold'
p568
aS'mould'
p569
aS'moo goo gai pan'
p570
aS'moussaka'
p571
aS'mousse'
p572
aS'omelet'
p573
aS'omelette'
p574
aS'osso buco'
p575
aS'paella'
p576
aS'pasta'
p577
aS'patty'
p578
aS'cake'
p579
aS'pepper steak'
p580
aS'pheasant under glass'
p581
aS'piece de resistance'
p582
aS'pilaf'
p583
aS'pilaff'
p584
aS'pilau'
p585
aS'pilaw'
p586
aS'pizza'
p587
aS'pizza pie'
p588
aS'poached egg'
p589
aS'dropped egg'
p590
aS'poi'
p591
aS'pork and beans'
p592
aS'porridge'
p593
aS'potpie'
p594
aS'pudding'
p595
aS'ramekin'
p596
aS'ramequin'
p597
aS'refried beans'
p598
aS'frijoles refritos'
p599
aS'rijsttaffel'
p600
aS'rijstaffel'
p601
aS'rijstafel'
p602
aS'risotto'
p603
aS'italian rice'
p604
aS'rissole'
p605
aS'roulade'
p606
aS'salad'
p607
aS'salisbury steak'
p608
aS'sandwich plate'
p609
aS'sashimi'
p610
aS'sauerbraten'
p611
aS'sauerkraut'
p612
aS'saute'
p613
aS'scallopine'
p614
aS'scallopini'
p615
aS'scampi'
p616
aS'schnitzel'
p617
aS'wiener schnitzel'
p618
aS'scotch egg'
p619
aS'scotch woodcock'
p620
aS'scrambled eggs'
p621
aS'scrapple'
p622
aS'seafood newburg'
p623
aS'shirred egg'
p624
aS'baked egg'
p625
aS'egg en cocotte'
p626
aS'side dish'
p627
aS'side order'
p628
aS'entremets'
p629
aS'snack food'
p630
aS'souffle'
p631
aS'soup'
p632
aS'spaghetti and meatballs'
p633
aS'spanish rice'
p634
aS'special'
p635
aS'steak au poivre'
p636
aS'peppered steak'
p637
aS'pepper steak'
p638
aS'steak tartare'
p639
aS'tartar steak'
p640
aS'cannibal mound'
p641
aS'stew'
p642
aS'stuffed cabbage'
p643
aS'stuffed peppers'
p644
aS'stuffed tomato'
p645
aS'cold stuffed tomato'
p646
aS'stuffed tomato'
p647
aS'hot stuffed tomato'
p648
aS'succotash'
p649
aS'sukiyaki'
p650
aS'sushi'
p651
aS'swiss steak'
p652
aS'taco'
p653
aS'tamale'
p654
aS'tamale pie'
p655
aS'tempura'
p656
aS'teriyaki'
p657
aS'terrine'
p658
aS'tetrazzini'
p659
aS'timbale'
p660
aS'tostada'
p661
aS'turnover'
p662
aS'veal cordon bleu'
p663
aS'veal parmesan'
p664
aS'veal parmigiana'
p665
aS'viand'
p666
aS'welsh rarebit'
p667
aS'welsh rabbit'
p668
aS'rarebit'
p669
aS'banquet'
p670
aS'feast'
p671
aS'spread'
p672
aS'bite'
p673
aS'collation'
p674
aS'snack'
p675
aS'breakfast'
p676
aS'brunch'
p677
aS'buffet'
p678
aS'dinner'
p679
aS'lunch'
p680
aS'luncheon'
p681
aS'tiffin'
p682
aS'dejeuner'
p683
aS'mess'
p684
aS'nosh-up'
p685
aS'picnic'
p686
aS"ploughman's lunch"
p687
aS'potluck'
p688
aS'refection'
p689
aS'square meal'
p690
aS'supper'
p691
aS'tea'
p692
aS'afternoon tea'
p693
aS'teatime'
p694
aS'colostrum'
p695
aS'foremilk'
p696
aS"mother's milk"
p697
aS'fat-soluble vitamin'
p698
aS'water-soluble vitamin'
p699
aS'beer'
p700
aS'cassiri'
p701
aS'kvass'
p702
aS'mead'
p703
aS'spruce beer'
p704
aS'pruno'
p705
aS'absinth'
p706
aS'absinthe'
p707
aS'amaretto'
p708
aS'anisette'
p709
aS'anisette de bordeaux'
p710
aS'benedictine'
p711
aS'chartreuse'
p712
aS'coffee liqueur'
p713
aS'creme de cacao'
p714
aS'creme de fraise'
p715
aS'creme de menthe'
p716
aS'drambuie'
p717
aS'galliano'
p718
aS'kummel'
p719
aS'maraschino'
p720
aS'maraschino liqueur'
p721
aS'orange liqueur'
p722
aS'pastis'
p723
aS'pernod'
p724
aS'pousse-cafe'
p725
aS'ratafia'
p726
aS'ratafee'
p727
aS'sambuca'
p728
aS'aqua vitae'
p729
aS'ardent spirits'
p730
aS'aquavit'
p731
aS'akvavit'
p732
aS'arrack'
p733
aS'arak'
p734
aS'bitters'
p735
aS'brandy'
p736
aS'firewater'
p737
aS'gin'
p738
aS'lacing'
p739
aS'mescal'
p740
aS'ouzo'
p741
aS'rum'
p742
aS'schnapps'
p743
aS'schnaps'
p744
aS'tequila'
p745
aS'vodka'
p746
aS'whiskey'
p747
aS'whisky'
p748
aS'cocktail'
p749
aS'dom pedro'
p750
aS'flip'
p751
aS'highball'
p752
aS'hot toddy'
p753
aS'toddy'
p754
aS'mimosa'
p755
aS"buck's fizz"
p756
aS'pina colada'
p757
aS'punch'
p758
aS'rickey'
p759
aS'spritzer'
p760
aS'swizzle'
p761
aS'altar wine'
p762
aS'sacramental wine'
p763
aS'blush wine'
p764
aS'pink wine'
p765
aS'rose'
p766
aS'rose wine'
p767
aS'bordeaux'
p768
aS'bordeaux wine'
p769
aS'burgundy'
p770
aS'burgundy wine'
p771
aS'california wine'
p772
aS'cotes de provence'
p773
aS'dessert wine'
p774
aS'dubonnet'
p775
aS'fortified wine'
p776
aS'generic'
p777
aS'generic wine'
p778
aS'jug wine'
p779
aS'macon'
p780
aS'maconnais'
p781
aS'mulled wine'
p782
aS'plonk'
p783
aS'red wine'
p784
aS'retsina'
p785
aS'rhone wine'
p786
aS'sparkling wine'
p787
aS'table wine'
p788
aS'tokay'
p789
aS'varietal'
p790
aS'varietal wine'
p791
aS'vermouth'
p792
aS'vintage'
p793
aS'white wine'
p794
aS'mulled cider'
p795
aS'chicory'
p796
aS'chicory root'
p797
aS'postum'
p798
aS'caffe latte'
p799
aS'latte'
p800
aS'lithia water'
p801
aS'seltzer'
p802
aS'vichy water'
p803
aS'must'
p804
aS'nonfat dry milk'
p805
aS'elixir of life'
p806
aS'coca cola'
p807
aS'coke'
p808
aS'pepsi'
p809
aS'pepsi cola'
p810
aS'tisane'
p811
aS'vitamin pill'
p812
aS'clear liquid diet'
p813
aS'fad diet'
p814
aS'low-calorie diet'
p815
aS'macrobiotic diet'
p816
aS'c-ration'
p817
aS'k ration'
p818
aS'timothy'
p819
aS'fanny adams'
p820
aS'spam'
p821
aS'fritter batter'
p822
aS'pancake batter'
p823
aS'puff batter'
p824
aS'pouf paste'
p825
aS'pate a choux'
p826
aS'bread dough'
p827
aS'pastry'
p828
aS'pastry dough'
p829
aS'lekvar'
p830
aS'ready-mix'
p831
aS'self-rising flour'
p832
aS'self-raising flour'
p833
aS'forcemeat'
p834
aS'farce'
p835
aS'oyster stuffing'
p836
aS'oyster dressing'
p837
aS'turkey stuffing'
p838
aS'brown butter'
p839
aS'beurre noisette'
p840
aS'clarified butter'
p841
aS'drawn butter'
p842
aS'meuniere butter'
p843
aS'lemon butter'
p844
aS'stick'
p845
aS'yak butter'
p846
aS'bleu'
p847
aS'blue cheese'
p848
aS'brick cheese'
p849
aS'brie'
p850
aS'camembert'
p851
aS'cheddar'
p852
aS'cheddar cheese'
p853
aS'armerican cheddar'
p854
aS'american cheese'
p855
aS'cheshire cheese'
p856
aS'cottage cheese'
p857
aS'pot cheese'
p858
aS'farm cheese'
p859
aS"farmer's cheese"
p860
aS'cream cheese'
p861
aS'double gloucester'
p862
aS'edam'
p863
aS'goat cheese'
p864
aS'chevre'
p865
aS'gouda'
p866
aS'gouda cheese'
p867
aS'grated cheese'
p868
aS'hand cheese'
p869
aS'liederkranz'
p870
aS'limburger'
p871
aS'mozzarella'
p872
aS'muenster'
p873
aS'parmesan'
p874
aS'process cheese'
p875
aS'processed cheese'
p876
aS'quark cheese'
p877
aS'quark'
p878
aS'ricotta'
p879
aS'string cheese'
p880
aS'swiss cheese'
p881
aS'triple cream'
p882
aS'triple creme'
p883
aS'velveeta'
p884
aS'clotted cream'
p885
aS'devonshire cream'
p886
aS'double creme'
p887
aS'heavy whipping cream'
p888
aS'heavy cream'
p889
aS'light cream'
p890
aS'coffee cream'
p891
aS'single cream'
p892
aS'sour cream'
p893
aS'soured cream'
p894
aS'whipping cream'
p895
aS'light whipping cream'
p896
aS'blueberry yogurt'
p897
aS'frozen yogurt'
p898
aS'whole wheat flour'
p899
aS'graham flour'
p900
aS'graham'
p901
aS'whole meal flour'
p902
aS'pearl barley'
p903
aS'hominy'
p904
aS'popcorn'
p905
aS'sweet corn'
p906
aS'green corn'
p907
aS'wort'
p908
aS'brown rice'
p909
aS'paddy'
p910
aS'white rice'
p911
aS'polished rice'
p912
aS'bulgur'
p913
aS'bulghur'
p914
aS'bulgur wheat'
p915
aS'cracked wheat'
p916
aS'almond extract'
p917
aS'anchovy paste'
p918
aS'angelica'
p919
aS'anise'
p920
aS'aniseed'
p921
aS'anise seed'
p922
aS'bouillon cube'
p923
aS'caraway seed'
p924
aS'cardamom'
p925
aS'cardamon'
p926
aS'cardamum'
p927
aS'cassareep'
p928
aS'cayenne'
p929
aS'cayenne pepper'
p930
aS'red pepper'
p931
aS'celery salt'
p932
aS'celery seed'
p933
aS'chili powder'
p934
aS'cola extract'
p935
aS'condiment'
p936
aS'coriander'
p937
aS'coriander seed'
p938
aS'curry powder'
p939
aS'dill seed'
p940
aS'fennel seed'
p941
aS'fenugreek'
p942
aS'fenugreek seed'
p943
aS'garlic'
p944
aS'ail'
p945
aS'garlic chive'
p946
aS'garlic salt'
p947
aS'ginger'
p948
aS'gingerroot'
p949
aS'herb'
p950
aS'juniper berries'
p951
aS'lemon extract'
p952
aS'lemon oil'
p953
aS'mocha'
p954
aS'monosodium glutamate'
p955
aS'msg'
p956
aS'mustard seed'
p957
aS'nasturtium'
p958
aS'onion salt'
p959
aS'paprika'
p960
aS'pepper'
p961
aS'peppercorn'
p962
aS'peppermint oil'
p963
aS'poppy seed'
p964
aS'saffron'
p965
aS'salt'
p966
aS'table salt'
p967
aS'common salt'
p968
aS'sassafras'
p969
aS'seasoned salt'
p970
aS'sesame seed'
p971
aS'benniseed'
p972
aS'sour salt'
p973
aS'spearmint oil'
p974
aS'spice'
p975
aS'sweetening'
p976
aS'sweetener'
p977
aS'turmeric'
p978
aS'vanilla'
p979
aS'vanilla extract'
p980
aS'vanilla bean'
p981
aS'wintergreen oil'
p982
aS'oil of wintergreen'
p983
aS'anadama bread'
p984
aS'bap'
p985
aS'barmbrack'
p986
aS'breadstick'
p987
aS'bread-stick'
p988
aS'brown bread'
p989
aS'boston brown bread'
p990
aS'bun'
p991
aS'roll'
p992
aS'caraway seed bread'
p993
aS'challah'
p994
aS'hallah'
p995
aS'cinnamon bread'
p996
aS'cracked-wheat bread'
p997
aS'cracker'
p998
aS'crouton'
p999
aS'dark bread'
p1000
aS'whole wheat bread'
p1001
aS'whole meal bread'
p1002
aS'brown bread'
p1003
aS'english muffin'
p1004
aS'flatbread'
p1005
aS'garlic bread'
p1006
aS'gluten bread'
p1007
aS'host'
p1008
aS'loaf of bread'
p1009
aS'loaf'
p1010
aS'matzo'
p1011
aS'matzoh'
p1012
aS'matzah'
p1013
aS'unleavened bread'
p1014
aS'nan'
p1015
aS'naan'
p1016
aS'onion bread'
p1017
aS'quick bread'
p1018
aS'raisin bread'
p1019
aS'rye bread'
p1020
aS'salt-rising bread'
p1021
aS'simnel'
p1022
aS'sour bread'
p1023
aS'sourdough bread'
p1024
aS'toast'
p1025
aS'wafer'
p1026
aS'white bread'
p1027
aS'light bread'
p1028
aS'baked potato'
p1029
aS'french fries'
p1030
aS'french-fried potatoes'
p1031
aS'fries'
p1032
aS'chips'
p1033
aS'home fries'
p1034
aS'home-fried potatoes'
p1035
aS'mashed potato'
p1036
aS'uruguay potato'
p1037
aS'antipasto'
p1038
aS'canape'
p1039
aS'cocktail'
p1040
aS'crudites'
p1041
aS"hors d'oeuvre"
p1042
aS'ambrosia'
p1043
aS'baked alaska'
p1044
aS'blancmange'
p1045
aS'charlotte'
p1046
aS'compote'
p1047
aS'fruit compote'
p1048
aS'dumpling'
p1049
aS'flan'
p1050
aS'frozen dessert'
p1051
aS'junket'
p1052
aS'mousse'
p1053
aS'pavlova'
p1054
aS'peach melba'
p1055
aS'pudding'
p1056
aS'pud'
p1057
aS'pudding'
p1058
aS'syllabub'
p1059
aS'sillabub'
p1060
aS'tiramisu'
p1061
aS'whip'
p1062
aS'zabaglione'
p1063
aS'sabayon'
p1064
aS'plate'
p1065
aS'aspic'
p1066
aS"calf's-foot jelly"
p1067
aS'gelatin dessert'
p1068
aS'candied apple'
p1069
aS'candy apple'
p1070
aS'taffy apple'
p1071
aS'caramel apple'
p1072
aS'toffee apple'
p1073
aS'candy'
p1074
aS'confect'
p1075
aS'center'
p1076
aS'centre'
p1077
aS'chewing gum'
p1078
aS'gum'
p1079
aS'comfit'
p1080
aS'confectionery'
p1081
aS'confiture'
p1082
aS'hardbake'
p1083
aS'maraschino'
p1084
aS'maraschino cherry'
p1085
aS'nonpareil'
p1086
aS'sweetmeat'
p1087
aS'hard-boiled egg'
p1088
aS'hard-cooked egg'
p1089
aS'beef burrito'
p1090
aS'quesadilla'
p1091
aS'chicken casserole'
p1092
aS'arroz con pollo'
p1093
aS'lamb curry'
p1094
aS'bavarian cream'
p1095
aS'creme anglais'
p1096
aS'creme brulee'
p1097
aS'creme caramel'
p1098
aS'fruit custard'
p1099
aS'beef fondue'
p1100
aS'boeuf fondu bourguignon'
p1101
aS'cheese fondue'
p1102
aS'chocolate fondue'
p1103
aS'corned beef hash'
p1104
aS'souvlaki'
p1105
aS'souvlakia'
p1106
aS'fish loaf'
p1107
aS'porcupine ball'
p1108
aS'porcupines'
p1109
aS'swedish meatball'
p1110
aS'chicken mousse'
p1111
aS'fish mousse'
p1112
aS'egg foo yong'
p1113
aS'egg fu yung'
p1114
aS'firm omelet'
p1115
aS'fluffy omelet'
p1116
aS'cannelloni'
p1117
aS'lasagna'
p1118
aS'lasagne'
p1119
aS'macaroni and cheese'
p1120
aS'spaghetti'
p1121
aS'fish cake'
p1122
aS'fish ball'
p1123
aS'bulgur pilaf'
p1124
aS'anchovy pizza'
p1125
aS'cheese pizza'
p1126
aS'pepperoni pizza'
p1127
aS'sausage pizza'
p1128
aS'sicilian pizza'
p1129
aS'gruel'
p1130
aS'hasty pudding'
p1131
aS'oatmeal'
p1132
aS'burgoo'
p1133
aS'carrot pudding'
p1134
aS'corn pudding'
p1135
aS'chicken salad'
p1136
aS'coleslaw'
p1137
aS'slaw'
p1138
aS'crab louis'
p1139
aS'fruit salad'
p1140
aS'herring salad'
p1141
aS'molded salad'
p1142
aS'pasta salad'
p1143
aS'potato salad'
p1144
aS'salad nicoise'
p1145
aS'salmagundi'
p1146
aS'tabbouleh'
p1147
aS'tabooli'
p1148
aS'tossed salad'
p1149
aS'tuna fish salad'
p1150
aS'tuna salad'
p1151
aS'veal scallopini'
p1152
aS'lobster newburg'
p1153
aS'lobster a la newburg'
p1154
aS'shrimp newburg'
p1155
aS'mushy peas'
p1156
aS'raita'
p1157
aS'chip'
p1158
aS'crisp'
p1159
aS'potato chip'
p1160
aS'saratoga chip'
p1161
aS'corn chip'
p1162
aS'potato skin'
p1163
aS'potato peel'
p1164
aS'potato peelings'
p1165
aS'sandwich'
p1166
aS'cheese souffle'
p1167
aS'alphabet soup'
p1168
aS'bisque'
p1169
aS'borsch'
p1170
aS'borsh'
p1171
aS'borscht'
p1172
aS'borsht'
p1173
aS'borshch'
p1174
aS'bortsch'
p1175
aS'broth'
p1176
aS'stock'
p1177
aS'broth'
p1178
aS'chicken soup'
p1179
aS'chowder'
p1180
aS'cock-a-leekie'
p1181
aS'cocky-leeky'
p1182
aS'consomme'
p1183
aS'eggdrop soup'
p1184
aS'gazpacho'
p1185
aS'green pea soup'
p1186
aS'potage st. germain'
p1187
aS'gumbo'
p1188
aS'julienne'
p1189
aS'lentil soup'
p1190
aS'marmite'
p1191
aS'mock turtle soup'
p1192
aS'mulligatawny'
p1193
aS'oxtail soup'
p1194
aS'pea soup'
p1195
aS'pepper pot'
p1196
aS'philadelphia pepper pot'
p1197
aS'petite marmite'
p1198
aS'minestrone'
p1199
aS'vegetable soup'
p1200
aS'potage'
p1201
aS'pottage'
p1202
aS'scotch broth'
p1203
aS'soup du jour'
p1204
aS'split-pea soup'
p1205
aS'turtle soup'
p1206
aS'green turtle soup'
p1207
aS'vichyssoise'
p1208
aS'won ton'
p1209
aS'wonton'
p1210
aS'wonton soup'
p1211
aS'beef stew'
p1212
aS'bigos'
p1213
aS'brunswick stew'
p1214
aS'burgoo'
p1215
aS'fish stew'
p1216
aS'fricassee'
p1217
aS'goulash'
p1218
aS'hungarian goulash'
p1219
aS'gulyas'
p1220
aS'hot pot'
p1221
aS'hotpot'
p1222
aS'hotchpotch'
p1223
aS'irish stew'
p1224
aS'lobscouse'
p1225
aS'lobscuse'
p1226
aS'scouse'
p1227
aS'lobster stew'
p1228
aS'mulligan stew'
p1229
aS'mulligan'
p1230
aS'irish burgoo'
p1231
aS'olla podrida'
p1232
aS'spanish burgoo'
p1233
aS'oyster stew'
p1234
aS'pot-au-feu'
p1235
aS'pottage'
p1236
aS'purloo'
p1237
aS'chicken purloo'
p1238
aS'poilu'
p1239
aS'ragout'
p1240
aS'ratatouille'
p1241
aS'slumgullion'
p1242
aS'chicken taco'
p1243
aS'chicken tetrazzini'
p1244
aS'bean tostada'
p1245
aS'apple turnover'
p1246
aS'knish'
p1247
aS'pirogi'
p1248
aS'piroshki'
p1249
aS'pirozhki'
p1250
aS'samosa'
p1251
aS'coffee break'
p1252
aS'tea break'
p1253
aS'nosh'
p1254
aS'refreshment'
p1255
aS'continental breakfast'
p1256
aS'petit dejeuner'
p1257
aS'power breakfast'
p1258
aS'smorgasbord'
p1259
aS'high tea'
p1260
aS'business lunch'
p1261
aS'cookout'
p1262
aS'seder'
p1263
aS'passover supper'
p1264
aS'vitamin a'
p1265
aS'antiophthalmic factor'
p1266
aS'axerophthol'
p1267
aS'a'
p1268
aS'vitamin d'
p1269
aS'calciferol'
p1270
aS'viosterol'
p1271
aS'ergocalciferol'
p1272
aS'cholecalciferol'
p1273
aS'd'
p1274
aS'vitamin e'
p1275
aS'tocopherol'
p1276
aS'e'
p1277
aS'vitamin k'
p1278
aS'naphthoquinone'
p1279
aS'antihemorrhagic factor'
p1280
aS'b-complex vitamin'
p1281
aS'b complex'
p1282
aS'vitamin b complex'
p1283
aS'vitamin b'
p1284
aS'b vitamin'
p1285
aS'b'
p1286
aS'vitamin c'
p1287
aS'c'
p1288
aS'ascorbic acid'
p1289
aS'vitamin p'
p1290
aS'bioflavinoid'
p1291
aS'citrin'
p1292
aS'ale'
p1293
aS'draft beer'
p1294
aS'draught beer'
p1295
aS'lager'
p1296
aS'lager beer'
p1297
aS'suds'
p1298
aS'metheglin'
p1299
aS'kahlua'
p1300
aS'curacao'
p1301
aS'curacoa'
p1302
aS'grand marnier'
p1303
aS'triple sec'
p1304
aS'applejack'
p1305
aS'armagnac'
p1306
aS'calvados'
p1307
aS'cognac'
p1308
aS'eau de vie'
p1309
aS'grappa'
p1310
aS'kirsch'
p1311
aS'marc'
p1312
aS'slivovitz'
p1313
aS'bathtub gin'
p1314
aS'geneva'
p1315
aS'holland gin'
p1316
aS'hollands'
p1317
aS'sloe gin'
p1318
aS'demerara'
p1319
aS'demerara rum'
p1320
aS'grog'
p1321
aS'jamaica rum'
p1322
aS'blended whiskey'
p1323
aS'blended whisky'
p1324
aS'bourbon'
p1325
aS'corn whiskey'
p1326
aS'corn whisky'
p1327
aS'corn'
p1328
aS'irish'
p1329
aS'irish whiskey'
p1330
aS'irish whisky'
p1331
aS'rye'
p1332
aS'rye whiskey'
p1333
aS'rye whisky'
p1334
aS'scotch'
p1335
aS'scotch whiskey'
p1336
aS'scotch whisky'
p1337
aS'malt whiskey'
p1338
aS'malt whisky'
p1339
aS'scotch malt whiskey'
p1340
aS'scotch malt whisky'
p1341
aS'sour mash'
p1342
aS'sour mash whiskey'
p1343
aS'bloody mary'
p1344
aS'bullshot'
p1345
aS'daiquiri'
p1346
aS'rum cocktail'
p1347
aS'gimlet'
p1348
aS'gin and it'
p1349
aS'grasshopper'
p1350
aS'harvey wallbanger'
p1351
aS'manhattan'
p1352
aS'margarita'
p1353
aS'martini'
p1354
aS'old fashioned'
p1355
aS'pink lady'
p1356
aS"planter's punch"
p1357
aS'sazerac'
p1358
aS'screwdriver'
p1359
aS'sidecar'
p1360
aS'sour'
p1361
aS'stinger'
p1362
aS'white russian'
p1363
aS'cobbler'
p1364
aS'collins'
p1365
aS'tom collins'
p1366
aS'gin and tonic'
p1367
aS'julep'
p1368
aS'mint julep'
p1369
aS'scotch and soda'
p1370
aS'sling'
p1371
aS'zombie'
p1372
aS'zombi'
p1373
aS'tom and jerry'
p1374
aS'eggnog'
p1375
aS'fish house punch'
p1376
aS'fruit punch'
p1377
aS'glogg'
p1378
aS'may wine'
p1379
aS'milk punch'
p1380
aS'wassail'
p1381
aS'gin rickey'
p1382
aS'claret'
p1383
aS'red bordeaux'
p1384
aS'medoc'
p1385
aS'beaujolais'
p1386
aS'chablis'
p1387
aS'white burgundy'
p1388
aS'montrachet'
p1389
aS'straw wine'
p1390
aS'madeira'
p1391
aS'marsala'
p1392
aS'muscat'
p1393
aS'muscatel'
p1394
aS'muscadel'
p1395
aS'muscadelle'
p1396
aS'port'
p1397
aS'port wine'
p1398
aS'sherry'
p1399
aS'bishop'
p1400
aS'negus'
p1401
aS'cabernet'
p1402
aS'cabernet sauvignon'
p1403
aS'chianti'
p1404
aS'merlot'
p1405
aS'pinot noir'
p1406
aS'rioja'
p1407
aS'zinfandel'
p1408
aS'champagne'
p1409
aS'bubbly'
p1410
aS'cold duck'
p1411
aS'vin ordinaire'
p1412
aS'dry vermouth'
p1413
aS'french vermouth'
p1414
aS'sweet vermouth'
p1415
aS'italian vermouth'
p1416
aS'canary wine'
p1417
aS'chardonnay'
p1418
aS'pinot chardonnay'
p1419
aS'chenin blanc'
p1420
aS'moselle'
p1421
aS'muscadet'
p1422
aS'pinot blanc'
p1423
aS'rhine wine'
p1424
aS'rhenish'
p1425
aS'hock'
p1426
aS'sack'
p1427
aS'sauterne'
p1428
aS'sauternes'
p1429
aS'sauvignon blanc'
p1430
aS'soave'
p1431
aS'verdicchio'
p1432
aS'vouvray'
p1433
aS'yquem'
p1434
aS'camomile tea'
p1435
aS'multivitamin'
p1436
aS'multivitamin pill'
p1437
aS'puff paste'
p1438
aS'pate feuillete'
p1439
aS'brownie mix'
p1440
aS'cake mix'
p1441
aS'lemonade mix'
p1442
aS'ghee'
p1443
aS'bavarian blue'
p1444
aS'danish blue'
p1445
aS'gorgonzola'
p1446
aS'roquefort'
p1447
aS'stilton'
p1448
aS'rat cheese'
p1449
aS'store cheese'
p1450
aS'double cream'
p1451
aS'mascarpone'
p1452
aS'emmenthal'
p1453
aS'emmental'
p1454
aS'emmenthaler'
p1455
aS'emmentaler'
p1456
aS'gruyere'
p1457
aS'sapsago'
p1458
aS'lye hominy'
p1459
aS'pearl hominy'
p1460
aS'catsup'
p1461
aS'ketchup'
p1462
aS'cetchup'
p1463
aS'tomato ketchup'
p1464
aS'chili sauce'
p1465
aS'chutney'
p1466
aS'indian relish'
p1467
aS'cranberry sauce'
p1468
aS'dip'
p1469
aS'duck sauce'
p1470
aS'hoisin sauce'
p1471
aS'horseradish'
p1472
aS'marinade'
p1473
aS'mint sauce'
p1474
aS'mustard'
p1475
aS'table mustard'
p1476
aS'relish'
p1477
aS'salsa'
p1478
aS'sauce'
p1479
aS'soy sauce'
p1480
aS'soy'
p1481
aS'spread'
p1482
aS'paste'
p1483
aS'steak sauce'
p1484
aS'taco sauce'
p1485
aS'vinegar'
p1486
aS'acetum'
p1487
aS'wasabi'
p1488
aS'clove'
p1489
aS'garlic clove'
p1490
aS'angelica'
p1491
aS'basil'
p1492
aS'sweet basil'
p1493
aS'bay leaf'
p1494
aS'borage'
p1495
aS'caraway'
p1496
aS'chervil'
p1497
aS'chives'
p1498
aS'comfrey'
p1499
aS'healing herb'
p1500
aS'coriander'
p1501
aS'chinese parsley'
p1502
aS'cilantro'
p1503
aS'costmary'
p1504
aS'dill'
p1505
aS'dill weed'
p1506
aS'fennel'
p1507
aS'common fennel'
p1508
aS'fines herbes'
p1509
aS'hyssop'
p1510
aS'lemon balm'
p1511
aS'lovage'
p1512
aS'marjoram'
p1513
aS'oregano'
p1514
aS'mint'
p1515
aS'parsley'
p1516
aS'rosemary'
p1517
aS'rue'
p1518
aS'sage'
p1519
aS'savory'
p1520
aS'savoury'
p1521
aS'sweet cicely'
p1522
aS'sweet woodruff'
p1523
aS'waldmeister'
p1524
aS'tarragon'
p1525
aS'estragon'
p1526
aS'tea'
p1527
aS'tea leaf'
p1528
aS'thyme'
p1529
aS'spanish paprika'
p1530
aS'black pepper'
p1531
aS'white pepper'
p1532
aS'allspice'
p1533
aS'chinese anise'
p1534
aS'star anise'
p1535
aS'star aniseed'
p1536
aS'cinnamon'
p1537
aS'clove'
p1538
aS'fennel'
p1539
aS'five spice powder'
p1540
aS'ginger'
p1541
aS'powdered ginger'
p1542
aS'mace'
p1543
aS'nutmeg'
p1544
aS'aspartame'
p1545
aS'honey'
p1546
aS'saccharin'
p1547
aS'sugar'
p1548
aS'refined sugar'
p1549
aS'syrup'
p1550
aS'sirup'
p1551
aS'grissino'
p1552
aS'bagel'
p1553
aS'beigel'
p1554
aS'brioche'
p1555
aS'clover-leaf roll'
p1556
aS'crescent roll'
p1557
aS'croissant'
p1558
aS'frankfurter bun'
p1559
aS'hotdog bun'
p1560
aS'hamburger bun'
p1561
aS'hamburger roll'
p1562
aS'hard roll'
p1563
aS'vienna roll'
p1564
aS'kaiser roll'
p1565
aS'onion roll'
p1566
aS'parker house roll'
p1567
aS'soft roll'
p1568
aS'sweet roll'
p1569
aS'coffee roll'
p1570
aS'tea bread'
p1571
aS'graham cracker'
p1572
aS'oyster cracker'
p1573
aS'pretzel'
p1574
aS'saltine'
p1575
aS'soda cracker'
p1576
aS'water biscuit'
p1577
aS'graham bread'
p1578
aS'bannock'
p1579
aS'chapatti'
p1580
aS'chapati'
p1581
aS'flatbrod'
p1582
aS'pita'
p1583
aS'pocket bread'
p1584
aS'french loaf'
p1585
aS'banana bread'
p1586
aS'biscuit'
p1587
aS'cornbread'
p1588
aS'date-nut bread'
p1589
aS'date bread'
p1590
aS'irish soda bread'
p1591
aS'muffin'
p1592
aS'gem'
p1593
aS'nut bread'
p1594
aS'oatcake'
p1595
aS'scone'
p1596
aS'skillet bread'
p1597
aS'fry bread'
p1598
aS'yorkshire pudding'
p1599
aS'black bread'
p1600
aS'pumpernickel'
p1601
aS'jewish rye bread'
p1602
aS'jewish rye'
p1603
aS'limpa'
p1604
aS'swedish rye bread'
p1605
aS'swedish rye'
p1606
aS'cinnamon toast'
p1607
aS'melba toast'
p1608
aS'orange toast'
p1609
aS'zwieback'
p1610
aS'rusk'
p1611
aS'brussels biscuit'
p1612
aS'twice-baked bread'
p1613
aS'french bread'
p1614
aS'italian bread'
p1615
aS'jacket potato'
p1616
aS'crab cocktail'
p1617
aS'fruit cocktail'
p1618
aS'shrimp cocktail'
p1619
aS'carrot stick'
p1620
aS'celery stick'
p1621
aS'pigs in blankets'
p1622
aS'rollmops'
p1623
aS'stuffed mushroom'
p1624
aS'charlotte russe'
p1625
aS'apple dumpling'
p1626
aS'frozen custard'
p1627
aS'soft ice cream'
p1628
aS'frozen pudding'
p1629
aS'ice-cream cake'
p1630
aS'icebox cake'
p1631
aS'ice-cream cone'
p1632
aS'ice-cream sundae'
p1633
aS'sundae'
p1634
aS'ice'
p1635
aS'frappe'
p1636
aS'ice cream'
p1637
aS'icecream'
p1638
aS'ice lolly'
p1639
aS'lolly'
p1640
aS'lollipop'
p1641
aS'popsicle'
p1642
aS'ice milk'
p1643
aS'parfait'
p1644
aS'sherbert'
p1645
aS'sherbet'
p1646
aS'snowball'
p1647
aS'snowball'
p1648
aS'split'
p1649
aS'chocolate mousse'
p1650
aS'trifle'
p1651
aS'brown betty'
p1652
aS'chocolate pudding'
p1653
aS'duff'
p1654
aS'plum duff'
p1655
aS'flummery'
p1656
aS'nesselrode'
p1657
aS'nesselrode pudding'
p1658
aS'pease pudding'
p1659
aS'plum pudding'
p1660
aS'christmas pudding'
p1661
aS'roly-poly'
p1662
aS'roly-poly pudding'
p1663
aS'steamed pudding'
p1664
aS'suet pudding'
p1665
aS'tapioca pudding'
p1666
aS'vanilla pudding'
p1667
aS'prune whip'
p1668
aS'jello'
p1669
aS'jell-o'
p1670
aS'bonbon'
p1671
aS'brandyball'
p1672
aS'brittle'
p1673
aS'toffee'
p1674
aS'toffy'
p1675
aS'butterscotch'
p1676
aS'candy bar'
p1677
aS'candy cane'
p1678
aS'candy corn'
p1679
aS'caramel'
p1680
aS'carob bar'
p1681
aS'cotton candy'
p1682
aS'spun sugar'
p1683
aS'candyfloss'
p1684
aS'dragee'
p1685
aS'dragee'
p1686
aS'easter egg'
p1687
aS'fondant'
p1688
aS'fudge'
p1689
aS'gumdrop'
p1690
aS'hard candy'
p1691
aS'honey crisp'
p1692
aS'horehound'
p1693
aS'jelly bean'
p1694
aS'jelly egg'
p1695
aS'kiss'
p1696
aS'candy kiss'
p1697
aS'licorice'
p1698
aS'liquorice'
p1699
aS'life saver'
p1700
aS'lollipop'
p1701
aS'sucker'
p1702
aS'all-day sucker'
p1703
aS'lozenge'
p1704
aS'marshmallow'
p1705
aS'marzipan'
p1706
aS'marchpane'
p1707
aS'mint'
p1708
aS'mint candy'
p1709
aS'nougat'
p1710
aS'nougat bar'
p1711
aS'nut bar'
p1712
aS'patty'
p1713
aS'peanut bar'
p1714
aS'popcorn ball'
p1715
aS'praline'
p1716
aS'rock candy'
p1717
aS'rock'
p1718
aS'rock candy'
p1719
aS'sugar candy'
p1720
aS'sugarplum'
p1721
aS'taffy'
p1722
aS'truffle'
p1723
aS'chocolate truffle'
p1724
aS'turkish delight'
p1725
aS'bubble gum'
p1726
aS'gum ball'
p1727
aS'candied fruit'
p1728
aS'succade'
p1729
aS'crystallized fruit'
p1730
aS'conserve'
p1731
aS'preserve'
p1732
aS'conserves'
p1733
aS'preserves'
p1734
aS'easter egg'
p1735
aS'chicken cacciatore'
p1736
aS'chicken cacciatora'
p1737
aS"hunter's chicken"
p1738
aS'salmon loaf'
p1739
aS'french omelet'
p1740
aS'western omelet'
p1741
aS'codfish ball'
p1742
aS'codfish cake'
p1743
aS'congee'
p1744
aS'jook'
p1745
aS'loblolly'
p1746
aS'skilly'
p1747
aS'waldorf salad'
p1748
aS'macaroni salad'
p1749
aS'caesar salad'
p1750
aS'combination salad'
p1751
aS'green salad'
p1752
aS'tortilla chip'
p1753
aS'bacon-lettuce-tomato sandwich'
p1754
aS'blt'
p1755
aS'bomber'
p1756
aS'grinder'
p1757
aS'hero'
p1758
aS'hero sandwich'
p1759
aS'hoagie'
p1760
aS'hoagy'
p1761
aS'cuban sandwich'
p1762
aS'italian sandwich'
p1763
aS'poor boy'
p1764
aS'sub'
p1765
aS'submarine'
p1766
aS'submarine sandwich'
p1767
aS'torpedo'
p1768
aS'wedge'
p1769
aS'zep'
p1770
aS'butty'
p1771
aS'chicken sandwich'
p1772
aS'club sandwich'
p1773
aS'three-decker'
p1774
aS'triple-decker'
p1775
aS'gyro'
p1776
aS'ham sandwich'
p1777
aS'hamburger'
p1778
aS'beefburger'
p1779
aS'burger'
p1780
aS'hotdog'
p1781
aS'hot dog'
p1782
aS'red hot'
p1783
aS'open-face sandwich'
p1784
aS'open sandwich'
p1785
aS'reuben'
p1786
aS'sloppy joe'
p1787
aS'tunaburger'
p1788
aS'western'
p1789
aS'western sandwich'
p1790
aS'wrap'
p1791
aS'beef broth'
p1792
aS'beef stock'
p1793
aS'chicken broth'
p1794
aS'chicken stock'
p1795
aS'liquor'
p1796
aS'pot liquor'
p1797
aS'pot likker'
p1798
aS'stock cube'
p1799
aS'barley water'
p1800
aS'bouillon'
p1801
aS'clam chowder'
p1802
aS'corn chowder'
p1803
aS'fish chowder'
p1804
aS'madrilene'
p1805
aS'bouillabaisse'
p1806
aS'matelote'
p1807
aS'chicken stew'
p1808
aS'turkey stew'
p1809
aS'beef goulash'
p1810
aS'pork-and-veal goulash'
p1811
aS'porkholt'
p1812
aS'salmi'
p1813
aS'barbecue'
p1814
aS'barbeque'
p1815
aS'burgoo'
p1816
aS'clambake'
p1817
aS'fish fry'
p1818
aS'wiener roast'
p1819
aS'weenie roast'
p1820
aS'last supper'
p1821
aS"lord's supper"
p1822
aS'vitamin a1'
p1823
aS'retinol'
p1824
aS'vitamin a2'
p1825
aS'dehydroretinol'
p1826
aS'alpha-tocopheral'
p1827
aS'vitamin k1'
p1828
aS'phylloquinone'
p1829
aS'phytonadione'
p1830
aS'vitamin k3'
p1831
aS'menadione'
p1832
aS'biotin'
p1833
aS'vitamin h'
p1834
aS'choline'
p1835
aS'inositol'
p1836
aS'niacin'
p1837
aS'nicotinic acid'
p1838
aS'pantothenic acid'
p1839
aS'pantothen'
p1840
aS'vitamin b1'
p1841
aS'thiamine'
p1842
aS'thiamin'
p1843
aS'aneurin'
p1844
aS'antiberiberi factor'
p1845
aS'vitamin b12'
p1846
aS'cobalamin'
p1847
aS'cyanocobalamin'
p1848
aS'antipernicious anemia factor'
p1849
aS'vitamin b2'
p1850
aS'vitamin g'
p1851
aS'riboflavin'
p1852
aS'lactoflavin'
p1853
aS'ovoflavin'
p1854
aS'hepatoflavin'
p1855
aS'vitamin b6'
p1856
aS'pyridoxine'
p1857
aS'pyridoxal'
p1858
aS'pyridoxamine'
p1859
aS'adermin'
p1860
aS'vitamin bc'
p1861
aS'vitamin m'
p1862
aS'folate'
p1863
aS'folic acid'
p1864
aS'folacin'
p1865
aS'pteroylglutamic acid'
p1866
aS'pteroylmonoglutamic acid'
p1867
aS'bitter'
p1868
aS'burton'
p1869
aS'pale ale'
p1870
aS'porter'
p1871
aS"porter's beer"
p1872
aS'stout'
p1873
aS'weissbier'
p1874
aS'white beer'
p1875
aS'wheat beer'
p1876
aS'bock'
p1877
aS'bock beer'
p1878
aS'light beer'
p1879
aS'malt'
p1880
aS'malt liquor'
p1881
aS'munich beer'
p1882
aS'munchener'
p1883
aS'oktoberfest'
p1884
aS'octoberfest'
p1885
aS'pilsner'
p1886
aS'pilsener'
p1887
aS'moonshine'
p1888
aS'bootleg'
p1889
aS'corn liquor'
p1890
aS'poteen'
p1891
aS'virgin mary'
p1892
aS'bloody shame'
p1893
aS'nada daiquiri'
p1894
aS'strawberry daiquiri'
p1895
aS'rob roy'
p1896
aS'vodka martini'
p1897
aS'whiskey sour'
p1898
aS'whisky sour'
p1899
aS'brandy sling'
p1900
aS'gin sling'
p1901
aS'rum sling'
p1902
aS'champagne cup'
p1903
aS'claret cup'
p1904
aS'saint emilion'
p1905
aS'malmsey'
p1906
aS'amontillado'
p1907
aS'manzanilla'
p1908
aS'liebfraumilch'
p1909
aS'riesling'
p1910
aS'phyllo'
p1911
aS'bean dip'
p1912
aS'cheese dip'
p1913
aS'clam dip'
p1914
aS'guacamole'
p1915
aS'chinese mustard'
p1916
aS'powdered mustard'
p1917
aS'dry mustard'
p1918
aS'chowchow'
p1919
aS'olive'
p1920
aS'piccalilli'
p1921
aS'pickle'
p1922
aS'pickle relish'
p1923
aS'aioli'
p1924
aS'aioli sauce'
p1925
aS'garlic sauce'
p1926
aS'allemande'
p1927
aS'allemande sauce'
p1928
aS'anchovy sauce'
p1929
aS'apricot sauce'
p1930
aS'barbecue sauce'
p1931
aS'bearnaise'
p1932
aS'bercy'
p1933
aS'bercy butter'
p1934
aS'bordelaise'
p1935
aS'bourguignon'
p1936
aS'bourguignon sauce'
p1937
aS'burgundy sauce'
p1938
aS'bread sauce'
p1939
aS'brown sauce'
p1940
aS'sauce espagnole'
p1941
aS'caper sauce'
p1942
aS'chinese brown sauce'
p1943
aS'brown sauce'
p1944
aS'chocolate sauce'
p1945
aS'chocolate syrup'
p1946
aS'cocktail sauce'
p1947
aS'seafood sauce'
p1948
aS'colbert'
p1949
aS'colbert butter'
p1950
aS'curry sauce'
p1951
aS'demiglace'
p1952
aS'demi-glaze'
p1953
aS'dressing'
p1954
aS'salad dressing'
p1955
aS'espagnole'
p1956
aS'sauce espagnole'
p1957
aS'gravy'
p1958
aS'hard sauce'
p1959
aS'hollandaise'
p1960
aS'horseradish sauce'
p1961
aS'sauce albert'
p1962
aS'hot sauce'
p1963
aS'hungarian sauce'
p1964
aS'paprika sauce'
p1965
aS"hunter's sauce"
p1966
aS'sauce chausseur'
p1967
aS'lyonnaise sauce'
p1968
aS'brown onion sauce'
p1969
aS'marchand de vin'
p1970
aS'mushroom wine sauce'
p1971
aS'mole'
p1972
aS'mushroom sauce'
p1973
aS'mustard sauce'
p1974
aS'nantua'
p1975
aS'shrimp sauce'
p1976
aS'newburg sauce'
p1977
aS'peach sauce'
p1978
aS'pepper sauce'
p1979
aS'poivrade'
p1980
aS'pesto'
p1981
aS'plum sauce'
p1982
aS'poulette'
p1983
aS'ravigote'
p1984
aS'ravigotte'
p1985
aS'remoulade sauce'
p1986
aS'smitane'
p1987
aS'snail butter'
p1988
aS'soubise'
p1989
aS'white onion sauce'
p1990
aS'spaghetti sauce'
p1991
aS'pasta sauce'
p1992
aS'tartare sauce'
p1993
aS'tartar sauce'
p1994
aS'veloute'
p1995
aS'white sauce'
p1996
aS'bechamel sauce'
p1997
aS'bechamel'
p1998
aS'wine sauce'
p1999
aS'worcester sauce'
p2000
aS'worcestershire'
p2001
aS'worcestershire sauce'
p2002
aS'anchovy butter'
p2003
aS'cheese spread'
p2004
aS'fishpaste'
p2005
aS'garlic butter'
p2006
aS'hummus'
p2007
aS'humus'
p2008
aS'hommos'
p2009
aS'hoummos'
p2010
aS'humous'
p2011
aS'lobster butter'
p2012
aS'margarine'
p2013
aS'margarin'
p2014
aS'oleo'
p2015
aS'oleomargarine'
p2016
aS'marge'
p2017
aS'marshmallow fluff'
p2018
aS'miso'
p2019
aS'nut butter'
p2020
aS'onion butter'
p2021
aS'pate'
p2022
aS'peanut butter'
p2023
aS'pimento butter'
p2024
aS'shrimp butter'
p2025
aS'tahini'
p2026
aS'tapenade'
p2027
aS'chili vinegar'
p2028
aS'cider vinegar'
p2029
aS'wine vinegar'
p2030
aS'clary sage'
p2031
aS'summer savory'
p2032
aS'summer savoury'
p2033
aS'winter savory'
p2034
aS'winter savoury'
p2035
aS'black tea'
p2036
aS'green tea'
p2037
aS'oolong'
p2038
aS'tea bag'
p2039
aS'stick cinnamon'
p2040
aS'beet sugar'
p2041
aS'brown sugar'
p2042
aS'cane sugar'
p2043
aS'caramel'
p2044
aS'caramelized sugar'
p2045
aS'corn sugar'
p2046
aS'granulated sugar'
p2047
aS'lump sugar'
p2048
aS'sugarloaf'
p2049
aS'sugar loaf'
p2050
aS'loaf sugar'
p2051
aS'corn syrup'
p2052
aS'grenadine'
p2053
aS'maple syrup'
p2054
aS'molasses'
p2055
aS'sorghum'
p2056
aS'sorghum molasses'
p2057
aS'sugar syrup'
p2058
aS'treacle'
p2059
aS'golden syrup'
p2060
aS'onion bagel'
p2061
aS'bialy'
p2062
aS'bialystoker'
p2063
aS'bear claw'
p2064
aS'bear paw'
p2065
aS'cinnamon roll'
p2066
aS'cinnamon bun'
p2067
aS'cinnamon snail'
p2068
aS'cross bun'
p2069
aS'hot cross bun'
p2070
aS'danish'
p2071
aS'danish pastry'
p2072
aS'honey bun'
p2073
aS'sticky bun'
p2074
aS'caramel bun'
p2075
aS'schnecken'
p2076
aS'pinwheel roll'
p2077
aS'soft pretzel'
p2078
aS'baking-powder biscuit'
p2079
aS'buttermilk biscuit'
p2080
aS'soda biscuit'
p2081
aS'drop biscuit'
p2082
aS'hardtack'
p2083
aS'pilot biscuit'
p2084
aS'pilot bread'
p2085
aS'sea biscuit'
p2086
aS'ship biscuit'
p2087
aS'rolled biscuit'
p2088
aS'ashcake'
p2089
aS'ash cake'
p2090
aS'corn tash'
p2091
aS'corn cake'
p2092
aS'corn dab'
p2093
aS'corn dodger'
p2094
aS'dodger'
p2095
aS'cornpone'
p2096
aS'pone'
p2097
aS'hush puppy'
p2098
aS'hushpuppy'
p2099
aS'johnnycake'
p2100
aS'johnny cake'
p2101
aS'journey cake'
p2102
aS'skillet corn bread'
p2103
aS'spoon bread'
p2104
aS'batter bread'
p2105
aS'bran muffin'
p2106
aS'corn muffin'
p2107
aS'popover'
p2108
aS'drop scone'
p2109
aS'griddlecake'
p2110
aS'scotch pancake'
p2111
aS'baguet'
p2112
aS'baguette'
p2113
aS'water ice'
p2114
aS'sorbet'
p2115
aS'chocolate ice cream'
p2116
aS'neapolitan ice cream'
p2117
aS'peach ice cream'
p2118
aS'strawberry ice cream'
p2119
aS'tutti-frutti'
p2120
aS'vanilla ice cream'
p2121
aS'banana split'
p2122
aS'tipsy cake'
p2123
aS'spotted dick'
p2124
aS'peanut brittle'
p2125
aS'candy egg'
p2126
aS'chocolate egg'
p2127
aS'chocolate fudge'
p2128
aS'divinity'
p2129
aS'divinity fudge'
p2130
aS'penuche'
p2131
aS'penoche'
p2132
aS'panoche'
p2133
aS'panocha'
p2134
aS'jujube'
p2135
aS'barley-sugar'
p2136
aS'barley candy'
p2137
aS'jawbreaker'
p2138
aS'lemon drop'
p2139
aS'sourball'
p2140
aS'chocolate kiss'
p2141
aS'meringue kiss'
p2142
aS'molasses kiss'
p2143
aS'scotch kiss'
p2144
aS'cachou'
p2145
aS'cough drop'
p2146
aS'troche'
p2147
aS'pastille'
p2148
aS'pastil'
p2149
aS'peppermint'
p2150
aS'peppermint candy'
p2151
aS'peppermint patty'
p2152
aS'molasses taffy'
p2153
aS'candied citrus peel'
p2154
aS'crystallized ginger'
p2155
aS'apple butter'
p2156
aS'chowchow'
p2157
aS'jam'
p2158
aS'jelly'
p2159
aS'lemon curd'
p2160
aS'lemon cheese'
p2161
aS'marmalade'
p2162
aS"chef's salad"
p2163
aS'nacho'
p2164
aS'cheeseburger'
p2165
aS'chili dog'
p2166
aS'manhattan clam chowder'
p2167
aS'new england clam chowder'
p2168
aS'guinness'
p2169
aS'weizenbier'
p2170
aS'weizenbock'
p2171
aS'black olive'
p2172
aS'ripe olive'
p2173
aS'green olive'
p2174
aS'caper'
p2175
aS'dill pickle'
p2176
aS'gherkin'
p2177
aS'sweet pickle'
p2178
aS'hot-fudge sauce'
p2179
aS'fudge sauce'
p2180
aS'anchovy dressing'
p2181
aS'bleu cheese dressing'
p2182
aS'blue cheese dressing'
p2183
aS'blue cheese dressing'
p2184
aS'roquefort dressing'
p2185
aS'french dressing'
p2186
aS'vinaigrette'
p2187
aS'sauce vinaigrette'
p2188
aS'half-and-half dressing'
p2189
aS'italian dressing'
p2190
aS'lorenzo dressing'
p2191
aS'mayonnaise'
p2192
aS'mayo'
p2193
aS'russian dressing'
p2194
aS'russian mayonnaise'
p2195
aS'salad cream'
p2196
aS'sauce louis'
p2197
aS'thousand island dressing'
p2198
aS'tabasco'
p2199
aS'tabasco sauce'
p2200
aS'bolognese pasta sauce'
p2201
aS'carbonara'
p2202
aS'marinara'
p2203
aS'tomato sauce'
p2204
aS'blanc'
p2205
aS'cheese sauce'
p2206
aS'cream sauce'
p2207
aS'duck pate'
p2208
aS'foie gras'
p2209
aS'pate de foie gras'
p2210
aS'congou'
p2211
aS'congo'
p2212
aS'congou tea'
p2213
aS'english breakfast tea'
p2214
aS'darjeeling'
p2215
aS'orange pekoe'
p2216
aS'pekoe'
p2217
aS'souchong'
p2218
aS'soochong'
p2219
aS'hyson'
p2220
aS'demerara'
p2221
aS'demerara sugar'
p2222
aS'powdered sugar'
p2223
aS'shortcake'
p2224
aS'hoecake'
p2225
aS'shawnee cake'
p2226
aS'choc-ice'
p2227
aS'grapefruit peel'
p2228
aS'lemon peel'
p2229
aS'orange peel'
p2230
aS'strawberry jam'
p2231
aS'strawberry preserves'
p2232
aS'apple jelly'
p2233
aS'grape jelly'
p2234
aS'orange marmalade'
p2235
aS'bread and butter pickle'
p2236
aS'green mayonnaise'
p2237
aS'sauce verte'
p2238
aS'mornay sauce'
p2239
aS'castor sugar'
p2240
aS'caster sugar'
p2241
aS'icing sugar'
p2242
aS'crabapple jelly'
p2243
aS'baked goods'
p2244
aS'breakfast food'
p2245
aS'butter'
p2246
aS'cheese'
p2247
aS'chocolate'
p2248
aS'coconut'
p2249
aS'coconut meat'
p2250
aS'convenience food'
p2251
aS'dika bread'
p2252
aS'fish'
p2253
aS'fresh food'
p2254
aS'fresh foods'
p2255
aS'health food'
p2256
aS'junk food'
p2257
aS'leftovers'
p2258
aS'loaf'
p2259
aS'meat'
p2260
aS'pasta'
p2261
aS'alimentary paste'
p2262
aS'produce'
p2263
aS'green goods'
p2264
aS'green groceries'
p2265
aS'garden truck'
p2266
aS'seafood'
p2267
aS'slop'
p2268
aS'yogurt'
p2269
aS'yoghurt'
p2270
aS'yoghourt'
p2271
aS'bread'
p2272
aS'breadstuff'
p2273
aS'staff of life'
p2274
aS'cake'
p2275
aS'pastry'
p2276
aS'cereal'
p2277
aS'muesli'
p2278
aS'brown butter'
p2279
aS'beurre noisette'
p2280
aS'clarified butter'
p2281
aS'drawn butter'
p2282
aS'meuniere butter'
p2283
aS'lemon butter'
p2284
aS'stick'
p2285
aS'yak butter'
p2286
aS'bleu'
p2287
aS'blue cheese'
p2288
aS'brick cheese'
p2289
aS'brie'
p2290
aS'camembert'
p2291
aS'cheddar'
p2292
aS'cheddar cheese'
p2293
aS'armerican cheddar'
p2294
aS'american cheese'
p2295
aS'cheshire cheese'
p2296
aS'cottage cheese'
p2297
aS'pot cheese'
p2298
aS'farm cheese'
p2299
aS"farmer's cheese"
p2300
aS'cream cheese'
p2301
aS'double gloucester'
p2302
aS'edam'
p2303
aS'goat cheese'
p2304
aS'chevre'
p2305
aS'gouda'
p2306
aS'gouda cheese'
p2307
aS'grated cheese'
p2308
aS'hand cheese'
p2309
aS'liederkranz'
p2310
aS'limburger'
p2311
aS'mozzarella'
p2312
aS'muenster'
p2313
aS'parmesan'
p2314
aS'process cheese'
p2315
aS'processed cheese'
p2316
aS'quark cheese'
p2317
aS'quark'
p2318
aS'ricotta'
p2319
aS'string cheese'
p2320
aS'swiss cheese'
p2321
aS'triple cream'
p2322
aS'triple creme'
p2323
aS'velveeta'
p2324
aS'bitter chocolate'
p2325
aS'baking chocolate'
p2326
aS'cooking chocolate'
p2327
aS'bittersweet chocolate'
p2328
aS'semi-sweet chocolate'
p2329
aS'dark chocolate'
p2330
aS'chocolate candy'
p2331
aS'chocolate liquor'
p2332
aS'cocoa butter'
p2333
aS'cocoa powder'
p2334
aS'couverture'
p2335
aS'milk chocolate'
p2336
aS'white chocolate'
p2337
aS'copra'
p2338
aS'delicatessen'
p2339
aS'delicatessen food'
p2340
aS'ready-mix'
p2341
aS'takeout'
p2342
aS'takeout food'
p2343
aS'takeaway'
p2344
aS'tv dinner'
p2345
aS'alewife'
p2346
aS'anchovy'
p2347
aS'eel'
p2348
aS'haddock'
p2349
aS'hake'
p2350
aS'mullet'
p2351
aS'grey mullet'
p2352
aS'gray mullet'
p2353
aS'panfish'
p2354
aS'rock salmon'
p2355
aS'salmon'
p2356
aS'schrod'
p2357
aS'scrod'
p2358
aS'shad'
p2359
aS'smelt'
p2360
aS'stockfish'
p2361
aS'trout'
p2362
aS'haslet'
p2363
aS'headcheese'
p2364
aS'lunch meat'
p2365
aS'luncheon meat'
p2366
aS'pound cake'
p2367
aS'scrapple'
p2368
aS'sugarloaf'
p2369
aS'sugar loaf'
p2370
aS'loaf sugar'
p2371
aS'beef'
p2372
aS'boeuf'
p2373
aS'bird'
p2374
aS'fowl'
p2375
aS'carbonado'
p2376
aS'cold cuts'
p2377
aS'cut'
p2378
aS'cut of meat'
p2379
aS'dark meat'
p2380
aS'escargot'
p2381
aS'snail'
p2382
aS'game'
p2383
aS'halal'
p2384
aS'horsemeat'
p2385
aS'horseflesh'
p2386
aS'jerky'
p2387
aS'jerked meat'
p2388
aS'jerk'
p2389
aS'lamb'
p2390
aS'mouton'
p2391
aS'mutton'
p2392
aS'pemmican'
p2393
aS'pemican'
p2394
aS'pork'
p2395
aS'porc'
p2396
aS'raw meat'
p2397
aS'red meat'
p2398
aS'sausage'
p2399
aS'sausage meat'
p2400
aS'stew meat'
p2401
aS'variety meat'
p2402
aS'organs'
p2403
aS'veal'
p2404
aS'veau'
p2405
aS'couscous'
p2406
aS'dumpling'
p2407
aS'dumplings'
p2408
aS'farfalle'
p2409
aS'bowtie pasta'
p2410
aS'fedelline'
p2411
aS'fettuccine'
p2412
aS'fettuccini'
p2413
aS'lasagna'
p2414
aS'lasagne'
p2415
aS'linguine'
p2416
aS'linguini'
p2417
aS'macaroni'
p2418
aS'manicotti'
p2419
aS'mostaccioli'
p2420
aS'noodle'
p2421
aS'orzo'
p2422
aS'penne'
p2423
aS'ravioli'
p2424
aS'cappelletti'
p2425
aS'rigatoni'
p2426
aS'spaghetti'
p2427
aS'spaghettini'
p2428
aS'tagliatelle'
p2429
aS'tortellini'
p2430
aS'vermicelli'
p2431
aS'ziti'
p2432
aS'eater'
p2433
aS'edible fruit'
p2434
aS'vegetable'
p2435
aS'veggie'
p2436
aS'veg'
p2437
aS'freshwater fish'
p2438
aS'milt'
p2439
aS'soft roe'
p2440
aS'octopus'
p2441
aS'periwinkle'
p2442
aS'winkle'
p2443
aS'prawn'
p2444
aS'shrimp'
p2445
aS'roe'
p2446
aS'hard roe'
p2447
aS'saltwater fish'
p2448
aS'shellfish'
p2449
aS'squid'
p2450
aS'calamari'
p2451
aS'calamary'
p2452
aS'whelk'
p2453
aS'whitefish'
p2454
aS'blueberry yogurt'
p2455
aS'frozen yogurt'
p2456
aS'anadama bread'
p2457
aS'bap'
p2458
aS'barmbrack'
p2459
aS'breadstick'
p2460
aS'bread-stick'
p2461
aS'brown bread'
p2462
aS'boston brown bread'
p2463
aS'bun'
p2464
aS'roll'
p2465
aS'caraway seed bread'
p2466
aS'challah'
p2467
aS'hallah'
p2468
aS'cinnamon bread'
p2469
aS'cracked-wheat bread'
p2470
aS'cracker'
p2471
aS'crouton'
p2472
aS'dark bread'
p2473
aS'whole wheat bread'
p2474
aS'whole meal bread'
p2475
aS'brown bread'
p2476
aS'english muffin'
p2477
aS'flatbread'
p2478
aS'garlic bread'
p2479
aS'gluten bread'
p2480
aS'host'
p2481
aS'loaf of bread'
p2482
aS'loaf'
p2483
aS'matzo'
p2484
aS'matzoh'
p2485
aS'matzah'
p2486
aS'unleavened bread'
p2487
aS'nan'
p2488
aS'naan'
p2489
aS'onion bread'
p2490
aS'quick bread'
p2491
aS'raisin bread'
p2492
aS'rye bread'
p2493
aS'salt-rising bread'
p2494
aS'simnel'
p2495
aS'sour bread'
p2496
aS'sourdough bread'
p2497
aS'toast'
p2498
aS'wafer'
p2499
aS'white bread'
p2500
aS'light bread'
p2501
aS'applesauce cake'
p2502
aS'baba'
p2503
aS'birthday cake'
p2504
aS'boston cream pie'
p2505
aS'cheesecake'
p2506
aS'chiffon cake'
p2507
aS'chocolate cake'
p2508
aS'coconut cake'
p2509
aS'coffeecake'
p2510
aS'coffee cake'
p2511
aS'cookie'
p2512
aS'cooky'
p2513
aS'biscuit'
p2514
aS'crumb cake'
p2515
aS'crumpet'
p2516
aS'cupcake'
p2517
aS'eccles cake'
p2518
aS'friedcake'
p2519
aS'fruitcake'
p2520
aS'gateau'
p2521
aS'genoise'
p2522
aS'gingerbread'
p2523
aS'honey cake'
p2524
aS'jumble'
p2525
aS'jumbal'
p2526
aS'layer cake'
p2527
aS'marble cake'
p2528
aS'pancake'
p2529
aS'battercake'
p2530
aS'flannel cake'
p2531
aS'flannel-cake'
p2532
aS'flapcake'
p2533
aS'flapjack'
p2534
aS'griddlecake'
p2535
aS'hotcake'
p2536
aS'hot cake'
p2537
aS'petit four'
p2538
aS'prune cake'
p2539
aS'rock cake'
p2540
aS'savarin'
p2541
aS'seedcake'
p2542
aS'seed cake'
p2543
aS'spice cake'
p2544
aS'sponge cake'
p2545
aS'teacake'
p2546
aS'torte'
p2547
aS'upside-down cake'
p2548
aS'skillet cake'
p2549
aS'victoria sandwich'
p2550
aS'victoria sponge'
p2551
aS'waffle'
p2552
aS'wedding cake'
p2553
aS'bridecake'
p2554
aS'white cake'
p2555
aS'baklava'
p2556
aS'dowdy'
p2557
aS'pandowdy'
p2558
aS'frangipane'
p2559
aS'french pastry'
p2560
aS'patty shell'
p2561
aS'bouchee'
p2562
aS'pie'
p2563
aS'pie crust'
p2564
aS'pie shell'
p2565
aS'profiterole'
p2566
aS'puff'
p2567
aS'rugulah'
p2568
aS'rugelach'
p2569
aS'ruggelach'
p2570
aS'sausage roll'
p2571
aS'streusel'
p2572
aS'strudel'
p2573
aS'tart'
p2574
aS'timbale'
p2575
aS'timbale case'
p2576
aS'toad-in-the-hole'
p2577
aS'vol-au-vent'
p2578
aS'cold cereal'
p2579
aS'dry cereal'
p2580
aS'hot cereal'
p2581
aS'pablum'
p2582
aS'ghee'
p2583
aS'bavarian blue'
p2584
aS'danish blue'
p2585
aS'gorgonzola'
p2586
aS'roquefort'
p2587
aS'stilton'
p2588
aS'rat cheese'
p2589
aS'store cheese'
p2590
aS'double cream'
p2591
aS'mascarpone'
p2592
aS'emmenthal'
p2593
aS'emmental'
p2594
aS'emmenthaler'
p2595
aS'emmentaler'
p2596
aS'gruyere'
p2597
aS'sapsago'
p2598
aS'choc'
p2599
aS'chocolate bar'
p2600
aS'chocolate kiss'
p2601
aS'jimmies'
p2602
aS'sprinkles'
p2603
aS'nonpareil'
p2604
aS'dutch-processed cocoa'
p2605
aS'brownie mix'
p2606
aS'cake mix'
p2607
aS'lemonade mix'
p2608
aS'elver'
p2609
aS'smoked eel'
p2610
aS'finnan haddie'
p2611
aS'finnan haddock'
p2612
aS'finnan'
p2613
aS'smoked haddock'
p2614
aS'atlantic salmon'
p2615
aS'chinook salmon'
p2616
aS'chinook'
p2617
aS'king salmon'
p2618
aS'kippered salmon'
p2619
aS'red salmon'
p2620
aS'sockeye'
p2621
aS'sockeye salmon'
p2622
aS'silver salmon'
p2623
aS'coho salmon'
p2624
aS'coho'
p2625
aS'cohoe'
p2626
aS'smoked salmon'
p2627
aS'american smelt'
p2628
aS'rainbow smelt'
p2629
aS'european smelt'
p2630
aS'sparling'
p2631
aS'rainbow trout'
p2632
aS'sea trout'
p2633
aS'salmon trout'
p2634
aS'bully beef'
p2635
aS'corned beef'
p2636
aS'corn beef'
p2637
aS'ground beef'
p2638
aS'hamburger'
p2639
aS'pastrami'
p2640
aS'poultry'
p2641
aS'wildfowl'
p2642
aS'brisket'
p2643
aS'chine'
p2644
aS'chop'
p2645
aS'confit'
p2646
aS'cut of beef'
p2647
aS'cut of lamb'
p2648
aS'cut of mutton'
p2649
aS'cut of pork'
p2650
aS'cut of veal'
p2651
aS'entrecote'
p2652
aS'forequarter'
p2653
aS'hindquarter'
p2654
aS'leg'
p2655
aS'loin'
p2656
aS'neck'
p2657
aS'rack'
p2658
aS'rib'
p2659
aS'roast'
p2660
aS'joint'
p2661
aS'saddle'
p2662
aS'shank'
p2663
aS'shin'
p2664
aS'shin bone'
p2665
aS'shoulder'
p2666
aS'side'
p2667
aS'side of meat'
p2668
aS'sirloin'
p2669
aS'steak'
p2670
aS'tenderloin'
p2671
aS'undercut'
p2672
aS'buffalo'
p2673
aS'rabbit'
p2674
aS'hare'
p2675
aS'venison'
p2676
aS'beef jerky'
p2677
aS'biltong'
p2678
aS'cochon de lait'
p2679
aS'suckling pig'
p2680
aS"pigs' feet"
p2681
aS"pigs' knuckles"
p2682
aS'salt pork'
p2683
aS'gobbet'
p2684
aS'blood sausage'
p2685
aS'blood pudding'
p2686
aS'black pudding'
p2687
aS'bologna'
p2688
aS'bologna sausage'
p2689
aS'chipolata'
p2690
aS'chorizo'
p2691
aS'frank'
p2692
aS'frankfurter'
p2693
aS'hotdog'
p2694
aS'hot dog'
p2695
aS'dog'
p2696
aS'wiener'
p2697
aS'wienerwurst'
p2698
aS'weenie'
p2699
aS'knackwurst'
p2700
aS'knockwurst'
p2701
aS'liver pudding'
p2702
aS'liver sausage'
p2703
aS'liverwurst'
p2704
aS'pepperoni'
p2705
aS'pork sausage'
p2706
aS'salami'
p2707
aS'souse'
p2708
aS'brain'
p2709
aS'chitterlings'
p2710
aS'chitlins'
p2711
aS'chitlings'
p2712
aS'giblet'
p2713
aS'giblets'
p2714
aS'heart'
p2715
aS'liver'
p2716
aS'neck sweetbread'
p2717
aS'throat sweetbread'
p2718
aS'offal'
p2719
aS'stomach sweetbread'
p2720
aS'sweetbread'
p2721
aS'sweetbreads'
p2722
aS'tongue'
p2723
aS'tripe'
p2724
aS"calves' feet"
p2725
aS'gnocchi'
p2726
aS'matzo ball'
p2727
aS'matzoh ball'
p2728
aS'matzah ball'
p2729
aS'won ton'
p2730
aS'wonton'
p2731
aS'fettuccine alfredo'
p2732
aS'egg noodle'
p2733
aS'ackee'
p2734
aS'akee'
p2735
aS'anchovy pear'
p2736
aS'river pear'
p2737
aS'apple'
p2738
aS'apricot'
p2739
aS'avocado'
p2740
aS'alligator pear'
p2741
aS'avocado pear'
p2742
aS'aguacate'
p2743
aS'banana'
p2744
aS'barbados gooseberry'
p2745
aS'blade apple'
p2746
aS'berry'
p2747
aS'breadfruit'
p2748
aS'canistel'
p2749
aS'eggfruit'
p2750
aS'carambola'
p2751
aS'star fruit'
p2752
aS'carissa plum'
p2753
aS'natal plum'
p2754
aS'ceriman'
p2755
aS'monstera'
p2756
aS'cherry'
p2757
aS'citrus'
p2758
aS'citrus fruit'
p2759
aS'citrous fruit'
p2760
aS'cling'
p2761
aS'clingstone'
p2762
aS'cocoa plum'
p2763
aS'coco plum'
p2764
aS'icaco'
p2765
aS'custard apple'
p2766
aS'date'
p2767
aS'dried fruit'
p2768
aS'durian'
p2769
aS'elderberry'
p2770
aS'feijoa'
p2771
aS'pineapple guava'
p2772
aS'fig'
p2773
aS'freestone'
p2774
aS'garambulla'
p2775
aS'genip'
p2776
aS'spanish lime'
p2777
aS'genipap'
p2778
aS'genipap fruit'
p2779
aS'grape'
p2780
aS'guava'
p2781
aS'hog plum'
p2782
aS'wild plum'
p2783
aS'hog plum'
p2784
aS'yellow mombin'
p2785
aS'jaboticaba'
p2786
aS'jackfruit'
p2787
aS'jak'
p2788
aS'jack'
p2789
aS'jujube'
p2790
aS'chinese date'
p2791
aS'chinese jujube'
p2792
aS'kai apple'
p2793
aS'ketembilla'
p2794
aS'kitembilla'
p2795
aS'kitambilla'
p2796
aS'kiwi'
p2797
aS'kiwi fruit'
p2798
aS'chinese gooseberry'
p2799
aS'lanseh'
p2800
aS'lansa'
p2801
aS'lansat'
p2802
aS'lanset'
p2803
aS'litchi'
p2804
aS'litchi nut'
p2805
aS'litchee'
p2806
aS'lichi'
p2807
aS'leechee'
p2808
aS'lichee'
p2809
aS'lychee'
p2810
aS'longanberry'
p2811
aS"dragon's eye"
p2812
aS'loquat'
p2813
aS'japanese plum'
p2814
aS'mamey'
p2815
aS'mammee'
p2816
aS'mammee apple'
p2817
aS'mango'
p2818
aS'mangosteen'
p2819
aS'marang'
p2820
aS'medlar'
p2821
aS'medlar'
p2822
aS'melon'
p2823
aS'mombin'
p2824
aS'nectarine'
p2825
aS'papaw'
p2826
aS'pawpaw'
p2827
aS'papaya'
p2828
aS'passion fruit'
p2829
aS'peach'
p2830
aS'pear'
p2831
aS'pineapple'
p2832
aS'ananas'
p2833
aS'pitahaya'
p2834
aS'plum'
p2835
aS'plumcot'
p2836
aS'pomegranate'
p2837
aS'prickly pear'
p2838
aS'pulasan'
p2839
aS'pulassan'
p2840
aS'quandong'
p2841
aS'quandang'
p2842
aS'quantong'
p2843
aS'native peach'
p2844
aS'quince'
p2845
aS'rambutan'
p2846
aS'rambotan'
p2847
aS'rose apple'
p2848
aS'sapodilla'
p2849
aS'sapodilla plum'
p2850
aS'sapota'
p2851
aS'sapote'
p2852
aS'mammee'
p2853
aS'marmalade plum'
p2854
aS'sorb'
p2855
aS'sorb apple'
p2856
aS'sour gourd'
p2857
aS'monkey bread'
p2858
aS'sour gourd'
p2859
aS'tamarind'
p2860
aS'tamarindo'
p2861
aS'tangelo'
p2862
aS'ugli'
p2863
aS'ugli fruit'
p2864
aS'windfall'
p2865
aS'artichoke'
p2866
aS'globe artichoke'
p2867
aS'artichoke heart'
p2868
aS'asparagus'
p2869
aS'bamboo shoot'
p2870
aS'cardoon'
p2871
aS'celery'
p2872
aS'cruciferous vegetable'
p2873
aS'cucumber'
p2874
aS'cuke'
p2875
aS'fennel'
p2876
aS'florence fennel'
p2877
aS'finocchio'
p2878
aS'greens'
p2879
aS'green'
p2880
aS'leafy vegetable'
p2881
aS'gumbo'
p2882
aS'okra'
p2883
aS'julienne'
p2884
aS'julienne vegetable'
p2885
aS'leek'
p2886
aS'legume'
p2887
aS'mushroom'
p2888
aS'onion'
p2889
aS'pieplant'
p2890
aS'rhubarb'
p2891
aS'plantain'
p2892
aS'potherb'
p2893
aS'pumpkin'
p2894
aS'raw vegetable'
p2895
aS'rabbit food'
p2896
aS'root vegetable'
p2897
aS'solanaceous vegetable'
p2898
aS'squash'
p2899
aS'truffle'
p2900
aS'earthnut'
p2901
aS'bream'
p2902
aS'freshwater bream'
p2903
aS'brook trout'
p2904
aS'speckled trout'
p2905
aS'buffalofish'
p2906
aS'carp'
p2907
aS'catfish'
p2908
aS'mudcat'
p2909
aS'freshwater bass'
p2910
aS'bass'
p2911
aS'lake trout'
p2912
aS'perch'
p2913
aS'pike'
p2914
aS'sucker'
p2915
aS'sunfish'
p2916
aS'whitefish'
p2917
aS'river prawn'
p2918
aS'caviar'
p2919
aS'caviare'
p2920
aS'coral'
p2921
aS'shad roe'
p2922
aS'blowfish'
p2923
aS'sea squab'
p2924
aS'puffer'
p2925
aS'pufferfish'
p2926
aS'bluefish'
p2927
aS'bream'
p2928
aS'sea bream'
p2929
aS'butterfish'
p2930
aS'cod'
p2931
aS'codfish'
p2932
aS'croaker'
p2933
aS'cusk'
p2934
aS'dolphinfish'
p2935
aS'mahimahi'
p2936
aS'flatfish'
p2937
aS'grouper'
p2938
aS'herring'
p2939
aS'kingfish'
p2940
aS'lingcod'
p2941
aS'mackerel'
p2942
aS'monkfish'
p2943
aS'pollack'
p2944
aS'pollock'
p2945
aS'pompano'
p2946
aS'porgy'
p2947
aS'scup'
p2948
aS'red rockfish'
p2949
aS'rockfish'
p2950
aS'sailfish'
p2951
aS'sardine'
p2952
aS'pilchard'
p2953
aS'scup'
p2954
aS'sea bass'
p2955
aS'bass'
p2956
aS'snapper'
p2957
aS'swordfish'
p2958
aS'tuna'
p2959
aS'tuna fish'
p2960
aS'tunny'
p2961
aS'weakfish'
p2962
aS'whiting'
p2963
aS'whiting'
p2964
aS'clam'
p2965
aS'cockle'
p2966
aS'crab'
p2967
aS'crabmeat'
p2968
aS'crayfish'
p2969
aS'crawfish'
p2970
aS'crawdad'
p2971
aS'ecrevisse'
p2972
aS'huitre'
p2973
aS'oyster'
p2974
aS'limpet'
p2975
aS'lobster'
p2976
aS'mussel'
p2977
aS'scallop'
p2978
aS'scollop'
p2979
aS'escallop'
p2980
aS'spiny lobster'
p2981
aS'langouste'
p2982
aS'rock lobster'
p2983
aS'crayfish'
p2984
aS'grissino'
p2985
aS'bagel'
p2986
aS'beigel'
p2987
aS'brioche'
p2988
aS'clover-leaf roll'
p2989
aS'crescent roll'
p2990
aS'croissant'
p2991
aS'frankfurter bun'
p2992
aS'hotdog bun'
p2993
aS'hamburger bun'
p2994
aS'hamburger roll'
p2995
aS'hard roll'
p2996
aS'vienna roll'
p2997
aS'kaiser roll'
p2998
aS'onion roll'
p2999
aS'parker house roll'
p3000
aS'soft roll'
p3001
aS'sweet roll'
p3002
aS'coffee roll'
p3003
aS'tea bread'
p3004
aS'graham cracker'
p3005
aS'oyster cracker'
p3006
aS'pretzel'
p3007
aS'saltine'
p3008
aS'soda cracker'
p3009
aS'water biscuit'
p3010
aS'graham bread'
p3011
aS'bannock'
p3012
aS'chapatti'
p3013
aS'chapati'
p3014
aS'flatbrod'
p3015
aS'pita'
p3016
aS'pocket bread'
p3017
aS'french loaf'
p3018
aS'meat loaf'
p3019
aS'meatloaf'
p3020
aS'banana bread'
p3021
aS'biscuit'
p3022
aS'cornbread'
p3023
aS'date-nut bread'
p3024
aS'date bread'
p3025
aS'irish soda bread'
p3026
aS'muffin'
p3027
aS'gem'
p3028
aS'nut bread'
p3029
aS'oatcake'
p3030
aS'scone'
p3031
aS'skillet bread'
p3032
aS'fry bread'
p3033
aS'yorkshire pudding'
p3034
aS'black bread'
p3035
aS'pumpernickel'
p3036
aS'jewish rye bread'
p3037
aS'jewish rye'
p3038
aS'limpa'
p3039
aS'swedish rye bread'
p3040
aS'swedish rye'
p3041
aS'cinnamon toast'
p3042
aS'melba toast'
p3043
aS'orange toast'
p3044
aS'zwieback'
p3045
aS'rusk'
p3046
aS'brussels biscuit'
p3047
aS'twice-baked bread'
p3048
aS'french bread'
p3049
aS'italian bread'
p3050
aS'baba au rhum'
p3051
aS'rum baba'
p3052
aS"devil's food"
p3053
aS"devil's food cake"
p3054
aS'babka'
p3055
aS'coffee ring'
p3056
aS'almond cookie'
p3057
aS'almond crescent'
p3058
aS'anise cookie'
p3059
aS'brownie'
p3060
aS'butter cookie'
p3061
aS'chocolate chip cookie'
p3062
aS'toll house cookie'
p3063
aS'dog biscuit'
p3064
aS'fortune cookie'
p3065
aS'fruit bar'
p3066
aS'gingerbread man'
p3067
aS'gingersnap'
p3068
aS'ginger snap'
p3069
aS'snap'
p3070
aS'ginger nut'
p3071
aS'granola bar'
p3072
aS'kiss'
p3073
aS'ladyfinger'
p3074
aS'macaroon'
p3075
aS'molasses cookie'
p3076
aS'oatmeal cookie'
p3077
aS'oreo'
p3078
aS'oreo cookie'
p3079
aS'raisin-nut cookie'
p3080
aS'raisin cookie'
p3081
aS'refrigerator cookie'
p3082
aS'spice cookie'
p3083
aS'sugar cookie'
p3084
aS'teacake'
p3085
aS'tea biscuit'
p3086
aS'wafer'
p3087
aS'cruller'
p3088
aS'twister'
p3089
aS'doughboy'
p3090
aS'doughnut'
p3091
aS'donut'
p3092
aS'sinker'
p3093
aS'french fritter'
p3094
aS'beignet'
p3095
aS'fritter'
p3096
aS'christmas cake'
p3097
aS'simnel'
p3098
aS'blini'
p3099
aS'bliny'
p3100
aS'blintz'
p3101
aS'blintze'
p3102
aS'buckwheat cake'
p3103
aS'buttermilk pancake'
p3104
aS'crape'
p3105
aS'crepe'
p3106
aS'french pancake'
p3107
aS'pfannkuchen'
p3108
aS'german pancake'
p3109
aS'potato pancake'
p3110
aS'latke'
p3111
aS'tortilla'
p3112
aS'angel cake'
p3113
aS'angel food cake'
p3114
aS'jellyroll'
p3115
aS'swiss roll'
p3116
aS'madeira cake'
p3117
aS'madeira sponge'
p3118
aS'twinkie'
p3119
aS'sally lunn'
p3120
aS'belgian waffle'
p3121
aS'napoleon'
p3122
aS'apple pie'
p3123
aS'blueberry pie'
p3124
aS'deep-dish pie'
p3125
aS'cobbler'
p3126
aS'lemon meringue pie'
p3127
aS'meat pie'
p3128
aS'mince pie'
p3129
aS'patty'
p3130
aS'pecan pie'
p3131
aS'pumpkin pie'
p3132
aS'rhubarb pie'
p3133
aS'shoofly pie'
p3134
aS'squash pie'
p3135
aS'tart'
p3136
aS'cream puff'
p3137
aS'chou'
p3138
aS'apple tart'
p3139
aS'bran flake'
p3140
aS'corn flake'
p3141
aS'granola'
p3142
aS'puffed rice'
p3143
aS'puffed wheat'
p3144
aS'raisin bran'
p3145
aS'wheatflake'
p3146
aS'frumenty'
p3147
aS'grits'
p3148
aS'hominy grits'
p3149
aS'kasha'
p3150
aS'mush'
p3151
aS'cornmeal mush'
p3152
aS'hershey bar'
p3153
aS'lox'
p3154
aS'chicken'
p3155
aS'poulet'
p3156
aS'volaille'
p3157
aS'duck'
p3158
aS'goose'
p3159
aS'guinea hen'
p3160
aS'rock cornish hen'
p3161
aS'squab'
p3162
aS'dove'
p3163
aS'turkey'
p3164
aS'grouse'
p3165
aS'partridge'
p3166
aS'pheasant'
p3167
aS'quail'
p3168
aS'lamb chop'
p3169
aS'lamb-chop'
p3170
aS'lambchop'
p3171
aS'mutton chop'
p3172
aS'porkchop'
p3173
aS'aitchbone'
p3174
aS'beef loin'
p3175
aS'beef neck'
p3176
aS'blade'
p3177
aS'chuck'
p3178
aS'chuck short ribs'
p3179
aS'flank'
p3180
aS'flat bone'
p3181
aS'pin bone'
p3182
aS'plate'
p3183
aS'round'
p3184
aS'rump'
p3185
aS'short ribs'
p3186
aS'sirloin tip'
p3187
aS'wedge bone'
p3188
aS'breast of lamb'
p3189
aS"poitrine d'agneau"
p3190
aS'loin of lamb'
p3191
aS'saddle of lamb'
p3192
aS'scrag'
p3193
aS'bacon'
p3194
aS'ham'
p3195
aS'jambon'
p3196
aS'gammon'
p3197
aS'picnic ham'
p3198
aS'picnic shoulder'
p3199
aS'pork loin'
p3200
aS'spareribs'
p3201
aS'scrag'
p3202
aS'scrag end'
p3203
aS'ham hock'
p3204
aS'leg of lamb'
p3205
aS'gigot'
p3206
aS'rack of lamb'
p3207
aS'crown roast'
p3208
aS'sparerib'
p3209
aS'beef roast'
p3210
aS'roast beef'
p3211
aS'blade roast'
p3212
aS'lamb roast'
p3213
aS'roast lamb'
p3214
aS'pork roast'
p3215
aS'roast pork'
p3216
aS'pot roast'
p3217
aS'rib roast'
p3218
aS'standing rib roast'
p3219
aS'rump roast'
p3220
aS'top round'
p3221
aS'veal roast'
p3222
aS'roast veal'
p3223
aS'foreshank'
p3224
aS'hindshank'
p3225
aS'side of beef'
p3226
aS'side of pork'
p3227
aS'beefsteak'
p3228
aS'fish steak'
p3229
aS'beef tenderloin'
p3230
aS'pork tenderloin'
p3231
aS'fatback'
p3232
aS'sowbelly'
p3233
aS'polony'
p3234
aS'vienna sausage'
p3235
aS'banger'
p3236
aS'bratwurst'
p3237
aS'brat'
p3238
aS'linguica'
p3239
aS'saveloy'
p3240
aS"calf's brain"
p3241
aS"calves' liver"
p3242
aS"calf's liver"
p3243
aS'chicken liver'
p3244
aS'goose liver'
p3245
aS'tomalley'
p3246
aS'beef tongue'
p3247
aS"calf's tongue"
p3248
aS'honeycomb tripe'
p3249
aS'cooking apple'
p3250
aS'crab apple'
p3251
aS'crabapple'
p3252
aS'eating apple'
p3253
aS'dessert apple'
p3254
aS'acerola'
p3255
aS'barbados cherry'
p3256
aS'surinam cherry'
p3257
aS'west indian cherry'
p3258
aS'bilberry'
p3259
aS'whortleberry'
p3260
aS'european blueberry'
p3261
aS'blackberry'
p3262
aS'blueberry'
p3263
aS'boysenberry'
p3264
aS'cranberry'
p3265
aS'currant'
p3266
aS'dewberry'
p3267
aS'huckleberry'
p3268
aS'lingonberry'
p3269
aS'mountain cranberry'
p3270
aS'cowberry'
p3271
aS'lowbush cranberry'
p3272
aS'loganberry'
p3273
aS'mulberry'
p3274
aS'persimmon'
p3275
aS'raspberry'
p3276
aS'saskatoon'
p3277
aS'serviceberry'
p3278
aS'shadberry'
p3279
aS'juneberry'
p3280
aS'strawberry'
p3281
aS'sugarberry'
p3282
aS'hackberry'
p3283
aS'wintergreen'
p3284
aS'boxberry'
p3285
aS'checkerberry'
p3286
aS'teaberry'
p3287
aS'spiceberry'
p3288
aS'capulin'
p3289
aS'mexican black cherry'
p3290
aS'sour cherry'
p3291
aS'sweet cherry'
p3292
aS'black cherry'
p3293
aS'citrange'
p3294
aS'citron'
p3295
aS'grapefruit'
p3296
aS'kumquat'
p3297
aS'lemon'
p3298
aS'lime'
p3299
aS'mandarin'
p3300
aS'mandarin orange'
p3301
aS'orange'
p3302
aS'pomelo'
p3303
aS'shaddock'
p3304
aS"bullock's heart"
p3305
aS'jamaica apple'
p3306
aS'cherimoya'
p3307
aS'cherimolla'
p3308
aS'ilama'
p3309
aS'pond apple'
p3310
aS'soursop'
p3311
aS'guanabana'
p3312
aS'sweetsop'
p3313
aS'annon'
p3314
aS'sugar apple'
p3315
aS'dried apricot'
p3316
aS'prune'
p3317
aS'raisin'
p3318
aS'muscadine'
p3319
aS'bullace grape'
p3320
aS'slipskin grape'
p3321
aS'vinifera grape'
p3322
aS'melon ball'
p3323
aS'muskmelon'
p3324
aS'sweet melon'
p3325
aS'watermelon'
p3326
aS'bell apple'
p3327
aS'sweet cup'
p3328
aS'water lemon'
p3329
aS'yellow granadilla'
p3330
aS'granadilla'
p3331
aS'sweet calabash'
p3332
aS'anjou'
p3333
aS'bartlett'
p3334
aS'bartlett pear'
p3335
aS'bosc'
p3336
aS'seckel'
p3337
aS'seckel pear'
p3338
aS'beach plum'
p3339
aS'damson'
p3340
aS'damson plum'
p3341
aS'greengage'
p3342
aS'greengage plum'
p3343
aS'sloe'
p3344
aS'victoria plum'
p3345
aS'pascal celery'
p3346
aS'paschal celery'
p3347
aS'broccoli'
p3348
aS'broccoli rabe'
p3349
aS'broccoli raab'
p3350
aS'brussels sprouts'
p3351
aS'cabbage'
p3352
aS'chou'
p3353
aS'cauliflower'
p3354
aS'kohlrabi'
p3355
aS'turnip cabbage'
p3356
aS'mustard'
p3357
aS'mustard greens'
p3358
aS'leaf mustard'
p3359
aS'indian mustard'
p3360
aS'radish'
p3361
aS'turnip'
p3362
aS'gherkin'
p3363
aS'beet green'
p3364
aS'chard'
p3365
aS'swiss chard'
p3366
aS'spinach beet'
p3367
aS'leaf beet'
p3368
aS'chop-suey greens'
p3369
aS'dandelion green'
p3370
aS'french sorrel'
p3371
aS"lamb's-quarter"
p3372
aS'pigweed'
p3373
aS'wild spinach'
p3374
aS'salad green'
p3375
aS'salad greens'
p3376
aS'sorrel'
p3377
aS'common sorrel'
p3378
aS'spinach'
p3379
aS'sprout'
p3380
aS'turnip greens'
p3381
aS'wild spinach'
p3382
aS'bean'
p3383
aS'edible bean'
p3384
aS'black-eyed pea'
p3385
aS'cowpea'
p3386
aS'chickpea'
p3387
aS'garbanzo'
p3388
aS'lentil'
p3389
aS'pea'
p3390
aS'pulse'
p3391
aS'bermuda onion'
p3392
aS'green onion'
p3393
aS'spring onion'
p3394
aS'scallion'
p3395
aS'shallot'
p3396
aS'spanish onion'
p3397
aS'vidalia onion'
p3398
aS'beet'
p3399
aS'beetroot'
p3400
aS'carrot'
p3401
aS'celeriac'
p3402
aS'celery root'
p3403
aS'jerusalem artichoke'
p3404
aS'sunchoke'
p3405
aS'parsnip'
p3406
aS'potato'
p3407
aS'white potato'
p3408
aS'irish potato'
p3409
aS'murphy'
p3410
aS'spud'
p3411
aS'tater'
p3412
aS'salsify'
p3413
aS'sweet potato'
p3414
aS'taro'
p3415
aS'taro root'
p3416
aS'cocoyam'
p3417
aS'dasheen'
p3418
aS'edda'
p3419
aS'yam'
p3420
aS'eggplant'
p3421
aS'aubergine'
p3422
aS'mad apple'
p3423
aS'pepper'
p3424
aS'tomatillo'
p3425
aS'husk tomato'
p3426
aS'mexican husk tomato'
p3427
aS'tomato'
p3428
aS'summer squash'
p3429
aS'winter squash'
p3430
aS'largemouth bass'
p3431
aS'smallmouth bass'
p3432
aS'muskellunge'
p3433
aS'pickerel'
p3434
aS'crappie'
p3435
aS'lake herring'
p3436
aS'cisco'
p3437
aS'beluga caviar'
p3438
aS'fugu'
p3439
aS'salt cod'
p3440
aS'flounder'
p3441
aS'halibut'
p3442
aS'sole'
p3443
aS'fillet of sole'
p3444
aS'bloater'
p3445
aS'kipper'
p3446
aS'kippered herring'
p3447
aS'pickled herring'
p3448
aS'red herring'
p3449
aS'smoked herring'
p3450
aS'sprat'
p3451
aS'brisling'
p3452
aS'whitebait'
p3453
aS'smoked mackerel'
p3454
aS'spanish mackerel'
p3455
aS'redfish'
p3456
aS'rosefish'
p3457
aS'ocean perch'
p3458
aS'striped bass'
p3459
aS'striper'
p3460
aS'red snapper'
p3461
aS'albacore'
p3462
aS'bluefin'
p3463
aS'bluefin tuna'
p3464
aS'bonito'
p3465
aS'quahaug'
p3466
aS'quahog'
p3467
aS'hard-shell clam'
p3468
aS'round clam'
p3469
aS'soft-shell clam'
p3470
aS'steamer'
p3471
aS'steamer clam'
p3472
aS'long-neck clam'
p3473
aS'alaska king crab'
p3474
aS'alaskan king crab'
p3475
aS'king crab'
p3476
aS'alaska crab'
p3477
aS'blue crab'
p3478
aS'crab legs'
p3479
aS'dungeness crab'
p3480
aS'japanese crab'
p3481
aS'soft-shell crab'
p3482
aS'soft-shelled crab'
p3483
aS'stone crab'
p3484
aS'bluepoint'
p3485
aS'blue point'
p3486
aS'oysters rockefeller'
p3487
aS'american lobster'
p3488
aS'northern lobster'
p3489
aS'maine lobster'
p3490
aS'european lobster'
p3491
aS'lobster tail'
p3492
aS'norwegian lobster'
p3493
aS'langoustine'
p3494
aS'scampo'
p3495
aS'bay scallop'
p3496
aS'sea scallop'
p3497
aS'onion bagel'
p3498
aS'bialy'
p3499
aS'bialystoker'
p3500
aS'bear claw'
p3501
aS'bear paw'
p3502
aS'cinnamon roll'
p3503
aS'cinnamon bun'
p3504
aS'cinnamon snail'
p3505
aS'cross bun'
p3506
aS'hot cross bun'
p3507
aS'danish'
p3508
aS'danish pastry'
p3509
aS'honey bun'
p3510
aS'sticky bun'
p3511
aS'caramel bun'
p3512
aS'schnecken'
p3513
aS'pinwheel roll'
p3514
aS'soft pretzel'
p3515
aS'fish loaf'
p3516
aS'baking-powder biscuit'
p3517
aS'buttermilk biscuit'
p3518
aS'soda biscuit'
p3519
aS'drop biscuit'
p3520
aS'hardtack'
p3521
aS'pilot biscuit'
p3522
aS'pilot bread'
p3523
aS'sea biscuit'
p3524
aS'ship biscuit'
p3525
aS'rolled biscuit'
p3526
aS'ashcake'
p3527
aS'ash cake'
p3528
aS'corn tash'
p3529
aS'corn cake'
p3530
aS'corn dab'
p3531
aS'corn dodger'
p3532
aS'dodger'
p3533
aS'cornpone'
p3534
aS'pone'
p3535
aS'hush puppy'
p3536
aS'hushpuppy'
p3537
aS'johnnycake'
p3538
aS'johnny cake'
p3539
aS'journey cake'
p3540
aS'skillet corn bread'
p3541
aS'spoon bread'
p3542
aS'batter bread'
p3543
aS'bran muffin'
p3544
aS'corn muffin'
p3545
aS'popover'
p3546
aS'drop scone'
p3547
aS'griddlecake'
p3548
aS'scotch pancake'
p3549
aS'baguet'
p3550
aS'baguette'
p3551
aS'shortbread'
p3552
aS'shortbread cookie'
p3553
aS'apricot bar'
p3554
aS'date bar'
p3555
aS'brandysnap'
p3556
aS'coconut macaroon'
p3557
aS'ratafia'
p3558
aS'ratafia biscuit'
p3559
aS'raised doughnut'
p3560
aS'apple fritter'
p3561
aS'corn fritter'
p3562
aS'crepe suzette'
p3563
aS'tostada'
p3564
aS'kidney pie'
p3565
aS'pasty'
p3566
aS"shepherd's pie"
p3567
aS'steak and kidney pie'
p3568
aS'tourtiere'
p3569
aS'apple tart'
p3570
aS'lobster tart'
p3571
aS'quiche'
p3572
aS'tartlet'
p3573
aS'eclair'
p3574
aS'atole'
p3575
aS'hasty pudding'
p3576
aS'polenta'
p3577
aS'nova scotia lox'
p3578
aS'nova lox'
p3579
aS'nova scotia salmon'
p3580
aS'nova salmon'
p3581
aS'nova style salmon'
p3582
aS'scandinavian lox'
p3583
aS'broiler'
p3584
aS'capon'
p3585
aS'fryer'
p3586
aS'frier'
p3587
aS'pullet'
p3588
aS'hen'
p3589
aS'roaster'
p3590
aS'spatchcock'
p3591
aS'duckling'
p3592
aS'bacon strip'
p3593
aS'canadian bacon'
p3594
aS'flitch'
p3595
aS'side of bacon'
p3596
aS'gammon'
p3597
aS'prosciutto'
p3598
aS'virginia ham'
p3599
aS'bottom round'
p3600
aS'breast of veal'
p3601
aS'fricandeau'
p3602
aS'pork belly'
p3603
aS'chopped steak'
p3604
aS'chop steak'
p3605
aS'chopsteak'
p3606
aS'hamburger steak'
p3607
aS'beef patty'
p3608
aS'delmonico steak'
p3609
aS'club steak'
p3610
aS'fillet'
p3611
aS'filet'
p3612
aS'flank steak'
p3613
aS'minute steak'
p3614
aS'porterhouse'
p3615
aS'porterhouse steak'
p3616
aS'round steak'
p3617
aS'rump steak'
p3618
aS'sirloin steak'
p3619
aS'strip steak'
p3620
aS'new york strip'
p3621
aS't-bone steak'
p3622
aS'flitch'
p3623
aS"bramley's seedling"
p3624
aS"lane's prince albert"
p3625
aS'newtown wonder'
p3626
aS'rome beauty'
p3627
aS'baldwin'
p3628
aS'cortland'
p3629
aS'delicious'
p3630
aS'empire'
p3631
aS'granny smith'
p3632
aS"grimes' golden"
p3633
aS'jonathan'
p3634
aS'mcintosh'
p3635
aS'northern spy'
p3636
aS'pearmain'
p3637
aS'pippin'
p3638
aS'prima'
p3639
aS'stayman'
p3640
aS'stayman winesap'
p3641
aS'winesap'
p3642
aS'black currant'
p3643
aS'gooseberry'
p3644
aS'red currant'
p3645
aS'amarelle'
p3646
aS'morello'
p3647
aS'bing cherry'
p3648
aS'heart cherry'
p3649
aS'oxheart'
p3650
aS'oxheart cherry'
p3651
aS'key lime'
p3652
aS'clementine'
p3653
aS'satsuma'
p3654
aS'tangerine'
p3655
aS'bitter orange'
p3656
aS'seville orange'
p3657
aS'sour orange'
p3658
aS'sweet orange'
p3659
aS'temple orange'
p3660
aS'currant'
p3661
aS'seeded raisin'
p3662
aS'seedless raisin'
p3663
aS'sultana'
p3664
aS'scuppernong'
p3665
aS'fox grape'
p3666
aS'emperor'
p3667
aS'muscat'
p3668
aS'muscatel'
p3669
aS'muscat grape'
p3670
aS'ribier'
p3671
aS'sultana'
p3672
aS'thompson seedless'
p3673
aS'tokay'
p3674
aS'cantaloup'
p3675
aS'cantaloupe'
p3676
aS'net melon'
p3677
aS'netted melon'
p3678
aS'nutmeg melon'
p3679
aS'winter melon'
p3680
aS'bok choy'
p3681
aS'bok choi'
p3682
aS'chinese cabbage'
p3683
aS'celery cabbage'
p3684
aS'chinese celery'
p3685
aS'head cabbage'
p3686
aS'kale'
p3687
aS'kail'
p3688
aS'cole'
p3689
aS'rutabaga'
p3690
aS'swede'
p3691
aS'swedish turnip'
p3692
aS'yellow turnip'
p3693
aS'white turnip'
p3694
aS'celtuce'
p3695
aS'chicory'
p3696
aS'curly endive'
p3697
aS'chicory escarole'
p3698
aS'endive'
p3699
aS'escarole'
p3700
aS'cress'
p3701
aS'lettuce'
p3702
aS'salad burnet'
p3703
aS'alfalfa sprout'
p3704
aS'bean sprout'
p3705
aS'common bean'
p3706
aS'goa bean'
p3707
aS'soy'
p3708
aS'soybean'
p3709
aS'soya'
p3710
aS'soya bean'
p3711
aS'cajan pea'
p3712
aS'pigeon pea'
p3713
aS'dahl'
p3714
aS'field pea'
p3715
aS'green pea'
p3716
aS'garden pea'
p3717
aS'marrowfat pea'
p3718
aS'purple onion'
p3719
aS'red onion'
p3720
aS'mangel-wurzel'
p3721
aS'sugar beet'
p3722
aS'baked potato'
p3723
aS'french fries'
p3724
aS'french-fried potatoes'
p3725
aS'fries'
p3726
aS'chips'
p3727
aS'home fries'
p3728
aS'home-fried potatoes'
p3729
aS'mashed potato'
p3730
aS'uruguay potato'
p3731
aS'oyster plant'
p3732
aS'vegetable oyster'
p3733
aS'scorzonera'
p3734
aS'black salsify'
p3735
aS'yam'
p3736
aS'hot pepper'
p3737
aS'sweet pepper'
p3738
aS'beefsteak tomato'
p3739
aS'cherry tomato'
p3740
aS'cocozelle'
p3741
aS'marrow'
p3742
aS'vegetable marrow'
p3743
aS'pattypan squash'
p3744
aS'spaghetti squash'
p3745
aS'yellow squash'
p3746
aS'zucchini'
p3747
aS'courgette'
p3748
aS'acorn squash'
p3749
aS'butternut squash'
p3750
aS'cushaw'
p3751
aS'hubbard squash'
p3752
aS'turban squash'
p3753
aS'winter crookneck squash'
p3754
aS'lemon sole'
p3755
aS'winter flounder'
p3756
aS'plaice'
p3757
aS'sand dab'
p3758
aS'turbot'
p3759
aS'yellowtail flounder'
p3760
aS'grey sole'
p3761
aS'gray sole'
p3762
aS'lemon sole'
p3763
aS'english sole'
p3764
aS'rollmops'
p3765
aS'cherrystone'
p3766
aS'cherrystone clam'
p3767
aS'littleneck'
p3768
aS'littleneck clam'
p3769
aS'salmon loaf'
p3770
aS'shortcake'
p3771
aS'hoecake'
p3772
aS'shawnee cake'
p3773
aS'berlin doughnut'
p3774
aS'bismark'
p3775
aS'jelly doughnut'
p3776
aS'fastnacht'
p3777
aS'cornish pasty'
p3778
aS'pork pie'
p3779
aS'quiche lorraine'
p3780
aS'chocolate eclair'
p3781
aS'oven stuffer'
p3782
aS'oven stuffer roaster'
p3783
aS'chateaubriand'
p3784
aS'filet mignon'
p3785
aS'tournedos'
p3786
aS'golden delicious'
p3787
aS'yellow delicious'
p3788
aS'red delicious'
p3789
aS'macoun'
p3790
aS"cox's orange pippin"
p3791
aS'blackheart'
p3792
aS'blackheart cherry'
p3793
aS'jaffa orange'
p3794
aS'navel orange'
p3795
aS'valencia orange'
p3796
aS'catawba'
p3797
aS'concord grape'
p3798
aS'flame tokay'
p3799
aS'casaba'
p3800
aS'casaba melon'
p3801
aS'honeydew'
p3802
aS'honeydew melon'
p3803
aS'persian melon'
p3804
aS'red cabbage'
p3805
aS'savoy cabbage'
p3806
aS'savoy'
p3807
aS'collards'
p3808
aS'collard greens'
p3809
aS'radicchio'
p3810
aS'belgian endive'
p3811
aS'french endive'
p3812
aS'witloof'
p3813
aS'garden cress'
p3814
aS'watercress'
p3815
aS'winter cress'
p3816
aS'butterhead lettuce'
p3817
aS'cos'
p3818
aS'cos lettuce'
p3819
aS'romaine'
p3820
aS'romaine lettuce'
p3821
aS'crisphead lettuce'
p3822
aS'iceberg lettuce'
p3823
aS'iceberg'
p3824
aS'leaf lettuce'
p3825
aS'loose-leaf lettuce'
p3826
aS'black bean'
p3827
aS'turtle bean'
p3828
aS'flageolet'
p3829
aS'haricot'
p3830
aS'fresh bean'
p3831
aS'frijole'
p3832
aS'kidney bean'
p3833
aS'navy bean'
p3834
aS'pea bean'
p3835
aS'white bean'
p3836
aS'pinto bean'
p3837
aS'field soybean'
p3838
aS'snow pea'
p3839
aS'sugar pea'
p3840
aS'split-pea'
p3841
aS'sugar snap pea'
p3842
aS'jacket potato'
p3843
aS'chili'
p3844
aS'chili pepper'
p3845
aS'chilli'
p3846
aS'chilly'
p3847
aS'chile'
p3848
aS'tabasco'
p3849
aS'red pepper'
p3850
aS'bell pepper'
p3851
aS'globe pepper'
p3852
aS'green pepper'
p3853
aS'pimento'
p3854
aS'pimiento'
p3855
aS'plum tomato'
p3856
aS'crookneck'
p3857
aS'crookneck squash'
p3858
aS'summer crookneck'
p3859
aS'buttercup squash'
p3860
aS'bibb lettuce'
p3861
aS'boston lettuce'
p3862
aS'buttercrunch'
p3863
aS'green bean'
p3864
aS'shell bean'
p3865
aS'wax bean'
p3866
aS'yellow bean'
p3867
aS'cayenne'
p3868
aS'cayenne pepper'
p3869
aS'jalapeno'
p3870
aS'jalapeno pepper'
p3871
aS'haricot vert'
p3872
aS'haricots verts'
p3873
aS'french bean'
p3874
aS'kentucky wonder'
p3875
aS'kentucky wonder bean'
p3876
aS'scarlet runner'
p3877
aS'scarlet runner bean'
p3878
aS'runner bean'
p3879
aS'english runner bean'
p3880
aS'snap bean'
p3881
aS'snap'
p3882
aS'string bean'
p3883
aS'fava bean'
p3884
aS'broad bean'
p3885
aS'green soybean'
p3886
aS'lima bean'
p3887
aS'sieva bean'
p3888
aS'butter bean'
p3889
aS'butterbean'
p3890
aS'civet bean'
p3891
aS'chipotle'
p3892
aS'fordhooks'
p3893
aS'almond extract'
p3894
aS'anchovy paste'
p3895
aS'angelica'
p3896
aS'anise'
p3897
aS'aniseed'
p3898
aS'anise seed'
p3899
aS'bouillon cube'
p3900
aS'caraway seed'
p3901
aS'cardamom'
p3902
aS'cardamon'
p3903
aS'cardamum'
p3904
aS'cassareep'
p3905
aS'cayenne'
p3906
aS'cayenne pepper'
p3907
aS'red pepper'
p3908
aS'celery salt'
p3909
aS'celery seed'
p3910
aS'chili powder'
p3911
aS'cola extract'
p3912
aS'condiment'
p3913
aS'coriander'
p3914
aS'coriander seed'
p3915
aS'curry powder'
p3916
aS'dill seed'
p3917
aS'fennel seed'
p3918
aS'fenugreek'
p3919
aS'fenugreek seed'
p3920
aS'garlic'
p3921
aS'ail'
p3922
aS'garlic chive'
p3923
aS'garlic salt'
p3924
aS'ginger'
p3925
aS'gingerroot'
p3926
aS'herb'
p3927
aS'juniper berries'
p3928
aS'lemon extract'
p3929
aS'lemon oil'
p3930
aS'mocha'
p3931
aS'monosodium glutamate'
p3932
aS'msg'
p3933
aS'mustard seed'
p3934
aS'nasturtium'
p3935
aS'onion salt'
p3936
aS'paprika'
p3937
aS'pepper'
p3938
aS'peppercorn'
p3939
aS'peppermint oil'
p3940
aS'poppy seed'
p3941
aS'saffron'
p3942
aS'salt'
p3943
aS'table salt'
p3944
aS'common salt'
p3945
aS'sassafras'
p3946
aS'seasoned salt'
p3947
aS'sesame seed'
p3948
aS'benniseed'
p3949
aS'sour salt'
p3950
aS'spearmint oil'
p3951
aS'spice'
p3952
aS'sweetening'
p3953
aS'sweetener'
p3954
aS'turmeric'
p3955
aS'vanilla'
p3956
aS'vanilla extract'
p3957
aS'vanilla bean'
p3958
aS'wintergreen oil'
p3959
aS'oil of wintergreen'
p3960
aS'catsup'
p3961
aS'ketchup'
p3962
aS'cetchup'
p3963
aS'tomato ketchup'
p3964
aS'chili sauce'
p3965
aS'chutney'
p3966
aS'indian relish'
p3967
aS'cranberry sauce'
p3968
aS'dip'
p3969
aS'duck sauce'
p3970
aS'hoisin sauce'
p3971
aS'horseradish'
p3972
aS'marinade'
p3973
aS'mint sauce'
p3974
aS'mustard'
p3975
aS'table mustard'
p3976
aS'relish'
p3977
aS'salsa'
p3978
aS'sauce'
p3979
aS'soy sauce'
p3980
aS'soy'
p3981
aS'spread'
p3982
aS'paste'
p3983
aS'steak sauce'
p3984
aS'taco sauce'
p3985
aS'vinegar'
p3986
aS'acetum'
p3987
aS'wasabi'
p3988
aS'clove'
p3989
aS'garlic clove'
p3990
aS'angelica'
p3991
aS'basil'
p3992
aS'sweet basil'
p3993
aS'bay leaf'
p3994
aS'borage'
p3995
aS'caraway'
p3996
aS'chervil'
p3997
aS'chives'
p3998
aS'comfrey'
p3999
aS'healing herb'
p4000
aS'coriander'
p4001
aS'chinese parsley'
p4002
aS'cilantro'
p4003
aS'costmary'
p4004
aS'dill'
p4005
aS'dill weed'
p4006
aS'fennel'
p4007
aS'common fennel'
p4008
aS'fines herbes'
p4009
aS'hyssop'
p4010
aS'lemon balm'
p4011
aS'lovage'
p4012
aS'marjoram'
p4013
aS'oregano'
p4014
aS'mint'
p4015
aS'parsley'
p4016
aS'rosemary'
p4017
aS'rue'
p4018
aS'sage'
p4019
aS'savory'
p4020
aS'savoury'
p4021
aS'sweet cicely'
p4022
aS'sweet woodruff'
p4023
aS'waldmeister'
p4024
aS'tarragon'
p4025
aS'estragon'
p4026
aS'tea'
p4027
aS'tea leaf'
p4028
aS'thyme'
p4029
aS'spanish paprika'
p4030
aS'black pepper'
p4031
aS'white pepper'
p4032
aS'allspice'
p4033
aS'chinese anise'
p4034
aS'star anise'
p4035
aS'star aniseed'
p4036
aS'cinnamon'
p4037
aS'clove'
p4038
aS'fennel'
p4039
aS'five spice powder'
p4040
aS'ginger'
p4041
aS'powdered ginger'
p4042
aS'mace'
p4043
aS'nutmeg'
p4044
aS'aspartame'
p4045
aS'honey'
p4046
aS'saccharin'
p4047
aS'sugar'
p4048
aS'refined sugar'
p4049
aS'syrup'
p4050
aS'sirup'
p4051
aS'bean dip'
p4052
aS'cheese dip'
p4053
aS'clam dip'
p4054
aS'guacamole'
p4055
aS'chinese mustard'
p4056
aS'powdered mustard'
p4057
aS'dry mustard'
p4058
aS'chowchow'
p4059
aS'olive'
p4060
aS'piccalilli'
p4061
aS'pickle'
p4062
aS'pickle relish'
p4063
aS'aioli'
p4064
aS'aioli sauce'
p4065
aS'garlic sauce'
p4066
aS'allemande'
p4067
aS'allemande sauce'
p4068
aS'anchovy sauce'
p4069
aS'apricot sauce'
p4070
aS'barbecue sauce'
p4071
aS'bearnaise'
p4072
aS'bercy'
p4073
aS'bercy butter'
p4074
aS'bordelaise'
p4075
aS'bourguignon'
p4076
aS'bourguignon sauce'
p4077
aS'burgundy sauce'
p4078
aS'bread sauce'
p4079
aS'brown sauce'
p4080
aS'sauce espagnole'
p4081
aS'caper sauce'
p4082
aS'chinese brown sauce'
p4083
aS'brown sauce'
p4084
aS'chocolate sauce'
p4085
aS'chocolate syrup'
p4086
aS'cocktail sauce'
p4087
aS'seafood sauce'
p4088
aS'colbert'
p4089
aS'colbert butter'
p4090
aS'curry sauce'
p4091
aS'demiglace'
p4092
aS'demi-glaze'
p4093
aS'dressing'
p4094
aS'salad dressing'
p4095
aS'espagnole'
p4096
aS'sauce espagnole'
p4097
aS'gravy'
p4098
aS'hard sauce'
p4099
aS'hollandaise'
p4100
aS'horseradish sauce'
p4101
aS'sauce albert'
p4102
aS'hot sauce'
p4103
aS'hungarian sauce'
p4104
aS'paprika sauce'
p4105
aS"hunter's sauce"
p4106
aS'sauce chausseur'
p4107
aS'lyonnaise sauce'
p4108
aS'brown onion sauce'
p4109
aS'marchand de vin'
p4110
aS'mushroom wine sauce'
p4111
aS'mole'
p4112
aS'mushroom sauce'
p4113
aS'mustard sauce'
p4114
aS'nantua'
p4115
aS'shrimp sauce'
p4116
aS'newburg sauce'
p4117
aS'peach sauce'
p4118
aS'pepper sauce'
p4119
aS'poivrade'
p4120
aS'pesto'
p4121
aS'plum sauce'
p4122
aS'poulette'
p4123
aS'ravigote'
p4124
aS'ravigotte'
p4125
aS'remoulade sauce'
p4126
aS'smitane'
p4127
aS'snail butter'
p4128
aS'soubise'
p4129
aS'white onion sauce'
p4130
aS'spaghetti sauce'
p4131
aS'pasta sauce'
p4132
aS'tartare sauce'
p4133
aS'tartar sauce'
p4134
aS'veloute'
p4135
aS'white sauce'
p4136
aS'bechamel sauce'
p4137
aS'bechamel'
p4138
aS'wine sauce'
p4139
aS'worcester sauce'
p4140
aS'worcestershire'
p4141
aS'worcestershire sauce'
p4142
aS'anchovy butter'
p4143
aS'cheese spread'
p4144
aS'fishpaste'
p4145
aS'garlic butter'
p4146
aS'hummus'
p4147
aS'humus'
p4148
aS'hommos'
p4149
aS'hoummos'
p4150
aS'humous'
p4151
aS'lobster butter'
p4152
aS'margarine'
p4153
aS'margarin'
p4154
aS'oleo'
p4155
aS'oleomargarine'
p4156
aS'marge'
p4157
aS'marshmallow fluff'
p4158
aS'miso'
p4159
aS'nut butter'
p4160
aS'onion butter'
p4161
aS'pate'
p4162
aS'peanut butter'
p4163
aS'pimento butter'
p4164
aS'shrimp butter'
p4165
aS'tahini'
p4166
aS'tapenade'
p4167
aS'chili vinegar'
p4168
aS'cider vinegar'
p4169
aS'wine vinegar'
p4170
aS'clary sage'
p4171
aS'summer savory'
p4172
aS'summer savoury'
p4173
aS'winter savory'
p4174
aS'winter savoury'
p4175
aS'black tea'
p4176
aS'green tea'
p4177
aS'oolong'
p4178
aS'tea bag'
p4179
aS'stick cinnamon'
p4180
aS'beet sugar'
p4181
aS'brown sugar'
p4182
aS'cane sugar'
p4183
aS'caramel'
p4184
aS'caramelized sugar'
p4185
aS'corn sugar'
p4186
aS'granulated sugar'
p4187
aS'lump sugar'
p4188
aS'sugarloaf'
p4189
aS'sugar loaf'
p4190
aS'loaf sugar'
p4191
aS'corn syrup'
p4192
aS'grenadine'
p4193
aS'maple syrup'
p4194
aS'molasses'
p4195
aS'sorghum'
p4196
aS'sorghum molasses'
p4197
aS'sugar syrup'
p4198
aS'treacle'
p4199
aS'golden syrup'
p4200
aS'black olive'
p4201
aS'ripe olive'
p4202
aS'green olive'
p4203
aS'caper'
p4204
aS'dill pickle'
p4205
aS'gherkin'
p4206
aS'sweet pickle'
p4207
aS'hot-fudge sauce'
p4208
aS'fudge sauce'
p4209
aS'anchovy dressing'
p4210
aS'bleu cheese dressing'
p4211
aS'blue cheese dressing'
p4212
aS'blue cheese dressing'
p4213
aS'roquefort dressing'
p4214
aS'french dressing'
p4215
aS'vinaigrette'
p4216
aS'sauce vinaigrette'
p4217
aS'half-and-half dressing'
p4218
aS'italian dressing'
p4219
aS'lorenzo dressing'
p4220
aS'mayonnaise'
p4221
aS'mayo'
p4222
aS'russian dressing'
p4223
aS'russian mayonnaise'
p4224
aS'salad cream'
p4225
aS'sauce louis'
p4226
aS'thousand island dressing'
p4227
aS'tabasco'
p4228
aS'tabasco sauce'
p4229
aS'bolognese pasta sauce'
p4230
aS'carbonara'
p4231
aS'marinara'
p4232
aS'tomato sauce'
p4233
aS'blanc'
p4234
aS'cheese sauce'
p4235
aS'cream sauce'
p4236
aS'stick'
p4237
aS'duck pate'
p4238
aS'foie gras'
p4239
aS'pate de foie gras'
p4240
aS'congou'
p4241
aS'congo'
p4242
aS'congou tea'
p4243
aS'english breakfast tea'
p4244
aS'darjeeling'
p4245
aS'orange pekoe'
p4246
aS'pekoe'
p4247
aS'souchong'
p4248
aS'soochong'
p4249
aS'hyson'
p4250
aS'demerara'
p4251
aS'demerara sugar'
p4252
aS'powdered sugar'
p4253
aS'bread and butter pickle'
p4254
aS'green mayonnaise'
p4255
aS'sauce verte'
p4256
aS'mornay sauce'
p4257
aS'castor sugar'
p4258
aS'caster sugar'
p4259
aS'icing sugar'
p4260
aS'sesame oil'
p4261
aS'poppy seeds'
p4262
aS'canola oil'
p4263
aS'baking powder'
p4264
aS'cornstarch'
p4265
aS'pecans'
p4266
a.