(dp0
S'decorate-1'
p1
I2
sS'invert-1'
p2
I1
sS'invert-0'
p3
I1
sS'open-0'
p4
I0
sS'plop-0'
p5
I0
sS'use-2'
p6
I37
sS'use-1'
p7
I8
sS'use-0'
p8
I1
sS'flute-2'
p9
I1
sS'flute-0'
p10
I1
sS'flute-1'
p11
I2
sS'decorate-2'
p12
I4
sS'icing-0'
p13
I3
sS'garnish-2'
p14
I36
sS'icing-1'
p15
I0
sS'garnish-0'
p16
I2
sS'garnish-1'
p17
I65
sS'form-2'
p18
I39
sS'form-1'
p19
I33
sS'form-0'
p20
I3
sS'smooth-1'
p21
I9
sS'smooth-0'
p22
I11
sS'tap-2'
p23
I4
sS'smooth-2'
p24
I4
sS'pound-2'
p25
I1
sS'pound-0'
p26
I0
sS'pound-1'
p27
I1
sS'whisk-0'
p28
I0
sS'whisk-1'
p29
I61
sS'whisk-2'
p30
I407
sS'flip-2'
p31
I4
sS'score-2'
p32
I0
sS'score-0'
p33
I0
sS'score-1'
p34
I1
sS'icing-2'
p35
I0
sS'whipped-2'
p36
I0
sS'whipped-1'
p37
I1
sS'whipped-0'
p38
I0
sS'baste-2'
p39
I3
sS'baste-1'
p40
I1
sS'baste-0'
p41
I0
sS'pull-0'
p42
I2
sS'pull-1'
p43
I3
sS'pull-2'
p44
I8
sS'cake-1'
p45
I4
sS'cake-0'
p46
I2
sS'cake-2'
p47
I2
sS'build-1'
p48
I1
sS'spoon-2'
p49
I191
sS'spoon-1'
p50
I51
sS'spoon-0'
p51
I0
sS'arrange-2'
p52
I144
sS'arrange-0'
p53
I1
sS'arrange-1'
p54
I7
sS'shred-2'
p55
I41
sS'shred-0'
p56
I4
sS'shred-1'
p57
I22
sS'crimp-2'
p58
I2
sS'shake-2'
p59
I8
sS'crimp-1'
p60
I3
sS'shake-0'
p61
I1
sS'shake-1'
p62
I24
sS'plop-1'
p63
I0
sS'reserve-2'
p64
I26
sS'flip-1'
p65
I3
sS'reserve-0'
p66
I11
sS'reserve-1'
p67
I32
sS'salt-1'
p68
I1
sS'decorate-0'
p69
I0
sS'salt-2'
p70
I1
sS'prick-1'
p71
I1
sS'prick-0'
p72
I0
sS'prick-2'
p73
I3
sS'cool-2'
p74
I125
sS'split-1'
p75
I3
sS'cool-0'
p76
I147
sS'cool-1'
p77
I124
sS'refrigerate-0'
p78
I52
sS'refrigerate-1'
p79
I173
sS'refrigerate-2'
p80
I130
sS'halve-0'
p81
I0
sS'cheese-0'
p82
I7
sS'line-2'
p83
I46
sS'line-1'
p84
I29
sS'line-0'
p85
I0
sS'sort-1'
p86
I1
sS'sort-0'
p87
I1
sS'sort-2'
p88
I0
sS'grate-1'
p89
I1
sS'grate-0'
p90
I1
sS'grate-2'
p91
I13
sS'cook-1'
p92
I806
sS'cook-0'
p93
I13
sS'cook-2'
p94
I1272
sS'pierce-0'
p95
I0
sS'surround-0'
p96
I0
sS'smoke-1'
p97
I0
sS'microwave-2'
p98
I12
sS'microwave-1'
p99
I5
sS'microwave-0'
p100
I0
sS'halve-2'
p101
I1
sS'tuck-2'
p102
I1
sS'heat-2'
p103
I525
sS'heat-1'
p104
I83
sS'heat-0'
p105
I2
sS'render-2'
p106
I1
sS'render-1'
p107
I0
sS'render-0'
p108
I0
sS'loosen-2'
p109
I1
sS'dip-1'
p110
I1
sS'dip-0'
p111
I1
sS'dip-2'
p112
I60
sS'place-1'
p113
I199
sS'place-0'
p114
I10
sS'spray-1'
p115
I8
sS'spray-0'
p116
I2
sS'trim-1'
p117
I3
sS'trim-0'
p118
I1
sS'trim-2'
p119
I8
sS'ready-1'
p120
I2
sS'ready-0'
p121
I0
sS'ready-2'
p122
I3
sS'scrape-2'
p123
I16
sS'turn-0'
p124
I2
sS'turn-1'
p125
I29
sS'turn-2'
p126
I44
sS'pipe-1'
p127
I9
sS'scrape-1'
p128
I3
sS'pipe-2'
p129
I14
sS'flatten-0'
p130
I0
sS'flatten-1'
p131
I8
sS'flatten-2'
p132
I3
sS'clean-0'
p133
I1
sS'keep-0'
p134
I3
sS'coating-0'
p135
I0
sS'fit-2'
p136
I10
sS'fit-1'
p137
I2
sS'keep-1'
p138
I16
sS'cover-1'
p139
I533
sS'cover-0'
p140
I165
sS'ladle-0'
p141
I0
sS'cover-2'
p142
I169
sS'round-0'
p143
I0
sS'round-1'
p144
I2
sS'round-2'
p145
I0
sS'thread-0'
p146
I0
sS'wash-0'
p147
I2
sS'wash-1'
p148
I6
sS'wash-2'
p149
I0
sS'bring-0'
p150
I2
sS'bring-1'
p151
I343
sS'bring-2'
p152
I710
sS'warm-2'
p153
I8
sS'pinch-0'
p154
I0
sS'pinch-1'
p155
I3
sS'pinch-2'
p156
I8
sS'tear-2'
p157
I8
sS'lie-0'
p158
I0
sS'reshape-2'
p159
I1
sS'open-1'
p160
I2
sS'replace-2'
p161
I3
sS'open-2'
p162
I3
sS'broil-0'
p163
I1
sS'broil-1'
p164
I9
sS'broil-2'
p165
I14
sS'blanch-0'
p166
I0
sS'crumble-2'
p167
I55
sS'crumble-0'
p168
I13
sS'crumble-1'
p169
I41
sS'note-2'
p170
I0
sS'wear-0'
p171
I0
sS'wear-1'
p172
I0
sS'wear-2'
p173
I1
sS'lie-1'
p174
I0
sS'grill-0'
p175
I1
sS'grill-1'
p176
I7
sS'grill-2'
p177
I31
sS'make-2'
p178
I45
sS'make-1'
p179
I1
sS'make-0'
p180
I0
sS'wipe-0'
p181
I0
sS'wipe-1'
p182
I2
sS'wipe-2'
p183
I6
sS'scrape-0'
p184
I0
sS'drain-0'
p185
I502
sS'reshape-0'
p186
I0
sS'reshape-1'
p187
I0
sS'lie-2'
p188
I1
sS'warm-1'
p189
I5
sS'muddle-0'
p190
I0
sS'muddle-1'
p191
I0
sS'muddle-2'
p192
I1
sS'knife-2'
p193
I3
sS'knife-1'
p194
I0
sS'knife-0'
p195
I0
sS'blend-1'
p196
I64
sS'blend-0'
p197
I1
sS'blend-2'
p198
I77
sS'flour-0'
p199
I31
sS'flour-1'
p200
I13
sS'flour-2'
p201
I16
sS'oil-2'
p202
I36
sS'oil-0'
p203
I3
sS'oil-1'
p204
I18
sS'warm-0'
p205
I3
sS'twist-1'
p206
I0
sS'twist-0'
p207
I0
sS'twist-2'
p208
I1
sS'gather-2'
p209
I2
sS'gather-0'
p210
I0
sS'gather-1'
p211
I1
sS'pass-2'
p212
I2
sS'pass-0'
p213
I0
sS'pass-1'
p214
I1
sS'drizzle-0'
p215
I1
sS'pulse-2'
p216
I15
sS'pulse-1'
p217
I9
sS'pulse-0'
p218
I0
sS'check-0'
p219
I0
sS'check-1'
p220
I4
sS'check-2'
p221
I6
sS'simmer-0'
p222
I22
sS'simmer-1'
p223
I226
sS'simmer-2'
p224
I164
sS'sauce-2'
p225
I13
sS'taste-1'
p226
I11
sS'taste-0'
p227
I4
sS'toss-2'
p228
I244
sS'taste-2'
p229
I1
sS'reheat-2'
p230
I6
sS'poke-0'
p231
I0
sS'reheat-0'
p232
I0
sS'reheat-1'
p233
I1
sS'overlap-2'
p234
I1
sS'overlap-1'
p235
I0
sS'poke-1'
p236
I0
sS'surround-2'
p237
I1
sS'fill-2'
p238
I175
sS'fill-0'
p239
I0
sS'fill-1'
p240
I14
sS'invert-2'
p241
I4
sS'smoke-2'
p242
I2
sS'knead-1'
p243
I6
sS'can-1'
p244
I0
sS'rub-1'
p245
I3
sS'rub-0'
p246
I0
sS'rub-2'
p247
I29
sS'stack-0'
p248
I0
sS'stack-1'
p249
I1
sS'stack-2'
p250
I0
sS'store-2'
p251
I13
sS'store-1'
p252
I9
sS'store-0'
p253
I1
sS'can-2'
p254
I8
sS'canned-0'
p255
I0
sS'canned-1'
p256
I0
sS'canned-2'
p257
I1
sS'carve-1'
p258
I0
sS'carve-0'
p259
I0
sS'carve-2'
p260
I1
sS'braise-1'
p261
I0
sS'lower-2'
p262
I12
sS'lower-1'
p263
I7
sS'lower-0'
p264
I0
sS'smoke-0'
p265
I1
sS'pour-2'
p266
I650
sS'pour-1'
p267
I344
sS'pour-0'
p268
I5
sS'work-2'
p269
I4
sS'work-0'
p270
I0
sS'work-1'
p271
I0
sS'shave-0'
p272
I0
sS'scatter-1'
p273
I1
sS'finish-0'
p274
I0
sS'finish-1'
p275
I2
sS'raise-0'
p276
I0
sS'raise-1'
p277
I0
sS'shave-1'
p278
I1
sS'assemble-1'
p279
I0
sS'assemble-0'
p280
I0
sS'assemble-2'
p281
I3
sS'load-1'
p282
I0
sS'shave-2'
p283
I0
sS'top-2'
p284
I137
sS'top-1'
p285
I292
sS'top-0'
p286
I1
sS'break-1'
p287
I4
sS'break-0'
p288
I1
sS'break-2'
p289
I24
sS'preheat-2'
p290
I921
sS'preheat-1'
p291
I9
sS'preheat-0'
p292
I0
sS'load-0'
p293
I0
sS'can-0'
p294
I0
sS'tip-1'
p295
I4
sS'tip-0'
p296
I2
sS'tip-2'
p297
I1
sS'run-1'
p298
I0
sS'loosen-1'
p299
I0
sS'run-2'
p300
I13
sS'leave-1'
p301
I1
sS'leave-0'
p302
I0
sS'leave-2'
p303
I8
sS'stream-2'
p304
I5
sS'adjust-2'
p305
I20
sS'adjust-0'
p306
I3
sS'adjust-1'
p307
I6
sS'season-0'
p308
I2
sS'season-1'
p309
I302
sS'season-2'
p310
I202
sS'test-1'
p311
I0
sS'test-0'
p312
I0
sS'test-2'
p313
I1
sS'fold-0'
p314
I0
sS'fold-1'
p315
I63
sS'fold-2'
p316
I76
sS'thicken-0'
p317
I0
sS'thicken-1'
p318
I0
sS'thicken-2'
p319
I3
sS'crimp-0'
p320
I0
sS'grind-2'
p321
I4
sS'halve-1'
p322
I9
sS'grind-0'
p323
I0
sS'grind-1'
p324
I1
sS'dab-2'
p325
I1
sS'dab-1'
p326
I1
sS'dab-0'
p327
I0
sS'stir-0'
p328
I190
sS'bake-2'
p329
I980
sS'cream-2'
p330
I26
sS'cream-0'
p331
I3
sS'cream-1'
p332
I2
sS'stir-2'
p333
I1224
sS'drizzle-1'
p334
I35
sS'bake-1'
p335
I153
sS'drizzle-2'
p336
I49
sS'seat-1'
p337
I1
sS'process-1'
p338
I15
sS'process-0'
p339
I0
sS'process-2'
p340
I6
sS'poke-2'
p341
I3
sS'boil-2'
p342
I39
sS'boil-1'
p343
I21
sS'boil-0'
p344
I0
sS'drain-1'
p345
I466
sS'enjoy-1'
p346
I2
sS'enjoy-0'
p347
I8
sS'raise-2'
p348
I3
sS'enjoy-2'
p349
I0
sS'debone-0'
p350
I0
sS'debone-1'
p351
I1
sS'debone-2'
p352
I0
sS'throw-0'
p353
I0
sS'throw-1'
p354
I0
sS'throw-2'
p355
I2
sS'loosen-0'
p356
I0
sS'dice-0'
p357
I17
sS'dice-1'
p358
I11
sS'dice-2'
p359
I12
sS'scatter-0'
p360
I0
sS'butter-1'
p361
I19
sS'butter-0'
p362
I8
sS'bake-0'
p363
I4
sS'butter-2'
p364
I19
sS'drain-2'
p365
I168
sS'puree-2'
p366
I18
sS'puree-1'
p367
I12
sS'puree-0'
p368
I1
sS'slide-2'
p369
I4
sS'slide-1'
p370
I2
sS'slide-0'
p371
I0
sS'toast-1'
p372
I4
sS'toast-0'
p373
I0
sS'scatter-2'
p374
I5
sS'toast-2'
p375
I14
sS'return-1'
p376
I131
sS'return-0'
p377
I5
sS'separate-0'
p378
I0
sS'return-2'
p379
I132
sS'mince-1'
p380
I1
sS'mound-2'
p381
I6
sS'moisten-2'
p382
I2
sS'core-0'
p383
I0
sS'separate-2'
p384
I8
sS'core-2'
p385
I1
sS'drop-2'
p386
I11
sS'drop-0'
p387
I0
sS'drop-1'
p388
I4
sS'sauce-1'
p389
I11
sS'tap-1'
p390
I3
sS'tap-0'
p391
I0
sS'sauce-0'
p392
I5
sS'separate-1'
p393
I6
sS'roll-0'
p394
I2
sS'roll-1'
p395
I27
sS'roll-2'
p396
I68
sS'hold-1'
p397
I2
sS'quarter-2'
p398
I0
sS'toss-0'
p399
I16
sS'quarter-0'
p400
I1
sS'quarter-1'
p401
I0
sS'toss-1'
p402
I214
sS'slice-0'
p403
I20
sS'stream-1'
p404
I0
sS'stream-0'
p405
I2
sS'ask-1'
p406
I0
sS'slice-1'
p407
I42
sS'ask-0'
p408
I0
sS'melt-2'
p409
I215
sS'melt-1'
p410
I7
sS'melt-0'
p411
I0
sS'ask-2'
p412
I1
sS'roast-2'
p413
I18
sS'roast-1'
p414
I1
sS'roast-0'
p415
I0
sS'beat-1'
p416
I58
sS'beat-0'
p417
I2
sS'dissolve-2'
p418
I19
sS'beat-2'
p419
I226
sS'peel-2'
p420
I28
sS'peel-1'
p421
I54
sS'peel-0'
p422
I76
sS'swirl-1'
p423
I2
sS'swirl-0'
p424
I0
sS'swirl-2'
p425
I2
sS'dot-0'
p426
I0
sS'dot-2'
p427
I5
sS'hollow-2'
p428
I1
sS'freezing-0'
p429
I0
sS'hollow-0'
p430
I0
sS'hollow-1'
p431
I0
sS'dot-1'
p432
I6
sS'smother-0'
p433
I0
sS'smother-1'
p434
I2
sS'smother-2'
p435
I0
sS'overlap-0'
p436
I0
sS'core-1'
p437
I1
sS'lock-0'
p438
I0
sS'lock-1'
p439
I2
sS'lock-2'
p440
I0
sS'julienne-1'
p441
I0
sS'julienne-0'
p442
I0
sS'julienne-2'
p443
I1
sS'punch-0'
p444
I0
sS'crust-1'
p445
I6
sS'crust-0'
p446
I1
sS'crust-2'
p447
I4
sS'end-1'
p448
I2
sS'end-0'
p449
I0
sS'thaw-1'
p450
I1
sS'position-0'
p451
I0
sS'create-2'
p452
I2
sS'create-1'
p453
I0
sS'create-0'
p454
I0
sS'mince-0'
p455
I2
sS'pare-2'
p456
I1
sS'pare-1'
p457
I0
sS'pare-0'
p458
I0
sS'hold-2'
p459
I5
sS'cut-2'
p460
I216
sS'cut-0'
p461
I11
sS'cut-1'
p462
I68
sS'serve-1'
p463
I233
sS'serve-0'
p464
I137
sS'serve-2'
p465
I118
sS'stretch-1'
p466
I2
sS'stretch-0'
p467
I0
sS'stretch-2'
p468
I2
sS'cube-2'
p469
I3
sS'thaw-0'
p470
I0
sS'cube-0'
p471
I5
sS'cube-1'
p472
I4
sS'empty-2'
p473
I2
sS'empty-1'
p474
I0
sS'empty-0'
p475
I0
sS'chop-1'
p476
I27
sS'chop-0'
p477
I48
sS'surround-1'
p478
I0
sS'chop-2'
p479
I37
sS'stop-1'
p480
I1
sS'stop-0'
p481
I0
sS'stop-2'
p482
I0
sS'measure-2'
p483
I10
sS'measure-0'
p484
I0
sS'measure-1'
p485
I3
sS'layer-1'
p486
I15
sS'flip-0'
p487
I2
sS'layer-0'
p488
I1
sS'mince-2'
p489
I0
sS'remove-2'
p490
I366
sS'remove-1'
p491
I534
sS'remove-0'
p492
I7
sS'hold-0'
p493
I0
sS'shape-2'
p494
I28
sS'shape-1'
p495
I29
sS'shape-0'
p496
I2
sS'dredge-2'
p497
I3
sS'dredge-0'
p498
I0
sS'dredge-1'
p499
I2
sS'salt-0'
p500
I4
sS'thaw-2'
p501
I0
sS'repeat-2'
p502
I46
sS'repeat-0'
p503
I6
sS'repeat-1'
p504
I53
sS'transfer-1'
p505
I98
sS'poach-1'
p506
I1
sS'poach-0'
p507
I0
sS'poach-2'
p508
I2
sS'transfer-2'
p509
I174
sS'scrub-0'
p510
I1
sS'rest-2'
p511
I1
sS'stir-1'
p512
I1303
sS'sift-2'
p513
I29
sS'sift-1'
p514
I0
sS'sift-0'
p515
I0
sS'whip-2'
p516
I5
sS'split-0'
p517
I0
sS'cheese-1'
p518
I1
sS'split-2'
p519
I1
sS'flavor-2'
p520
I1
sS'flavor-1'
p521
I0
sS'flavor-0'
p522
I1
sS'brush-0'
p523
I0
sS'brush-1'
p524
I9
sS'brush-2'
p525
I45
sS'cheese-2'
p526
I7
sS'punch-1'
p527
I0
sS'punch-2'
p528
I5
sS'blanch-1'
p529
I1
sS'scrub-1'
p530
I3
sS'fluff-2'
p531
I3
sS'fluff-1'
p532
I2
sS'fluff-0'
p533
I0
sS'dump-1'
p534
I1
sS'dump-0'
p535
I0
sS'crush-1'
p536
I1
sS'crush-0'
p537
I1
sS'rinse-1'
p538
I35
sS'crush-2'
p539
I4
sS'fry-2'
p540
I44
sS'fry-1'
p541
I17
sS'fry-0'
p542
I0
sS'saute-0'
p543
I1
sS'saute-1'
p544
I31
sS'saute-2'
p545
I110
sS'rest-0'
p546
I1
sS'distribute-2'
p547
I7
sS'distribute-0'
p548
I0
sS'distribute-1'
p549
I0
sS'dry-1'
p550
I3
sS'dry-0'
p551
I1
sS'dry-2'
p552
I4
sS'push-1'
p553
I0
sS'push-0'
p554
I0
sS'discard-2'
p555
I12
sS'push-2'
p556
I9
sS'water-1'
p557
I1
sS'water-0'
p558
I1
sS'water-2'
p559
I4
sS'ensure-1'
p560
I0
sS'ensure-0'
p561
I0
sS'ensure-2'
p562
I1
sS'let-1'
p563
I69
sS'let-0'
p564
I9
sS'let-2'
p565
I315
sS'watch-1'
p566
I1
sS'watch-0'
p567
I0
sS'change-1'
p568
I0
sS'watch-2'
p569
I6
sS'alternate-2'
p570
I4
sS'alternate-0'
p571
I0
sS'alternate-1'
p572
I0
sS'steep-1'
p573
I0
sS'steep-0'
p574
I0
sS'steep-2'
p575
I1
sS'mash-2'
p576
I85
sS'mash-0'
p577
I6
sS'mash-1'
p578
I11
sS'steam-0'
p579
I1
sS'steam-1'
p580
I4
sS'steam-2'
p581
I6
sS'handle-2'
p582
I1
sS'pile-1'
p583
I0
sS'pile-0'
p584
I0
sS'pile-2'
p585
I2
sS'snip-1'
p586
I5
sS'snip-0'
p587
I0
sS'rinse-2'
p588
I23
sS'rinse-0'
p589
I21
sS'reduce-1'
p590
I92
sS'reduce-0'
p591
I1
sS'reduce-2'
p592
I388
sS'combine-1'
p593
I21
sS'combine-0'
p594
I3
sS'combine-2'
p595
I753
sS'braise-0'
p596
I0
sS'knead-2'
p597
I12
sS'increase-1'
p598
I0
sS'increase-0'
p599
I0
sS'increase-2'
p600
I29
sS'tear-1'
p601
I0
sS'pierce-2'
p602
I5
sS'pierce-1'
p603
I3
sS'braise-2'
p604
I1
sS'tilt-0'
p605
I0
sS'tilt-1'
p606
I0
sS'tilt-2'
p607
I2
sS'lift-2'
p608
I4
sS'lift-0'
p609
I0
sS'lift-1'
p610
I2
sS'rest-1'
p611
I0
sS'wrap-1'
p612
I10
sS'wrap-0'
p613
I0
sS'wrap-2'
p614
I17
sS'skim-1'
p615
I0
sS'skim-0'
p616
I0
sS'skim-2'
p617
I8
sS'knead-0'
p618
I0
sS'apply-1'
p619
I0
sS'apply-2'
p620
I1
sS'unwrap-0'
p621
I0
sS'tent-2'
p622
I0
sS'position-1'
p623
I0
sS'seal-2'
p624
I9
sS'seal-0'
p625
I10
sS'seal-1'
p626
I12
sS'tent-0'
p627
I0
sS'seat-2'
p628
I0
sS'seat-0'
p629
I0
sS'tent-1'
p630
I1
sS'add-0'
p631
I5
sS'tuck-0'
p632
I0
sS'whip-1'
p633
I3
sS'whip-0'
p634
I0
sS'position-2'
p635
I1
sS'tuck-1'
p636
I0
sS'discard-0'
p637
I60
sS'discard-1'
p638
I42
sS'align-2'
p639
I1
sS'ease-2'
p640
I1
sS'ease-1'
p641
I0
sS'ease-0'
p642
I0
sS'slice-2'
p643
I65
sS'mound-1'
p644
I1
sS'mound-0'
p645
I0
sS'dissolve-0'
p646
I2
sS'align-0'
p647
I0
sS'dissolve-1'
p648
I1
sS'transfer-0'
p649
I12
sS'prepare-2'
p650
I55
sS'prepare-1'
p651
I7
sS'prepare-0'
p652
I0
sS'scramble-2'
p653
I4
sS'stuff-2'
p654
I4
sS'stuff-0'
p655
I0
sS'stuff-1'
p656
I1
sS'scrub-2'
p657
I1
sS'have-2'
p658
I1
sS'have-1'
p659
I1
sS'have-0'
p660
I0
sS'pick-2'
p661
I5
sS'finish-2'
p662
I7
sS'pick-0'
p663
I0
sS'pick-1'
p664
I0
sS'portion-2'
p665
I2
sS'portion-1'
p666
I0
sS'portion-0'
p667
I0
sS'moisten-0'
p668
I0
sS'crack-2'
p669
I2
sS'crack-0'
p670
I0
sS'crack-1'
p671
I1
sS'scramble-0'
p672
I0
sS'add-2'
p673
I887
sS'add-1'
p674
I621
sS'spray-2'
p675
I68
sS'dunk-1'
p676
I0
sS'dunk-0'
p677
I0
sS'align-1'
p678
I0
sS'dunk-2'
p679
I2
sS'place-2'
p680
I1197
sS'crumb-1'
p681
I0
sS'crumb-0'
p682
I0
sS'moisten-1'
p683
I0
sS'crumb-2'
p684
I1
sS'pack-2'
p685
I7
sS'pack-0'
p686
I0
sS'pack-1'
p687
I4
sS'start-0'
p688
I0
sS'start-1'
p689
I2
sS'start-2'
p690
I9
sS'unwrap-2'
p691
I0
sS'scramble-1'
p692
I0
sS'spread-2'
p693
I352
sS'spread-0'
p694
I3
sS'spread-1'
p695
I75
sS'set-2'
p696
I168
sS'set-0'
p697
I60
sS'set-1'
p698
I326
sS'blanch-2'
p699
I1
sS'uncover-0'
p700
I5
sS'uncover-1'
p701
I14
sS'uncover-2'
p702
I1
sS'change-2'
p703
I2
sS'change-0'
p704
I0
sS'divide-0'
p705
I1
sS'divide-1'
p706
I11
sS'divide-2'
p707
I66
sS'soak-0'
p708
I0
sS'chill-2'
p709
I92
sS'chill-0'
p710
I39
sS'chill-1'
p711
I69
sS'dust-1'
p712
I6
sS'sprinkle-2'
p713
I327
sS'sprinkle-1'
p714
I262
sS'sprinkle-0'
p715
I1
sS'makes-1'
p716
I2
sS'makes-0'
p717
I0
sS'makes-2'
p718
I1
sS'follow-0'
p719
I0
sS'follow-1'
p720
I2
sS'follow-2'
p721
I3
sS'insert-0'
p722
I0
sS'insert-1'
p723
I0
sS'insert-2'
p724
I5
sS'dust-0'
p725
I0
sS'build-0'
p726
I0
sS'unwrap-1'
p727
I1
sS'build-2'
p728
I2
sS'reposition-1'
p729
I1
sS'reposition-0'
p730
I0
sS'reposition-2'
p731
I0
sS'coating-1'
p732
I6
sS'thread-2'
p733
I1
sS'thread-1'
p734
I0
sS'pipe-0'
p735
I0
sS'note-1'
p736
I2
sS'note-0'
p737
I8
sS'replace-0'
p738
I0
sS'replace-1'
p739
I1
sS'sear-0'
p740
I0
sS'sear-1'
p741
I0
sS'sear-2'
p742
I4
sS'clean-2'
p743
I2
sS'dust-2'
p744
I10
sS'clean-1'
p745
I2
sS'served-0'
p746
I0
sS'served-1'
p747
I0
sS'served-2'
p748
I5
sS'churn-2'
p749
I0
sS'freezing-1'
p750
I1
sS'churn-0'
p751
I0
sS'churn-1'
p752
I1
sS'plop-2'
p753
I1
sS'freezing-2'
p754
I0
sS'scoop-0'
p755
I0
sS'scoop-1'
p756
I9
sS'scoop-2'
p757
I41
sS'allow-2'
p758
I160
sS'allow-1'
p759
I61
sS'allow-0'
p760
I6
sS'fit-0'
p761
I0
sS'plunge-0'
p762
I0
sS'select-0'
p763
I0
sS'ladle-2'
p764
I19
sS'plunge-1'
p765
I0
sS'put-1'
p766
I4
sS'put-0'
p767
I0
sS'put-2'
p768
I28
sS'ladle-1'
p769
I4
sS'handle-1'
p770
I0
sS'select-2'
p771
I0
sS'select-1'
p772
I1
sS'handle-0'
p773
I0
sS'freeze-2'
p774
I5
sS'freeze-0'
p775
I3
sS'freeze-1'
p776
I6
sS'grease-2'
p777
I93
sS'layer-2'
p778
I53
sS'grease-0'
p779
I11
sS'grease-1'
p780
I152
sS'unroll-2'
p781
I10
sS'unroll-1'
p782
I3
sS'unroll-0'
p783
I0
sS'continue-2'
p784
I127
sS'continue-0'
p785
I0
sS'continue-1'
p786
I25
sS'move-2'
p787
I2
sS'dump-2'
p788
I1
sS'move-0'
p789
I0
sS'move-1'
p790
I2
sS'lay-0'
p791
I0
sS'lay-1'
p792
I2
sS'lay-2'
p793
I35
sS'soak-2'
p794
I24
sS'soak-1'
p795
I1
sS'load-2'
p796
I1
sS'decrease-1'
p797
I0
sS'decrease-0'
p798
I0
sS'decrease-2'
p799
I3
sS'marinate-2'
p800
I18
sS'marinate-0'
p801
I0
sS'marinate-1'
p802
I3
sS'apply-0'
p803
I0
sS'begin-2'
p804
I12
sS'begin-1'
p805
I3
sS'begin-0'
p806
I0
sS'frost-2'
p807
I6
sS'frost-0'
p808
I2
sS'frost-1'
p809
I6
sS'coating-2'
p810
I1
sS'snip-2'
p811
I6
sS'run-0'
p812
I0
sS'crumple-0'
p813
I0
sS'crumple-1'
p814
I1
sS'crumple-2'
p815
I1
sS'whirl-0'
p816
I0
sS'whirl-1'
p817
I1
sS'whirl-2'
p818
I0
sS'strain-0'
p819
I1
sS'strain-1'
p820
I5
sS'strain-2'
p821
I3
sS'mix-0'
p822
I16
sS'mix-1'
p823
I418
sS'mix-2'
p824
I913
sS'coat-0'
p825
I3
sS'coat-1'
p826
I11
sS'coat-2'
p827
I33
sS'take-0'
p828
I0
sS'take-1'
p829
I2
sS'take-2'
p830
I4
sS'tear-0'
p831
I0
sS'squeeze-2'
p832
I14
sS'squeeze-0'
p833
I1
sS'squeeze-1'
p834
I8
sS'brown-0'
p835
I3
sS'brown-1'
p836
I44
sS'brown-2'
p837
I125
sS'press-1'
p838
I25
sS'press-0'
p839
I2
sS'press-2'
p840
I72
sS'plunge-2'
p841
I2
sS'best-2'
p842
I3
sS'best-1'
p843
I1
sS'best-0'
p844
I0
sS'keep-2'
p845
I10
sS'end-2'
p846
I1
sS'pat-1'
p847
I11
sS'pat-0'
p848
I0
sS'pat-2'
p849
I28
s.(dp0
S'use-2-location'
p1
I1
sS'moisten-1-location'
p2
I0
sS'fluff-1-food'
p3
I0
sS'separate-1-location'
p4
I0
sS'sprinkle-1-food'
p5
I153
sS'debone-2-food-location'
p6
I0
sS'tear-2-location'
p7
I0
sS'crust-2-food-location'
p8
I0
sS'shave-2-food-location'
p9
I0
sS'whisk-2-location'
p10
I0
sS'chill-2-location'
p11
I0
sS'ease-1-food'
p12
I0
sS'distribute-2-food'
p13
I3
sS'freezing-2-food'
p14
I0
sS'punch-1-location'
p15
I0
sS'keep-2-location'
p16
I0
sS'can-1-location'
p17
I0
sS'drop-1-location'
p18
I0
sS'lie-1-location'
p19
I0
sS'use-2-food-location'
p20
I0
sS'moisten-2-food-location'
p21
I0
sS'water-1-location'
p22
I0
sS'bring-2-food-location'
p23
I36
sS'preheat-1-location'
p24
I7
sS'split-1-location'
p25
I0
sS'serve-2-location'
p26
I0
sS'pipe-2-food'
p27
I0
sS'snip-1-food'
p28
I0
sS'microwave-1-food'
p29
I2
sS'crack-2-location'
p30
I0
sS'serve-2-food-location'
p31
I1
sS'tear-1-food'
p32
I0
sS'whisk-2-food-location'
p33
I4
sS'reserve-1-location'
p34
I1
sS'rub-1-food'
p35
I0
sS'invert-2-food'
p36
I0
sS'swirl-1-location'
p37
I1
sS'lie-1-food'
p38
I0
sS'thread-1-food'
p39
I0
sS'dice-2-location'
p40
I0
sS'take-1-food'
p41
I0
sS'break-1-location'
p42
I0
sS'shape-1-location'
p43
I1
sS'pipe-1-food'
p44
I1
sS'loosen-1-food'
p45
I0
sS'align-1-location'
p46
I0
sS'stuff-1-location'
p47
I0
sS'put-1-food'
p48
I1
sS'thaw-2-food-location'
p49
I0
sS'sprinkle-1-location'
p50
I0
sS'marinate-2-location'
p51
I0
sS'toast-2-food-location'
p52
I3
sS'carve-2-location'
p53
I0
sS'flute-1-food'
p54
I0
sS'coating-2-location'
p55
I0
sS'pierce-2-food'
p56
I0
sS'end-2-food'
p57
I0
sS'cover-2-food-location'
p58
I6
sS'grease-2-food-location'
p59
I3
sS'fold-2-food-location'
p60
I0
sS'dust-2-food-location'
p61
I0
sS'crust-2-location'
p62
I0
sS'boil-2-food'
p63
I4
sS'squeeze-2-food'
p64
I0
sS'crumble-1-food'
p65
I11
sS'shake-1-location'
p66
I0
sS'enjoy-2-food'
p67
I0
sS'brush-1-food'
p68
I6
sS'taste-2-food'
p69
I0
sS'surround-1-location'
p70
I0
sS'watch-2-food-location'
p71
I0
sS'stop-1-food'
p72
I0
sS'rinse-1-food'
p73
I5
sS'dot-2-food-location'
p74
I0
sS'continue-2-food'
p75
I2
sS'move-1-location'
p76
I0
sS'cream-2-location'
p77
I0
sS'knead-1-location'
p78
I0
sS'can-1-food'
p79
I0
sS'pull-2-food'
p80
I0
sS'soak-2-food-location'
p81
I0
sS'transfer-2-location'
p82
I1
sS'let-2-location'
p83
I0
sS'pinch-2-food'
p84
I0
sS'microwave-2-food-location'
p85
I0
sS'return-2-food-location'
p86
I44
sS'refrigerate-1-location'
p87
I0
sS'simmer-2-food-location'
p88
I2
sS'hollow-1-location'
p89
I0
sS'boil-2-food-location'
p90
I9
sS'tip-2-location'
p91
I0
sS'overlap-2-food'
p92
I0
sS'assemble-2-food'
p93
I2
sS'drain-2-food-location'
p94
I3
sS'add-2-location'
p95
I0
sS'allow-2-food-location'
p96
I1
sS'garnish-2-food'
p97
I1
sS'reduce-1-location'
p98
I0
sS'shred-1-food'
p99
I3
sS'wipe-2-food'
p100
I0
sS'wipe-2-location'
p101
I0
sS'pulse-2-food-location'
p102
I0
sS'measure-1-location'
p103
I0
sS'empty-2-location'
p104
I0
sS'move-2-food'
p105
I0
sS'work-2-food-location'
p106
I0
sS'begin-2-location'
p107
I0
sS'crush-1-food'
p108
I0
sS'tent-2-food'
p109
I0
sS'change-1-food'
p110
I0
sS'pass-1-food'
p111
I1
sS'split-2-location'
p112
I0
sS'increase-2-food'
p113
I0
sS'pare-1-food'
p114
I0
sS'end-1-location'
p115
I0
sS'put-2-food'
p116
I1
sS'tear-1-location'
p117
I0
sS'sift-1-food'
p118
I0
sS'pass-1-location'
p119
I0
sS'whipped-1-location'
p120
I0
sS'put-2-food-location'
p121
I5
sS'run-1-location'
p122
I0
sS'churn-1-location'
p123
I0
sS'knife-2-location'
p124
I0
sS'squeeze-2-food-location'
p125
I0
sS'whip-2-location'
p126
I0
sS'spray-2-food'
p127
I0
sS'have-2-location'
p128
I0
sS'simmer-2-food'
p129
I1
sS'trim-1-food'
p130
I0
sS'pack-2-location'
p131
I0
sS'pick-1-location'
p132
I0
sS'halve-2-food'
p133
I0
sS'tent-2-food-location'
p134
I0
sS'dot-2-food'
p135
I0
sS'cube-1-food'
p136
I1
sS'punch-1-food'
p137
I0
sS'adjust-1-food'
p138
I1
sS'create-2-food-location'
p139
I0
sS'toss-2-food-location'
p140
I1
sS'return-2-location'
p141
I3
sS'lift-2-location'
p142
I0
sS'crumb-2-food-location'
p143
I0
sS'thread-2-location'
p144
I0
sS'oil-2-food-location'
p145
I0
sS'pinch-2-food-location'
p146
I0
sS'work-1-food'
p147
I0
sS'preheat-2-location'
p148
I3
sS'julienne-1-location'
p149
I0
sS'punch-2-food'
p150
I0
sS'broil-1-location'
p151
I0
sS'remove-1-location'
p152
I76
sS'shape-2-location'
p153
I0
sS'finish-1-location'
p154
I0
sS'baste-2-food'
p155
I0
sS'set-1-location'
p156
I1
sS'handle-1-food'
p157
I0
sS'put-2-location'
p158
I0
sS'makes-2-food-location'
p159
I0
sS'handle-2-food'
p160
I0
sS'water-2-food-location'
p161
I0
sS'drizzle-1-food'
p162
I21
sS'make-2-location'
p163
I0
sS'use-1-food'
p164
I0
sS'garnish-1-location'
p165
I0
sS'tilt-2-food-location'
p166
I0
sS'pare-2-food-location'
p167
I0
sS'line-1-location'
p168
I0
sS'sift-2-food'
p169
I25
sS'layer-1-location'
p170
I0
sS'sear-2-food'
p171
I0
sS'crimp-2-location'
p172
I0
sS'process-1-location'
p173
I0
sS'mince-2-food'
p174
I0
sS'fry-2-food'
p175
I2
sS'smother-2-location'
p176
I0
sS'watch-2-food'
p177
I0
sS'drain-1-food'
p178
I49
sS'form-1-location'
p179
I0
sS'crumb-1-location'
p180
I0
sS'butter-2-location'
p181
I0
sS'crumble-1-location'
p182
I0
sS'prick-2-food'
p183
I0
sS'have-2-food-location'
p184
I0
sS'cook-2-food'
p185
I101
sS'grind-2-food-location'
p186
I0
sS'skim-1-food'
p187
I0
sS'sprinkle-2-location'
p188
I0
sS'rest-2-food'
p189
I0
sS'spoon-2-location'
p190
I0
sS'makes-1-location'
p191
I0
sS'roll-1-food'
p192
I6
sS'throw-1-food'
p193
I0
sS'open-2-location'
p194
I0
sS'taste-1-location'
p195
I0
sS'moisten-2-location'
p196
I0
sS'dot-1-food'
p197
I6
sS'scatter-2-location'
p198
I0
sS'frost-2-food'
p199
I1
sS'debone-1-food'
p200
I0
sS'start-1-location'
p201
I0
sS'render-2-food-location'
p202
I1
sS'steam-1-location'
p203
I0
sS'crush-2-food-location'
p204
I0
sS'replace-1-location'
p205
I0
sS'ensure-1-location'
p206
I0
sS'cheese-1-location'
p207
I0
sS'smoke-1-food'
p208
I0
sS'skim-2-food-location'
p209
I1
sS'coating-1-food'
p210
I1
sS'open-1-location'
p211
I0
sS'top-2-location'
p212
I0
sS'leave-1-location'
p213
I1
sS'coat-2-location'
p214
I0
sS'carve-2-food-location'
p215
I0
sS'split-2-food-location'
p216
I0
sS'bring-2-food'
p217
I1
sS'unwrap-1-food'
p218
I1
sS'hold-1-location'
p219
I0
sS'arrange-2-food'
p220
I12
sS'pat-2-food'
p221
I1
sS'decorate-2-food-location'
p222
I0
sS'lift-1-food'
p223
I0
sS'core-2-food-location'
p224
I0
sS'change-2-food-location'
p225
I0
sS'roll-2-food-location'
p226
I0
sS'twist-1-food'
p227
I0
sS'poke-2-location'
p228
I0
sS'dab-1-location'
p229
I0
sS'shred-2-food-location'
p230
I0
sS'ladle-2-location'
p231
I0
sS'allow-1-location'
p232
I0
sS'test-1-food'
p233
I0
sS'core-1-food'
p234
I0
sS'cut-1-food'
p235
I3
sS'brown-2-location'
p236
I0
sS'overlap-2-location'
p237
I0
sS'return-1-location'
p238
I46
sS'ask-2-food'
p239
I0
sS'ensure-2-food'
p240
I0
sS'lock-1-food'
p241
I0
sS'whipped-2-food-location'
p242
I0
sS'decrease-2-food'
p243
I0
sS'apply-2-food'
p244
I0
sS'remove-2-food-location'
p245
I31
sS'unroll-2-location'
p246
I0
sS'flip-2-location'
p247
I0
sS'wear-2-food-location'
p248
I0
sS'combine-1-location'
p249
I0
sS'lay-2-food-location'
p250
I3
sS'trim-2-food'
p251
I0
sS'score-2-location'
p252
I0
sS'thicken-1-food'
p253
I0
sS'makes-2-location'
p254
I0
sS'distribute-1-location'
p255
I0
sS'brown-2-food-location'
p256
I60
sS'fluff-2-food'
p257
I0
sS'blanch-1-location'
p258
I0
sS'best-1-food'
p259
I0
sS'watch-1-location'
p260
I0
sS'pulse-1-food'
p261
I1
sS'transfer-1-food'
p262
I2
sS'ask-1-location'
p263
I0
sS'melt-2-food'
p264
I2
sS'toast-2-food'
p265
I0
sS'preheat-2-food'
p266
I0
sS'oil-1-food'
p267
I0
sS'scatter-2-food'
p268
I3
sS'dry-1-location'
p269
I0
sS'uncover-1-location'
p270
I2
sS'let-1-location'
p271
I0
sS'pack-1-food'
p272
I0
sS'makes-1-food'
p273
I0
sS'transfer-2-food-location'
p274
I14
sS'fold-2-food'
p275
I15
sS'flip-2-food'
p276
I0
sS'dot-1-location'
p277
I0
sS'blend-2-food'
p278
I24
sS'steep-2-food-location'
p279
I0
sS'flip-1-food'
p280
I2
sS'measure-2-food'
p281
I0
sS'empty-1-food'
p282
I0
sS'tear-2-food'
p283
I0
sS'prepare-1-location'
p284
I0
sS'bake-1-food'
p285
I15
sS'stretch-2-location'
p286
I0
sS'poke-1-food'
p287
I0
sS'change-2-food'
p288
I0
sS'drop-1-food'
p289
I2
sS'select-2-location'
p290
I0
sS'uncover-2-food'
p291
I0
sS'stream-2-location'
p292
I0
sS'combine-1-food'
p293
I8
sS'pat-1-location'
p294
I5
sS'sort-1-food'
p295
I1
sS'dump-2-food'
p296
I0
sS'run-1-food'
p297
I0
sS'marinate-2-food-location'
p298
I0
sS'puree-2-food'
p299
I1
sS'frost-1-location'
p300
I0
sS'peel-1-location'
p301
I0
sS'thaw-2-location'
p302
I0
sS'score-1-location'
p303
I0
sS'enjoy-2-location'
p304
I0
sS'melt-2-location'
p305
I0
sS'fill-2-food'
p306
I1
sS'core-1-location'
p307
I0
sS'stuff-2-food-location'
p308
I0
sS'select-1-location'
p309
I0
sS'decorate-2-location'
p310
I0
sS'bake-2-food'
p311
I0
sS'divide-2-food'
p312
I3
sS'wash-1-location'
p313
I0
sS'turn-2-food-location'
p314
I1
sS'water-2-location'
p315
I0
sS'ready-1-location'
p316
I0
sS'render-2-location'
p317
I0
sS'poach-1-food'
p318
I0
sS'debone-2-location'
p319
I0
sS'squeeze-1-location'
p320
I0
sS'crumple-2-food'
p321
I0
sS'continue-1-location'
p322
I0
sS'rest-2-location'
p323
I0
sS'core-2-food'
p324
I0
sS'scoop-2-food-location'
p325
I0
sS'sauce-1-location'
p326
I1
sS'muddle-1-food'
p327
I0
sS'position-2-food'
p328
I0
sS'cube-1-location'
p329
I0
sS'place-1-location'
p330
I55
sS'saute-1-location'
p331
I2
sS'discard-1-food'
p332
I0
sS'make-2-food-location'
p333
I3
sS'increase-1-food'
p334
I0
sS'mound-1-food'
p335
I0
sS'line-2-food-location'
p336
I3
sS'ask-1-food'
p337
I0
sS'rub-2-food'
p338
I9
sS'insert-2-location'
p339
I0
sS'check-1-location'
p340
I0
sS'dunk-2-food'
p341
I0
sS'baste-1-food'
p342
I0
sS'break-2-location'
p343
I0
sS'slice-2-food'
p344
I1
sS'grill-2-location'
p345
I0
sS'frost-1-food'
p346
I1
sS'pick-2-food'
p347
I0
sS'top-1-food'
p348
I146
sS'quarter-1-food'
p349
I0
sS'lift-1-location'
p350
I0
sS'freeze-2-food'
p351
I0
sS'crumb-1-food'
p352
I0
sS'braise-2-food-location'
p353
I0
sS'flour-2-location'
p354
I0
sS'dip-2-food'
p355
I10
sS'ease-2-food-location'
p356
I0
sS'cover-2-food'
p357
I4
sS'layer-1-food'
p358
I7
sS'pinch-2-location'
p359
I0
sS'cover-1-food'
p360
I85
sS'ladle-2-food-location'
p361
I0
sS'poach-2-location'
p362
I0
sS'refrigerate-2-food'
p363
I0
sS'shave-1-location'
p364
I0
sS'grill-2-food-location'
p365
I0
sS'pare-1-location'
p366
I0
sS'crust-2-food'
p367
I0
sS'cake-2-location'
p368
I0
sS'fry-1-location'
p369
I0
sS'heat-1-food'
p370
I8
sS'assemble-2-location'
p371
I0
sS'roast-2-food'
p372
I0
sS'plop-2-food-location'
p373
I0
sS'test-2-food-location'
p374
I0
sS'uncover-1-food'
p375
I0
sS'drop-2-location'
p376
I0
sS'prick-2-food-location'
p377
I0
sS'hollow-2-food-location'
p378
I0
sS'grill-1-food'
p379
I2
sS'tap-2-food-location'
p380
I0
sS'seat-1-location'
p381
I0
sS'reheat-2-location'
p382
I0
sS'sear-2-food-location'
p383
I0
sS'salt-2-location'
p384
I0
sS'muddle-2-location'
p385
I0
sS'follow-1-location'
p386
I0
sS'knife-2-food'
p387
I0
sS'blanch-1-food'
p388
I0
sS'cook-2-location'
p389
I2
sS'finish-2-location'
p390
I0
sS'stop-1-location'
p391
I0
sS'bring-2-location'
p392
I0
sS'dust-1-food'
p393
I5
sS'pinch-1-food'
p394
I0
sS'adjust-2-food'
p395
I1
sS'dissolve-1-food'
p396
I0
sS'clean-2-food'
p397
I0
sS'assemble-2-food-location'
p398
I0
sS'alternate-2-location'
p399
I1
sS'stack-2-location'
p400
I0
sS'flavor-2-location'
p401
I0
sS'score-2-food'
p402
I0
sS'chop-2-location'
p403
I0
sS'position-2-food-location'
p404
I0
sS'slice-2-food-location'
p405
I0
sS'season-1-food'
p406
I250
sS'lay-1-location'
p407
I0
sS'pat-2-food-location'
p408
I0
sS'crimp-2-food'
p409
I0
sS'thaw-1-location'
p410
I0
sS'season-2-food'
p411
I25
sS'snip-2-food'
p412
I0
sS'pound-2-food-location'
p413
I0
sS'turn-1-food'
p414
I0
sS'stuff-2-food'
p415
I0
sS'pipe-2-food-location'
p416
I0
sS'smoke-2-food-location'
p417
I0
sS'align-2-location'
p418
I0
sS'gather-2-location'
p419
I0
sS'spoon-2-food'
p420
I8
sS'fry-1-food'
p421
I3
sS'put-1-location'
p422
I0
sS'toss-2-food'
p423
I66
sS'lower-1-location'
p424
I0
sS'combine-2-food-location'
p425
I119
sS'fill-2-food-location'
p426
I26
sS'beat-1-location'
p427
I0
sS'reshape-2-food'
p428
I0
sS'end-1-food'
p429
I1
sS'crack-1-location'
p430
I0
sS'decrease-2-food-location'
p431
I0
sS'reposition-2-location'
p432
I0
sS'press-2-food-location'
p433
I5
sS'heat-2-food'
p434
I5
sS'dredge-2-location'
p435
I0
sS'mix-1-food'
p436
I132
sS'distribute-2-food-location'
p437
I0
sS'round-1-food'
p438
I0
sS'divide-2-location'
p439
I0
sS'icing-1-food'
p440
I0
sS'decorate-2-food'
p441
I0
sS'process-1-food'
p442
I1
sS'slide-2-food-location'
p443
I0
sS'stack-2-food'
p444
I0
sS'tap-2-location'
p445
I0
sS'microwave-1-location'
p446
I0
sS'repeat-1-location'
p447
I0
sS'served-2-food'
p448
I0
sS'remove-1-food'
p449
I27
sS'reposition-2-food-location'
p450
I0
sS'round-2-food'
p451
I0
sS'quarter-1-location'
p452
I0
sS'poach-2-food-location'
p453
I1
sS'freezing-2-food-location'
p454
I0
sS'cream-2-food-location'
p455
I0
sS'have-1-location'
p456
I0
sS'tent-1-location'
p457
I0
sS'seat-1-food'
p458
I0
sS'dab-2-location'
p459
I0
sS'boil-1-food'
p460
I3
sS'drizzle-1-location'
p461
I0
sS'loosen-2-food-location'
p462
I0
sS'remove-2-location'
p463
I5
sS'tuck-1-location'
p464
I0
sS'ready-1-food'
p465
I0
sS'stretch-2-food-location'
p466
I1
sS'portion-2-location'
p467
I0
sS'freezing-2-location'
p468
I0
sS'pound-2-location'
p469
I0
sS'push-1-food'
p470
I0
sS'scoop-2-food'
p471
I1
sS'mix-2-food-location'
p472
I40
sS'grate-2-food-location'
p473
I0
sS'thaw-1-food'
p474
I0
sS'scrape-2-location'
p475
I0
sS'clean-2-food-location'
p476
I0
sS'allow-2-food'
p477
I1
sS'pinch-1-location'
p478
I0
sS'sprinkle-2-food'
p479
I43
sS'roast-2-food-location'
p480
I7
sS'dissolve-2-location'
p481
I0
sS'sift-2-food-location'
p482
I0
sS'dip-1-location'
p483
I0
sS'oil-2-food'
p484
I3
sS'gather-2-food'
p485
I0
sS'test-2-location'
p486
I0
sS'scoop-1-food'
p487
I1
sS'check-2-food-location'
p488
I0
sS'add-2-food'
p489
I303
sS'baste-1-location'
p490
I0
sS'freeze-1-food'
p491
I0
sS'decorate-1-food'
p492
I0
sS'wipe-1-food'
p493
I0
sS'replace-2-food'
p494
I0
sS'sauce-2-food-location'
p495
I0
sS'spread-1-location'
p496
I9
sS'brown-1-food'
p497
I2
sS'heat-2-food-location'
p498
I195
sS'throw-2-food-location'
p499
I0
sS'simmer-1-location'
p500
I0
sS'stream-2-food-location'
p501
I0
sS'chill-1-location'
p502
I0
sS'drop-2-food-location'
p503
I0
sS'taste-2-food-location'
p504
I0
sS'strain-1-location'
p505
I1
sS'dredge-2-food'
p506
I2
sS'scrape-1-location'
p507
I0
sS'run-2-location'
p508
I0
sS'knead-2-food'
p509
I0
sS'roast-1-location'
p510
I0
sS'wash-2-location'
p511
I0
sS'tear-2-food-location'
p512
I0
sS'core-2-location'
p513
I0
sS'dissolve-2-food'
p514
I10
sS'steep-1-food'
p515
I0
sS'lay-1-food'
p516
I0
sS'dice-2-food'
p517
I4
sS'cheese-1-food'
p518
I1
sS'wrap-2-location'
p519
I0
sS'dry-2-food-location'
p520
I0
sS'wash-1-food'
p521
I3
sS'ready-2-food-location'
p522
I0
sS'throw-2-location'
p523
I0
sS'brush-1-location'
p524
I0
sS'cook-2-food-location'
p525
I128
sS'create-1-food'
p526
I0
sS'pack-2-food-location'
p527
I0
sS'skim-2-location'
p528
I0
sS'handle-2-food-location'
p529
I0
sS'melt-1-location'
p530
I2
sS'flatten-2-location'
p531
I0
sS'pierce-2-food-location'
p532
I0
sS'churn-2-location'
p533
I0
sS'best-1-location'
p534
I0
sS'poach-1-location'
p535
I0
sS'turn-2-food'
p536
I1
sS'note-2-location'
p537
I0
sS'pack-1-location'
p538
I3
sS'pull-2-location'
p539
I0
sS'dump-2-food-location'
p540
I1
sS'dump-2-location'
p541
I0
sS'butter-1-food'
p542
I2
sS'finish-2-food-location'
p543
I0
sS'spray-2-food-location'
p544
I1
sS'slide-1-location'
p545
I0
sS'add-1-food'
p546
I370
sS'snip-2-food-location'
p547
I0
sS'layer-2-food-location'
p548
I1
sS'store-2-location'
p549
I0
sS'mix-2-food'
p550
I411
sS'warm-2-food'
p551
I0
sS'place-2-location'
p552
I11
sS'freeze-1-location'
p553
I0
sS'debone-2-food'
p554
I0
sS'break-1-food'
p555
I0
sS'tilt-2-location'
p556
I0
sS'snip-2-location'
p557
I0
sS'pick-2-location'
p558
I0
sS'take-1-location'
p559
I0
sS'adjust-2-food-location'
p560
I0
sS'toss-1-location'
p561
I0
sS'reposition-1-food'
p562
I0
sS'plop-1-location'
p563
I0
sS'render-2-food'
p564
I0
sS'smother-1-food'
p565
I0
sS'stir-2-location'
p566
I0
sS'flavor-2-food'
p567
I0
sS'julienne-2-location'
p568
I0
sS'wear-1-location'
p569
I0
sS'saute-2-food-location'
p570
I34
sS'prepare-2-food'
p571
I5
sS'flip-2-food-location'
p572
I1
sS'round-1-location'
p573
I0
sS'served-1-location'
p574
I0
sS'continue-2-food-location'
p575
I0
sS'flatten-1-food'
p576
I1
sS'move-2-location'
p577
I1
sS'wear-1-food'
p578
I0
sS'frost-2-location'
p579
I0
sS'pull-1-food'
p580
I1
sS'arrange-1-food'
p581
I1
sS'crack-2-food-location'
p582
I0
sS'mix-2-location'
p583
I1
sS'take-2-food-location'
p584
I0
sS'lay-2-food'
p585
I1
sS'set-2-food'
p586
I1
sS'work-1-location'
p587
I0
sS'cut-2-location'
p588
I0
sS'wear-2-food'
p589
I0
sS'cream-2-food'
p590
I12
sS'coat-2-food-location'
p591
I4
sS'carve-1-food'
p592
I0
sS'wrap-1-food'
p593
I0
sS'soak-2-location'
p594
I0
sS'crack-2-food'
p595
I0
sS'remove-2-food'
p596
I10
sS'unroll-2-food-location'
p597
I1
sS'heat-1-location'
p598
I0
sS'rest-2-food-location'
p599
I0
sS'scramble-2-food-location'
p600
I0
sS'cool-1-food'
p601
I5
sS'pat-1-food'
p602
I0
sS'score-1-food'
p603
I0
sS'scrape-1-food'
p604
I0
sS'grind-2-location'
p605
I0
sS'broil-1-food'
p606
I0
sS'pile-2-food-location'
p607
I0
sS'leave-1-food'
p608
I0
sS'begin-1-food'
p609
I1
sS'reposition-2-food'
p610
I0
sS'insert-1-food'
p611
I0
sS'brown-1-location'
p612
I0
sS'crumple-2-food-location'
p613
I0
sS'mince-1-location'
p614
I0
sS'reshape-2-location'
p615
I0
sS'braise-2-food'
p616
I0
sS'load-2-location'
p617
I0
sS'bake-1-location'
p618
I14
sS'garnish-1-food'
p619
I42
sS'blanch-2-food-location'
p620
I1
sS'steam-2-location'
p621
I0
sS'overlap-2-food-location'
p622
I0
sS'flute-2-food-location'
p623
I0
sS'spread-2-location'
p624
I0
sS'muddle-2-food'
p625
I0
sS'knead-2-location'
p626
I0
sS'measure-2-food-location'
p627
I0
sS'note-1-food'
p628
I0
sS'chill-1-food'
p629
I1
sS'julienne-2-food-location'
p630
I0
sS'strain-2-location'
p631
I0
sS'distribute-2-location'
p632
I0
sS'freeze-2-location'
p633
I0
sS'seal-2-food'
p634
I0
sS'knead-1-food'
p635
I0
sS'seat-2-food-location'
p636
I0
sS'icing-2-food'
p637
I0
sS'rinse-2-food-location'
p638
I0
sS'toast-2-location'
p639
I0
sS'marinate-2-food'
p640
I3
sS'moisten-1-food'
p641
I0
sS'open-2-food-location'
p642
I0
sS'beat-1-food'
p643
I17
sS'repeat-2-location'
p644
I0
sS'begin-2-food-location'
p645
I1
sS'dry-2-location'
p646
I0
sS'prick-1-food'
p647
I0
sS'cake-1-food'
p648
I2
sS'dust-1-location'
p649
I0
sS'align-2-food'
p650
I0
sS'form-2-food'
p651
I0
sS'wipe-2-food-location'
p652
I1
sS'pipe-1-location'
p653
I0
sS'let-2-food'
p654
I4
sS'spread-1-food'
p655
I18
sS'taste-2-location'
p656
I0
sS'create-1-location'
p657
I0
sS'sort-2-food'
p658
I0
sS'ladle-1-location'
p659
I0
sS'rub-1-location'
p660
I0
sS'julienne-1-food'
p661
I0
sS'move-1-food'
p662
I0
sS'tip-1-food'
p663
I1
sS'blend-1-food'
p664
I12
sS'loosen-2-location'
p665
I1
sS'thaw-2-food'
p666
I0
sS'reshape-2-food-location'
p667
I0
sS'grate-1-location'
p668
I0
sS'flatten-2-food-location'
p669
I0
sS'process-2-location'
p670
I0
sS'measure-2-location'
p671
I0
sS'empty-1-location'
p672
I0
sS'drain-1-location'
p673
I10
sS'lock-2-food'
p674
I0
sS'follow-2-location'
p675
I0
sS'set-2-location'
p676
I4
sS'build-2-food'
p677
I0
sS'stir-2-food'
p678
I329
sS'position-1-food'
p679
I0
sS'bring-1-location'
p680
I0
sS'arrange-1-location'
p681
I1
sS'poke-1-location'
p682
I0
sS'unroll-1-food'
p683
I1
sS'increase-2-location'
p684
I0
sS'butter-1-location'
p685
I2
sS'spray-1-food'
p686
I0
sS'unroll-1-location'
p687
I0
sS'dip-2-location'
p688
I0
sS'spoon-2-food-location'
p689
I0
sS'freeze-2-food-location'
p690
I0
sS'chop-1-location'
p691
I0
sS'render-1-food'
p692
I0
sS'plop-2-location'
p693
I0
sS'knife-1-location'
p694
I0
sS'measure-1-food'
p695
I1
sS'whip-1-food'
p696
I0
sS'empty-2-food'
p697
I0
sS'cube-2-location'
p698
I0
sS'sift-1-location'
p699
I0
sS'boil-2-location'
p700
I0
sS'enjoy-1-location'
p701
I0
sS'coat-1-food'
p702
I3
sS'quarter-2-food'
p703
I0
sS'add-1-location'
p704
I9
sS'fit-2-food'
p705
I0
sS'salt-1-food'
p706
I0
sS'trim-2-food-location'
p707
I0
sS'smooth-1-location'
p708
I0
sS'portion-1-food'
p709
I0
sS'seal-2-location'
p710
I0
sS'sprinkle-2-food-location'
p711
I1
sS'moisten-2-food'
p712
I0
sS'grate-2-location'
p713
I0
sS'lower-1-food'
p714
I0
sS'canned-1-food'
p715
I0
sS'let-2-food-location'
p716
I0
sS'salt-2-food'
p717
I0
sS'broil-2-food-location'
p718
I2
sS'set-1-food'
p719
I0
sS'dip-1-food'
p720
I0
sS'crush-2-food'
p721
I0
sS'dunk-2-food-location'
p722
I0
sS'store-1-food'
p723
I0
sS'reserve-2-location'
p724
I0
sS'portion-1-location'
p725
I0
sS'grind-1-food'
p726
I0
sS'discard-2-food-location'
p727
I0
sS'punch-2-food-location'
p728
I0
sS'sort-2-location'
p729
I0
sS'leave-2-food'
p730
I0
sS'churn-2-food-location'
p731
I0
sS'scramble-1-food'
p732
I0
sS'reduce-2-location'
p733
I0
sS'fluff-2-food-location'
p734
I0
sS'season-2-food-location'
p735
I2
sS'coating-2-food'
p736
I1
sS'pipe-2-location'
p737
I0
sS'cube-2-food'
p738
I0
sS'dust-2-food'
p739
I1
sS'coat-1-location'
p740
I0
sS'dissolve-1-location'
p741
I1
sS'fluff-1-location'
p742
I0
sS'poach-2-food'
p743
I0
sS'dry-1-food'
p744
I0
sS'steep-1-location'
p745
I0
sS'scrub-1-food'
p746
I3
sS'dunk-2-location'
p747
I0
sS'reduce-1-food'
p748
I0
sS'thread-1-location'
p749
I0
sS'continue-1-food'
p750
I1
sS'quarter-2-location'
p751
I0
sS'marinate-1-food'
p752
I0
sS'crumple-1-food'
p753
I1
sS'trim-2-location'
p754
I0
sS'beat-2-food'
p755
I73
sS'flavor-1-location'
p756
I0
sS'handle-2-location'
p757
I0
sS'smother-2-food'
p758
I0
sS'frost-2-food-location'
p759
I0
sS'slice-1-food'
p760
I18
sS'stack-1-food'
p761
I0
sS'pound-2-food'
p762
I0
sS'chop-2-food'
p763
I7
sS'make-2-food'
p764
I5
sS'keep-2-food'
p765
I0
sS'crimp-1-food'
p766
I0
sS'shape-2-food'
p767
I0
sS'twist-2-food-location'
p768
I0
sS'roll-2-location'
p769
I0
sS'reheat-2-food-location'
p770
I0
sS'garnish-2-food-location'
p771
I0
sS'check-1-food'
p772
I1
sS'position-2-location'
p773
I0
sS'crumble-2-location'
p774
I0
sS'pulse-2-food'
p775
I0
sS'ask-2-food-location'
p776
I0
sS'mound-1-location'
p777
I0
sS'grind-2-food'
p778
I0
sS'decrease-2-location'
p779
I0
sS'prepare-2-location'
p780
I0
sS'apply-2-location'
p781
I0
sS'served-2-location'
p782
I0
sS'chop-1-food'
p783
I11
sS'scoop-2-location'
p784
I0
sS'reduce-2-food-location'
p785
I0
sS'ready-2-location'
p786
I0
sS'lower-2-location'
p787
I0
sS'canned-2-location'
p788
I0
sS'cool-2-food'
p789
I3
sS'discard-2-food'
p790
I0
sS'broil-2-location'
p791
I0
sS'crumple-2-location'
p792
I0
sS'cheese-2-location'
p793
I0
sS'pulse-2-location'
p794
I0
sS'rinse-2-food'
p795
I1
sS'lower-2-food-location'
p796
I0
sS'canned-2-food-location'
p797
I0
sS'raise-2-location'
p798
I0
sS'stack-2-food-location'
p799
I0
sS'replace-2-location'
p800
I0
sS'drizzle-2-food'
p801
I1
sS'served-1-food'
p802
I0
sS'press-1-food'
p803
I0
sS'fit-1-food'
p804
I0
sS'finish-1-food'
p805
I0
sS'top-2-food-location'
p806
I0
sS'reshape-1-food'
p807
I0
sS'lock-1-location'
p808
I1
sS'tuck-2-location'
p809
I0
sS'dump-1-food'
p810
I0
sS'crumble-2-food'
p811
I2
sS'whirl-1-location'
p812
I0
sS'assemble-1-food'
p813
I0
sS'plop-2-food'
p814
I0
sS'scramble-2-location'
p815
I0
sS'stuff-1-food'
p816
I0
sS'replace-2-food-location'
p817
I0
sS'tip-1-location'
p818
I0
sS'shake-2-food-location'
p819
I1
sS'carve-2-food'
p820
I0
sS'grill-1-location'
p821
I0
sS'mince-1-food'
p822
I0
sS'flatten-1-location'
p823
I0
sS'smoke-1-location'
p824
I0
sS'pile-2-food'
p825
I0
sS'build-2-food-location'
p826
I0
sS'turn-2-location'
p827
I1
sS'portion-2-food'
p828
I0
sS'thread-2-food-location'
p829
I0
sS'sauce-2-food'
p830
I1
sS'create-2-location'
p831
I0
sS'reheat-2-food'
p832
I0
sS'position-1-location'
p833
I0
sS'dice-2-food-location'
p834
I0
sS'mash-2-food-location'
p835
I1
sS'whisk-1-location'
p836
I0
sS'twist-2-food'
p837
I0
sS'ease-2-location'
p838
I0
sS'decrease-1-food'
p839
I0
sS'apply-1-food'
p840
I0
sS'push-1-location'
p841
I0
sS'shake-1-food'
p842
I1
sS'braise-1-location'
p843
I0
sS'bake-2-food-location'
p844
I48
sS'coating-1-location'
p845
I0
sS'snip-1-location'
p846
I0
sS'alternate-1-location'
p847
I0
sS'sear-1-location'
p848
I0
sS'tap-2-food'
p849
I0
sS'flour-1-location'
p850
I1
sS'test-1-location'
p851
I0
sS'top-2-food'
p852
I15
sS'unwrap-1-location'
p853
I0
sS'pierce-2-location'
p854
I0
sS'scramble-2-food'
p855
I0
sS'overlap-1-location'
p856
I0
sS'season-2-location'
p857
I0
sS'raise-2-food'
p858
I0
sS'hollow-2-location'
p859
I0
sS'soak-2-food'
p860
I9
sS'ready-2-food'
p861
I0
sS'refrigerate-2-food-location'
p862
I0
sS'debone-1-location'
p863
I0
sS'invert-1-food'
p864
I0
sS'puree-1-food'
p865
I1
sS'can-2-food-location'
p866
I0
sS'have-1-food'
p867
I0
sS'poke-2-food-location'
p868
I0
sS'cake-2-food-location'
p869
I0
sS'dump-1-location'
p870
I0
sS'clean-1-location'
p871
I0
sS'water-1-food'
p872
I0
sS'strain-2-food-location'
p873
I0
sS'press-2-food'
p874
I4
sS'cheese-2-food'
p875
I2
sS'build-1-food'
p876
I0
sS'stream-2-food'
p877
I2
sS'strain-2-food'
p878
I0
sS'toast-1-location'
p879
I0
sS'simmer-1-food'
p880
I35
sS'simmer-2-location'
p881
I0
sS'finish-2-food'
p882
I1
sS'best-2-food'
p883
I0
sS'plunge-1-location'
p884
I0
sS'tilt-1-food'
p885
I0
sS'fill-1-food'
p886
I1
sS'slide-2-food'
p887
I0
sS'serve-1-food'
p888
I43
sS'scrub-2-food-location'
p889
I0
sS'run-2-food'
p890
I1
sS'thicken-1-location'
p891
I0
sS'stir-1-food'
p892
I708
sS'shred-1-location'
p893
I0
sS'pierce-1-food'
p894
I0
sS'press-1-location'
p895
I11
sS'wrap-1-location'
p896
I0
sS'smother-2-food-location'
p897
I0
sS'select-2-food-location'
p898
I0
sS'push-2-food'
p899
I0
sS'reheat-1-food'
p900
I1
sS'rub-2-food-location'
p901
I0
sS'reshape-1-location'
p902
I0
sS'use-1-location'
p903
I1
sS'start-1-food'
p904
I0
sS'mash-1-location'
p905
I0
sS'arrange-2-food-location'
p906
I6
sS'pound-1-location'
p907
I0
sS'bake-2-location'
p908
I1
sS'uncover-2-location'
p909
I0
sS'check-2-food'
p910
I0
sS'decorate-1-location'
p911
I0
sS'thread-2-food'
p912
I0
sS'dice-1-food'
p913
I5
sS'tuck-1-food'
p914
I0
sS'roast-2-location'
p915
I0
sS'cream-1-location'
p916
I0
sS'stir-1-location'
p917
I10
sS'prick-1-location'
p918
I0
sS'halve-1-food'
p919
I9
sS'knife-2-food-location'
p920
I0
sS'wash-2-food-location'
p921
I0
sS'grill-2-food'
p922
I2
sS'spoon-1-location'
p923
I5
sS'press-2-location'
p924
I0
sS'whisk-1-food'
p925
I34
sS'separate-2-food-location'
p926
I0
sS'fill-1-location'
p927
I1
sS'work-2-location'
p928
I0
sS'lie-2-location'
p929
I0
sS'reserve-2-food-location'
p930
I4
sS'whirl-2-location'
p931
I0
sS'roast-1-food'
p932
I0
sS'lock-2-food-location'
p933
I0
sS'cover-1-location'
p934
I68
sS'combine-2-food'
p935
I329
sS'dissolve-2-food-location'
p936
I0
sS'break-2-food'
p937
I0
sS'split-2-food'
p938
I0
sS'squeeze-2-location'
p939
I0
sS'dice-1-location'
p940
I0
sS'swirl-2-location'
p941
I0
sS'layer-2-location'
p942
I0
sS'shave-1-food'
p943
I0
sS'plunge-2-food-location'
p944
I0
sS'flatten-2-food'
p945
I0
sS'seat-2-food'
p946
I0
sS'note-2-food'
p947
I0
sS'serve-1-location'
p948
I0
sS'smother-1-location'
p949
I0
sS'return-1-food'
p950
I0
sS'dry-2-food'
p951
I0
sS'salt-1-location'
p952
I0
sS'icing-2-location'
p953
I0
sS'place-2-food-location'
p954
I450
sS'steam-2-food-location'
p955
I1
sS'pile-1-location'
p956
I0
sS'clean-1-food'
p957
I1
sS'broil-2-food'
p958
I1
sS'return-2-food'
p959
I0
sS'reduce-2-food'
p960
I0
sS'spray-2-location'
p961
I1
sS'line-2-food'
p962
I0
sS'prepare-1-food'
p963
I0
sS'whip-1-location'
p964
I0
sS'mix-1-location'
p965
I2
sS'check-2-location'
p966
I0
sS'stuff-2-location'
p967
I0
sS'note-1-location'
p968
I0
sS'overlap-1-food'
p969
I0
sS'prepare-2-food-location'
p970
I1
sS'hold-2-food-location'
p971
I0
sS'seat-2-location'
p972
I0
sS'spoon-1-food'
p973
I7
sS'puree-2-food-location'
p974
I7
sS'dredge-1-location'
p975
I0
sS'place-2-food'
p976
I53
sS'set-2-food-location'
p977
I2
sS'divide-1-location'
p978
I0
sS'keep-1-food'
p979
I0
sS'drain-2-food'
p980
I2
sS'season-1-location'
p981
I0
sS'flour-2-food-location'
p982
I0
sS'peel-2-food-location'
p983
I0
sS'crumple-1-location'
p984
I0
sS'reheat-1-location'
p985
I0
sS'seal-1-food'
p986
I0
sS'transfer-1-location'
p987
I21
sS'punch-2-location'
p988
I0
sS'pour-1-location'
p989
I32
sS'rinse-2-location'
p990
I0
sS'sear-1-food'
p991
I0
sS'whipped-2-food'
p992
I0
sS'chill-2-food-location'
p993
I0
sS'pack-2-food'
p994
I0
sS'crush-1-location'
p995
I0
sS'tent-1-food'
p996
I0
sS'seal-1-location'
p997
I0
sS'drizzle-2-location'
p998
I0
sS'carve-1-location'
p999
I0
sS'drizzle-2-food-location'
p1000
I0
sS'mound-2-location'
p1001
I0
sS'lay-2-location'
p1002
I0
sS'sort-2-food-location'
p1003
I0
sS'toss-2-location'
p1004
I0
sS'form-2-food-location'
p1005
I0
sS'invert-1-location'
p1006
I0
sS'note-2-food-location'
p1007
I0
sS'pour-1-food'
p1008
I126
sS'cake-2-food'
p1009
I0
sS'ease-2-food'
p1010
I0
sS'mash-2-location'
p1011
I0
sS'scatter-1-location'
p1012
I0
sS'score-2-food-location'
p1013
I0
sS'hold-2-food'
p1014
I0
sS'freezing-1-food'
p1015
I1
sS'surround-1-food'
p1016
I0
sS'unroll-2-food'
p1017
I1
sS'gather-2-food-location'
p1018
I0
sS'alternate-2-food'
p1019
I0
sS'twist-2-location'
p1020
I0
sS'peel-1-food'
p1021
I40
sS'stream-1-food'
p1022
I0
sS'warm-2-location'
p1023
I0
sS'peel-2-food'
p1024
I2
sS'distribute-1-food'
p1025
I0
sS'shape-1-food'
p1026
I1
sS'load-1-food'
p1027
I0
sS'chill-2-food'
p1028
I1
sS'crack-1-food'
p1029
I1
sS'pile-1-food'
p1030
I0
sS'align-1-food'
p1031
I0
sS'refrigerate-2-location'
p1032
I0
sS'crumb-2-location'
p1033
I0
sS'wrap-2-food-location'
p1034
I0
sS'taste-1-food'
p1035
I1
sS'smoke-2-food'
p1036
I0
sS'line-1-food'
p1037
I0
sS'adjust-2-location'
p1038
I0
sS'pare-2-food'
p1039
I0
sS'tuck-2-food-location'
p1040
I0
sS'thicken-2-food-location'
p1041
I0
sS'ladle-1-food'
p1042
I0
sS'slide-1-food'
p1043
I0
sS'allow-1-food'
p1044
I1
sS'ladle-2-food'
p1045
I0
sS'brush-2-food'
p1046
I3
sS'whirl-2-food'
p1047
I0
sS'cut-1-location'
p1048
I0
sS'unwrap-2-location'
p1049
I0
sS'sauce-1-food'
p1050
I2
sS'enjoy-2-food-location'
p1051
I0
sS'increase-1-location'
p1052
I0
sS'tap-1-location'
p1053
I0
sS'icing-1-location'
p1054
I0
sS'pile-2-location'
p1055
I0
sS'slide-2-location'
p1056
I0
sS'muddle-2-food-location'
p1057
I0
sS'whirl-1-food'
p1058
I0
sS'reserve-1-food'
p1059
I9
sS'soak-1-location'
p1060
I0
sS'fill-2-location'
p1061
I0
sS'boil-1-location'
p1062
I0
sS'increase-2-food-location'
p1063
I0
sS'microwave-2-food'
p1064
I1
sS'loosen-2-food'
p1065
I0
sS'can-2-food'
p1066
I0
sS'open-1-food'
p1067
I1
sS'flute-1-location'
p1068
I0
sS'cool-2-food-location'
p1069
I0
sS'fold-1-food'
p1070
I39
sS'combine-2-location'
p1071
I0
sS'pour-2-food'
p1072
I54
sS'reserve-2-food'
p1073
I0
sS'end-2-location'
p1074
I0
sS'lift-2-food'
p1075
I0
sS'cool-2-location'
p1076
I0
sS'discard-2-location'
p1077
I0
sS'beat-2-food-location'
p1078
I0
sS'fit-2-location'
p1079
I1
sS'repeat-1-food'
p1080
I9
sS'dot-2-location'
p1081
I0
sS'flour-1-food'
p1082
I1
sS'saute-2-location'
p1083
I0
sS'hollow-1-food'
p1084
I0
sS'twist-1-location'
p1085
I0
sS'ask-2-location'
p1086
I0
sS'mash-2-food'
p1087
I10
sS'warm-1-food'
p1088
I1
sS'shred-2-food'
p1089
I2
sS'whipped-2-location'
p1090
I0
sS'dab-2-food-location'
p1091
I0
sS'create-2-food'
p1092
I0
sS'soak-1-food'
p1093
I0
sS'warm-2-food-location'
p1094
I2
sS'sort-1-location'
p1095
I0
sS'rest-1-location'
p1096
I0
sS'toast-1-food'
p1097
I1
sS'best-2-location'
p1098
I0
sS'steep-2-food'
p1099
I0
sS'brush-2-location'
p1100
I0
sS'scramble-1-location'
p1101
I0
sS'scoop-1-location'
p1102
I1
sS'smooth-1-food'
p1103
I0
sS'thicken-2-food'
p1104
I0
sS'follow-1-food'
p1105
I1
sS'preheat-2-food-location'
p1106
I2
sS'plunge-2-location'
p1107
I0
sS'halve-2-food-location'
p1108
I0
sS'squeeze-1-food'
p1109
I4
sS'stop-2-food'
p1110
I0
sS'scrub-1-location'
p1111
I0
sS'braise-2-location'
p1112
I0
sS'dunk-1-location'
p1113
I0
sS'serve-2-food'
p1114
I3
sS'pick-2-food-location'
p1115
I0
sS'crumble-2-food-location'
p1116
I23
sS'dip-2-food-location'
p1117
I0
sS'pour-2-food-location'
p1118
I57
sS'seal-2-food-location'
p1119
I0
sS'pull-2-food-location'
p1120
I0
sS'turn-1-location'
p1121
I1
sS'store-1-location'
p1122
I0
sS'crumb-2-food'
p1123
I0
sS'insert-2-food'
p1124
I0
sS'shave-2-food'
p1125
I0
sS'prick-2-location'
p1126
I0
sS'grease-1-food'
p1127
I4
sS'crush-2-location'
p1128
I0
sS'fluff-2-location'
p1129
I0
sS'surround-2-food'
p1130
I0
sS'run-2-food-location'
p1131
I0
sS'store-2-food-location'
p1132
I0
sS'tip-2-food-location'
p1133
I0
sS'crust-1-location'
p1134
I0
sS'brown-2-food'
p1135
I2
sS'pare-2-location'
p1136
I0
sS'churn-2-food'
p1137
I0
sS'follow-2-food'
p1138
I2
sS'wash-2-food'
p1139
I0
sS'dredge-1-food'
p1140
I1
sS'ensure-2-food-location'
p1141
I0
sS'freezing-1-location'
p1142
I0
sS'swirl-1-food'
p1143
I0
sS'lie-2-food-location'
p1144
I0
sS'baste-2-location'
p1145
I0
sS'tuck-2-food'
p1146
I0
sS'cheese-2-food-location'
p1147
I0
sS'skim-1-location'
p1148
I0
sS'round-2-food-location'
p1149
I0
sS'dredge-2-food-location'
p1150
I0
sS'replace-1-food'
p1151
I0
sS'rub-2-location'
p1152
I0
sS'store-2-food'
p1153
I0
sS'strain-1-food'
p1154
I1
sS'ease-1-location'
p1155
I0
sS'load-1-location'
p1156
I0
sS'split-1-food'
p1157
I2
sS'canned-1-location'
p1158
I0
sS'spray-1-location'
p1159
I1
sS'butter-2-food-location'
p1160
I2
sS'repeat-2-food'
p1161
I1
sS'whisk-2-food'
p1162
I221
sS'cook-1-location'
p1163
I0
sS'select-1-food'
p1164
I0
sS'oil-2-location'
p1165
I0
sS'fold-2-location'
p1166
I0
sS'wipe-1-location'
p1167
I2
sS'pass-2-food'
p1168
I0
sS'spread-2-food-location'
p1169
I6
sS'flavor-1-food'
p1170
I0
sS'smooth-2-food'
p1171
I0
sS'decrease-1-location'
p1172
I0
sS'apply-1-location'
p1173
I0
sS'raise-2-food-location'
p1174
I0
sS'separate-1-food'
p1175
I3
sS'form-2-location'
p1176
I0
sS'shake-2-location'
p1177
I0
sS'build-1-location'
p1178
I0
sS'make-1-food'
p1179
I0
sS'raise-1-food'
p1180
I0
sS'cool-1-location'
p1181
I0
sS'separate-2-food'
p1182
I0
sS'refrigerate-1-food'
p1183
I2
sS'puree-1-location'
p1184
I0
sS'start-2-location'
p1185
I0
sS'use-2-food'
p1186
I1
sS'insert-2-food-location'
p1187
I0
sS'work-2-food'
p1188
I0
sS'grease-1-location'
p1189
I56
sS'gather-1-location'
p1190
I0
sS'stream-1-location'
p1191
I0
sS'unwrap-2-food'
p1192
I0
sS'skim-2-food'
p1193
I0
sS'follow-2-food-location'
p1194
I0
sS'plunge-1-food'
p1195
I0
sS'pull-1-location'
p1196
I0
sS'apply-2-food-location'
p1197
I0
sS'braise-1-food'
p1198
I0
sS'handle-1-location'
p1199
I0
sS'invert-2-location'
p1200
I0
sS'grease-2-food'
p1201
I0
sS'surround-2-food-location'
p1202
I0
sS'preheat-1-food'
p1203
I0
sS'saute-1-food'
p1204
I9
sS'mince-2-location'
p1205
I0
sS'render-1-location'
p1206
I0
sS'invert-2-food-location'
p1207
I0
sS'begin-2-food'
p1208
I0
sS'discard-1-location'
p1209
I6
sS'flour-2-food'
p1210
I5
sS'heat-2-location'
p1211
I1
sS'cut-2-food-location'
p1212
I0
sS'open-2-food'
p1213
I0
sS'swirl-2-food-location'
p1214
I0
sS'hollow-2-food'
p1215
I0
sS'garnish-2-location'
p1216
I0
sS'whipped-1-food'
p1217
I0
sS'watch-2-location'
p1218
I0
sS'fold-1-location'
p1219
I0
sS'blanch-2-location'
p1220
I0
sS'loosen-1-location'
p1221
I0
sS'puree-2-location'
p1222
I0
sS'uncover-2-food-location'
p1223
I0
sS'empty-2-food-location'
p1224
I0
sS'roll-1-location'
p1225
I5
sS'reposition-1-location'
p1226
I0
sS'warm-1-location'
p1227
I0
sS'let-1-food'
p1228
I11
sS'lie-2-food'
p1229
I0
sS'unwrap-2-food-location'
p1230
I0
sS'scatter-1-food'
p1231
I0
sS'cube-2-food-location'
p1232
I0
sS'blend-2-location'
p1233
I0
sS'tap-1-food'
p1234
I1
sS'canned-2-food'
p1235
I0
sS'lower-2-food'
p1236
I1
sS'flip-1-location'
p1237
I0
sS'stretch-2-food'
p1238
I0
sS'brush-2-food-location'
p1239
I1
sS'dab-1-food'
p1240
I0
sS'plop-1-food'
p1241
I0
sS'hold-2-location'
p1242
I0
sS'scrub-2-food'
p1243
I0
sS'portion-2-food-location'
p1244
I0
sS'stir-2-food-location'
p1245
I69
sS'pour-2-location'
p1246
I4
sS'test-2-food'
p1247
I0
sS'stop-2-food-location'
p1248
I0
sS'cook-1-food'
p1249
I192
sS'stack-1-location'
p1250
I0
sS'alternate-1-food'
p1251
I0
sS'crust-1-food'
p1252
I0
sS'pass-2-location'
p1253
I0
sS'chop-2-food-location'
p1254
I1
sS'pulse-1-location'
p1255
I0
sS'shake-2-food'
p1256
I1
sS'start-2-food'
p1257
I0
sS'change-2-location'
p1258
I0
sS'whirl-2-food-location'
p1259
I0
sS'drain-2-location'
p1260
I0
sS'arrange-2-location'
p1261
I0
sS'pat-2-location'
p1262
I0
sS'alternate-2-food-location'
p1263
I1
sS'begin-1-location'
p1264
I0
sS'halve-2-location'
p1265
I0
sS'start-2-food-location'
p1266
I0
sS'push-2-food-location'
p1267
I2
sS'make-1-location'
p1268
I0
sS'shape-2-food-location'
p1269
I0
sS'bring-1-food'
p1270
I0
sS'build-2-location'
p1271
I0
sS'smoke-2-location'
p1272
I0
sS'oil-1-location'
p1273
I1
sS'leave-2-food-location'
p1274
I1
sS'transfer-2-food'
p1275
I4
sS'plunge-2-food'
p1276
I0
sS'throw-2-food'
p1277
I0
sS'have-2-food'
p1278
I0
sS'tent-2-location'
p1279
I0
sS'ensure-1-food'
p1280
I0
sS'lift-2-food-location'
p1281
I0
sS'melt-2-food-location'
p1282
I191
sS'ensure-2-location'
p1283
I0
sS'process-2-food'
p1284
I0
sS'coat-2-food'
p1285
I1
sS'thicken-2-location'
p1286
I0
sS'form-1-food'
p1287
I1
sS'spread-2-food'
p1288
I36
sS'raise-1-location'
p1289
I0
sS'lock-2-location'
p1290
I0
sS'whip-2-food-location'
p1291
I0
sS'scrape-2-food-location'
p1292
I2
sS'peel-2-location'
p1293
I0
sS'end-2-food-location'
p1294
I0
sS'dust-2-location'
p1295
I0
sS'water-2-food'
p1296
I0
sS'round-2-location'
p1297
I0
sS'crimp-1-location'
p1298
I0
sS'stop-2-location'
p1299
I0
sS'saute-2-food'
p1300
I16
sS'change-1-location'
p1301
I0
sS'separate-2-location'
p1302
I0
sS'sauce-2-location'
p1303
I0
sS'served-2-food-location'
p1304
I0
sS'top-1-location'
p1305
I0
sS'scatter-2-food-location'
p1306
I0
sS'mash-1-food'
p1307
I2
sS'pass-2-food-location'
p1308
I0
sS'salt-2-food-location'
p1309
I0
sS'makes-2-food'
p1310
I0
sS'break-2-food-location'
p1311
I7
sS'grate-1-food'
p1312
I0
sS'churn-1-food'
p1313
I0
sS'select-2-food'
p1314
I0
sS'scrub-2-location'
p1315
I0
sS'blend-1-location'
p1316
I0
sS'trim-1-location'
p1317
I0
sS'clean-2-location'
p1318
I0
sS'shred-2-location'
p1319
I0
sS'steam-1-food'
p1320
I0
sS'knead-2-food-location'
p1321
I0
sS'push-2-location'
p1322
I0
sS'load-2-food-location'
p1323
I0
sS'dab-2-food'
p1324
I0
sS'enjoy-1-food'
p1325
I0
sS'drop-2-food'
p1326
I3
sS'muddle-1-location'
p1327
I0
sS'keep-1-location'
p1328
I1
sS'marinate-1-location'
p1329
I0
sS'melt-1-food'
p1330
I4
sS'scrape-2-food'
p1331
I1
sS'mince-2-food-location'
p1332
I0
sS'beat-2-location'
p1333
I0
sS'steam-2-food'
p1334
I0
sS'cake-1-location'
p1335
I0
sS'sift-2-location'
p1336
I0
sS'sear-2-location'
p1337
I0
sS'adjust-1-location'
p1338
I1
sS'gather-1-food'
p1339
I0
sS'process-2-food-location'
p1340
I1
sS'icing-2-food-location'
p1341
I0
sS'smooth-2-location'
p1342
I0
sS'continue-2-location'
p1343
I0
sS'flute-2-food'
p1344
I0
sS'fry-2-food-location'
p1345
I12
sS'fry-2-location'
p1346
I0
sS'tilt-1-location'
p1347
I0
sS'poke-2-food'
p1348
I0
sS'keep-2-food-location'
p1349
I0
sS'fit-1-location'
p1350
I1
sS'repeat-2-food-location'
p1351
I0
sS'whip-2-food'
p1352
I0
sS'mound-2-food-location'
p1353
I0
sS'wear-2-location'
p1354
I0
sS'pound-1-food'
p1355
I1
sS'align-2-food-location'
p1356
I0
sS'butter-2-food'
p1357
I4
sS'slice-2-location'
p1358
I0
sS'flute-2-location'
p1359
I0
sS'move-2-food-location'
p1360
I0
sS'pick-1-food'
p1361
I0
sS'place-1-food'
p1362
I12
sS'flavor-2-food-location'
p1363
I0
sS'blanch-2-food'
p1364
I0
sS'julienne-2-food'
p1365
I0
sS'take-2-location'
p1366
I1
sS'cut-2-food'
p1367
I7
sS'dunk-1-food'
p1368
I0
sS'hold-1-food'
p1369
I0
sS'stretch-1-location'
p1370
I0
sS'mound-2-food'
p1371
I1
sS'shave-2-location'
p1372
I0
sS'stretch-1-food'
p1373
I0
sS'blend-2-food-location'
p1374
I2
sS'best-2-food-location'
p1375
I0
sS'knife-1-food'
p1376
I0
sS'pierce-1-location'
p1377
I0
sS'steep-2-location'
p1378
I0
sS'cream-1-food'
p1379
I0
sS'slice-1-location'
p1380
I0
sS'insert-1-location'
p1381
I0
sS'quarter-2-food-location'
p1382
I0
sS'grate-2-food'
p1383
I1
sS'crimp-2-food-location'
p1384
I0
sS'fit-2-food-location'
p1385
I0
sS'assemble-1-location'
p1386
I0
sS'tilt-2-food'
p1387
I0
sS'cover-2-location'
p1388
I0
sS'throw-1-location'
p1389
I0
sS'add-2-food-location'
p1390
I54
sS'baste-2-food-location'
p1391
I0
sS'halve-1-location'
p1392
I0
sS'divide-1-food'
p1393
I1
sS'load-2-food'
p1394
I1
sS'microwave-2-location'
p1395
I0
sS'watch-1-food'
p1396
I0
sS'surround-2-location'
p1397
I0
sS'can-2-location'
p1398
I0
sS'coating-2-food-location'
p1399
I0
sS'line-2-location'
p1400
I0
sS'smooth-2-food-location'
p1401
I0
sS'swirl-2-food'
p1402
I0
sS'divide-2-food-location'
p1403
I1
sS'tip-2-food'
p1404
I0
sS'take-2-food'
p1405
I0
sS'grease-2-location'
p1406
I0
sS'allow-2-location'
p1407
I0
sS'layer-2-food'
p1408
I11
sS'rest-1-food'
p1409
I0
sS'toss-1-food'
p1410
I23
sS'grind-1-location'
p1411
I0
sS'wrap-2-food'
p1412
I0
sS'roll-2-food'
p1413
I4
sS'rinse-1-location'
p1414
I1
sS'leave-2-location'
p1415
I0
s.