(dp0
S'fill-2'
p1
I0
sS'fill-0'
p2
I0
sS'fill-1'
p3
I2
sS'transfer-0'
p4
I0
sS'prepare-2'
p5
I2
sS'prepare-1'
p6
I0
sS'prepare-0'
p7
I0
sS'use-2'
p8
I1
sS'use-1'
p9
I1
sS'use-0'
p10
I0
sS'store-2'
p11
I1
sS'store-1'
p12
I0
sS'store-0'
p13
I0
sS'measure-2'
p14
I1
sS'measure-0'
p15
I0
sS'measure-1'
p16
I0
sS'remove-2'
p17
I3
sS'remove-1'
p18
I0
sS'remove-0'
p19
I0
sS'place-1'
p20
I0
sS'pour-2'
p21
I2
sS'add-1'
p22
I4
sS'pour-0'
p23
I0
sS'whisk-0'
p24
I0
sS'whisk-1'
p25
I0
sS'whisk-2'
p26
I5
sS'let-2'
p27
I2
sS'cut-2'
p28
I2
sS'transfer-1'
p29
I0
sS'spread-2'
p30
I2
sS'transfer-2'
p31
I1
sS'spread-0'
p32
I0
sS'spread-1'
p33
I0
sS'set-2'
p34
I0
sS'set-0'
p35
I1
sS'set-1'
p36
I2
sS'stir-1'
p37
I16
sS'sift-2'
p38
I3
sS'sift-1'
p39
I0
sS'sift-0'
p40
I0
sS'cool-2'
p41
I4
sS'cut-0'
p42
I0
sS'preheat-2'
p43
I18
sS'preheat-1'
p44
I0
sS'preheat-0'
p45
I0
sS'spoon-2'
p46
I10
sS'spoon-1'
p47
I3
sS'spoon-0'
p48
I0
sS'divide-0'
p49
I0
sS'divide-1'
p50
I0
sS'divide-2'
p51
I3
sS'cut-1'
p52
I0
sS'sprinkle-2'
p53
I2
sS'sprinkle-1'
p54
I2
sS'sprinkle-0'
p55
I0
sS'fold-0'
p56
I0
sS'fold-1'
p57
I5
sS'fold-2'
p58
I1
sS'cool-1'
p59
I0
sS'line-2'
p60
I5
sS'line-1'
p61
I6
sS'line-0'
p62
I0
sS'place-0'
p63
I0
sS'stir-0'
p64
I0
sS'scoop-0'
p65
I0
sS'cream-2'
p66
I2
sS'cream-0'
p67
I0
sS'cream-1'
p68
I0
sS'stir-2'
p69
I10
sS'note-1'
p70
I0
sS'note-0'
p71
I2
sS'note-2'
p72
I0
sS'distribute-2'
p73
I1
sS'distribute-0'
p74
I0
sS'distribute-1'
p75
I0
sS'process-1'
p76
I1
sS'heat-2'
p77
I1
sS'heat-1'
p78
I0
sS'heat-0'
p79
I0
sS'cool-0'
p80
I0
sS'let-1'
p81
I0
sS'spray-2'
p82
I4
sS'spray-1'
p83
I0
sS'spray-0'
p84
I0
sS'place-2'
p85
I2
sS'press-2'
p86
I0
sS'bake-2'
p87
I21
sS'scoop-1'
p88
I2
sS'bake-0'
p89
I0
sS'bake-1'
p90
I2
sS'scoop-2'
p91
I1
sS'let-0'
p92
I0
sS'grease-2'
p93
I3
sS'grease-0'
p94
I0
sS'grease-1'
p95
I5
sS'combine-1'
p96
I1
sS'combine-0'
p97
I0
sS'combine-2'
p98
I8
sS'lay-0'
p99
I0
sS'lay-1'
p100
I0
sS'lay-2'
p101
I1
sS'make-2'
p102
I1
sS'make-1'
p103
I0
sS'make-0'
p104
I0
sS'blend-1'
p105
I1
sS'blend-0'
p106
I0
sS'blend-2'
p107
I3
sS'beat-1'
p108
I1
sS'beat-0'
p109
I0
sS'beat-2'
p110
I7
sS'mix-0'
p111
I0
sS'mix-1'
p112
I6
sS'mix-2'
p113
I20
sS'coat-0'
p114
I0
sS'coat-1'
p115
I0
sS'coat-2'
p116
I2
sS'add-2'
p117
I7
sS'pour-1'
p118
I1
sS'process-0'
p119
I0
sS'press-1'
p120
I1
sS'press-0'
p121
I0
sS'add-0'
p122
I0
sS'process-2'
p123
I0
s.(dp0
S'cream-2-location'
p1
I0
sS'combine-1-location'
p2
I0
sS'use-2-location'
p3
I1
sS'lay-2-food-location'
p4
I0
sS'spoon-2-food-location'
p5
I0
sS'make-2-location'
p6
I0
sS'remove-1-food'
p7
I0
sS'measure-2-location'
p8
I0
sS'make-1-food'
p9
I0
sS'note-2-location'
p10
I0
sS'beat-2-location'
p11
I0
sS'beat-2-food-location'
p12
I6
sS'scoop-2-food'
p13
I0
sS'mix-2-food'
p14
I5
sS'store-1-location'
p15
I0
sS'note-2-food'
p16
I0
sS'blend-2-location'
p17
I0
sS'sprinkle-1-food'
p18
I1
sS'distribute-1-location'
p19
I0
sS'let-2-location'
p20
I0
sS'bake-1-location'
p21
I1
sS'cream-2-food-location'
p22
I1
sS'scoop-2-location'
p23
I0
sS'cut-1-location'
p24
I0
sS'measure-1-food'
p25
I0
sS'spray-2-location'
p26
I0
sS'store-2-food'
p27
I0
sS'sift-1-location'
p28
I0
sS'spread-2-location'
p29
I0
sS'whisk-2-location'
p30
I0
sS'use-1-food'
p31
I0
sS'prepare-1-food'
p32
I0
sS'remove-2-food'
p33
I0
sS'distribute-2-food'
p34
I0
sS'press-2-food'
p35
I0
sS'mix-1-location'
p36
I0
sS'mix-1-food'
p37
I2
sS'cool-2-food'
p38
I0
sS'line-1-location'
p39
I0
sS'sift-2-food'
p40
I3
sS'preheat-2-food'
p41
I0
sS'note-1-location'
p42
I0
sS'fill-2-location'
p43
I0
sS'remove-2-location'
p44
I0
sS'heat-1-food'
p45
I0
sS'spray-1-location'
p46
I0
sS'note-1-food'
p47
I0
sS'prepare-2-food-location'
p48
I0
sS'measure-2-food-location'
p49
I1
sS'use-2-food-location'
p50
I0
sS'combine-2-food-location'
p51
I7
sS'add-2-location'
p52
I0
sS'pour-1-location'
p53
I0
sS'set-1-location'
p54
I0
sS'spoon-1-food'
p55
I0
sS'distribute-2-location'
p56
I0
sS'transfer-2-food-location'
p57
I0
sS'place-2-food'
p58
I0
sS'fold-2-food'
p59
I0
sS'fold-2-location'
p60
I0
sS'cool-2-food-location'
p61
I0
sS'cut-1-food'
p62
I0
sS'spray-2-food-location'
p63
I0
sS'fill-1-food'
p64
I0
sS'transfer-1-food'
p65
I0
sS'spread-2-food-location'
p66
I0
sS'let-2-food-location'
p67
I0
sS'fold-1-food'
p68
I2
sS'combine-2-location'
p69
I0
sS'add-1-food'
p70
I3
sS'mix-2-food-location'
p71
I10
sS'divide-1-location'
p72
I0
sS'process-2-food'
p73
I0
sS'stir-1-food'
p74
I6
sS'store-2-location'
p75
I0
sS'press-1-location'
p76
I1
sS'sprinkle-2-food-location'
p77
I0
sS'transfer-2-location'
p78
I0
sS'cool-2-location'
p79
I0
sS'place-2-location'
p80
I0
sS'blend-2-food'
p81
I1
sS'measure-2-food'
p82
I0
sS'store-1-food'
p83
I0
sS'press-1-food'
p84
I0
sS'sprinkle-2-location'
p85
I0
sS'place-2-food-location'
p86
I1
sS'spoon-2-location'
p87
I1
sS'beat-1-location'
p88
I0
sS'grease-2-food'
p89
I0
sS'let-1-location'
p90
I0
sS'transfer-1-location'
p91
I0
sS'prepare-1-location'
p92
I0
sS'beat-1-food'
p93
I1
sS'bake-1-food'
p94
I0
sS'scoop-2-food-location'
p95
I0
sS'sift-2-location'
p96
I0
sS'grease-2-location'
p97
I0
sS'cool-1-location'
p98
I0
sS'spray-2-food'
p99
I0
sS'place-1-food'
p100
I0
sS'use-1-location'
p101
I0
sS'combine-1-food'
p102
I0
sS'stir-2-location'
p103
I0
sS'sift-1-food'
p104
I0
sS'whisk-2-food-location'
p105
I2
sS'fold-2-food-location'
p106
I0
sS'transfer-2-food'
p107
I0
sS'prepare-2-food'
p108
I0
sS'use-2-food'
p109
I0
sS'cut-2-food'
p110
I0
sS'sift-2-food-location'
p111
I0
sS'scoop-1-food'
p112
I0
sS'grease-1-location'
p113
I4
sS'press-2-food-location'
p114
I0
sS'fill-2-food'
p115
I0
sS'cream-2-food'
p116
I1
sS'coat-2-food'
p117
I0
sS'bake-2-location'
p118
I0
sS'lay-2-location'
p119
I0
sS'spread-2-food'
p120
I0
sS'let-2-food'
p121
I0
sS'spread-1-food'
p122
I0
sS'blend-2-food-location'
p123
I1
sS'coat-2-food-location'
p124
I0
sS'bake-2-food'
p125
I0
sS'cream-1-food'
p126
I0
sS'coat-1-location'
p127
I0
sS'process-1-food'
p128
I0
sS'note-2-food-location'
p129
I0
sS'lay-1-location'
p130
I0
sS'process-1-location'
p131
I0
sS'divide-2-food'
p132
I0
sS'preheat-2-food-location'
p133
I0
sS'pour-1-food'
p134
I0
sS'add-2-food'
p135
I4
sS'sprinkle-1-location'
p136
I1
sS'set-2-food-location'
p137
I0
sS'lay-2-food'
p138
I0
sS'set-2-food'
p139
I0
sS'stir-1-location'
p140
I2
sS'cut-2-location'
p141
I0
sS'stir-2-food-location'
p142
I2
sS'add-2-food-location'
p143
I0
sS'place-1-location'
p144
I0
sS'preheat-1-location'
p145
I0
sS'distribute-1-food'
p146
I0
sS'pour-2-food'
p147
I0
sS'spread-1-location'
p148
I0
sS'scoop-1-location'
p149
I2
sS'divide-1-food'
p150
I0
sS'line-2-food'
p151
I0
sS'blend-1-food'
p152
I1
sS'grease-2-food-location'
p153
I0
sS'heat-2-food-location'
p154
I0
sS'preheat-1-food'
p155
I0
sS'spoon-1-location'
p156
I2
sS'press-2-location'
p157
I0
sS'whisk-1-food'
p158
I0
sS'coat-2-location'
p159
I0
sS'process-2-food-location'
p160
I0
sS'fill-1-location'
p161
I2
sS'measure-1-location'
p162
I0
sS'make-2-food-location'
p163
I0
sS'line-2-location'
p164
I1
sS'pour-2-food-location'
p165
I0
sS'beat-2-food'
p166
I0
sS'blend-1-location'
p167
I0
sS'prepare-2-location'
p168
I0
sS'spoon-2-food'
p169
I0
sS'line-2-food-location'
p170
I0
sS'mix-2-location'
p171
I0
sS'process-2-location'
p172
I0
sS'combine-2-food'
p173
I0
sS'divide-2-food-location'
p174
I0
sS'bake-2-food-location'
p175
I0
sS'cream-1-location'
p176
I0
sS'grease-1-food'
p177
I0
sS'heat-1-location'
p178
I0
sS'whisk-2-food'
p179
I2
sS'set-2-location'
p180
I0
sS'fill-2-food-location'
p181
I0
sS'make-1-location'
p182
I0
sS'set-1-food'
p183
I0
sS'cool-1-food'
p184
I0
sS'fold-1-location'
p185
I0
sS'sprinkle-2-food'
p186
I0
sS'heat-2-location'
p187
I0
sS'make-2-food'
p188
I0
sS'stir-2-food'
p189
I4
sS'pour-2-location'
p190
I0
sS'preheat-2-location'
p191
I0
sS'heat-2-food'
p192
I0
sS'coat-1-food'
p193
I0
sS'add-1-location'
p194
I0
sS'distribute-2-food-location'
p195
I0
sS'divide-2-location'
p196
I0
sS'store-2-food-location'
p197
I0
sS'whisk-1-location'
p198
I0
sS'lay-1-food'
p199
I0
sS'remove-2-food-location'
p200
I0
sS'line-1-food'
p201
I0
sS'remove-1-location'
p202
I0
sS'cut-2-food-location'
p203
I0
sS'spray-1-food'
p204
I0
sS'let-1-food'
p205
I0
s.(dp0
S'divide-DOBJ-false'
p1
I0
sS'scoop-DOBJPARG-false'
p2
I0
sS'remove-DOBJ-true'
p3
I0
sS'measure-PARG-false'
p4
I0
sS'spoon-DOBJ-false'
p5
I0
sS'set-DOBJPARG-true'
p6
I0
sS'preheat-DOBJPARG-true'
p7
I18
sS'coat-DOBJPARG-false'
p8
I0
sS'spread-DOBJ-false'
p9
I0
sS'set--false'
p10
I3
sS'cool-DOBJ-true'
p11
I0
sS'note--false'
p12
I2
sS'press-DOBJ-false'
p13
I0
sS'remove-DOBJPARG-false'
p14
I0
sS'sprinkle-PARG-true'
p15
I2
sS'bake--false'
p16
I0
sS'make-DOBJ-true'
p17
I0
sS'coat-DOBJ-false'
p18
I0
sS'line-DOBJPARG-true'
p19
I4
sS'spray-PARG-false'
p20
I0
sS'press-PARG-false'
p21
I0
sS'set-PARG-true'
p22
I0
sS'line-DOBJPARG-false'
p23
I0
sS'scoop-PARG-true'
p24
I2
sS'make--false'
p25
I0
sS'divide-PARG-false'
p26
I0
sS'add-DOBJPARG-false'
p27
I0
sS'whisk-PARG-true'
p28
I1
sS'preheat-DOBJ-true'
p29
I0
sS'fold-DOBJ-true'
p30
I0
sS'spoon-PARG-false'
p31
I0
sS'cream-PARG-false'
p32
I0
sS'combine-PARG-false'
p33
I0
sS'beat-DOBJPARG-true'
p34
I6
sS'distribute-DOBJ-true'
p35
I0
sS'pour-DOBJ-true'
p36
I0
sS'place-DOBJPARG-true'
p37
I1
sS'measure-DOBJ-false'
p38
I0
sS'blend-DOBJ-true'
p39
I0
sS'combine-DOBJ-true'
p40
I1
sS'bake-PARG-true'
p41
I22
sS'blend-PARG-true'
p42
I2
sS'fill-DOBJ-true'
p43
I2
sS'whisk-PARG-false'
p44
I0
sS'distribute-PARG-false'
p45
I0
sS'place-PARG-true'
p46
I1
sS'remove-PARG-false'
p47
I0
sS'make-PARG-true'
p48
I0
sS'sift-DOBJPARG-true'
p49
I0
sS'press-PARG-true'
p50
I1
sS'lay-DOBJPARG-false'
p51
I0
sS'cool-DOBJPARG-true'
p52
I2
sS'sift-DOBJ-false'
p53
I0
sS'coat--false'
p54
I0
sS'mix-DOBJPARG-true'
p55
I16
sS'coat-DOBJ-true'
p56
I0
sS'sift-DOBJPARG-false'
p57
I0
sS'cut-DOBJ-true'
p58
I0
sS'lay-PARG-false'
p59
I0
sS'use-PARG-false'
p60
I0
sS'sift-DOBJ-true'
p61
I3
sS'lay-PARG-true'
p62
I0
sS'distribute-DOBJPARG-false'
p63
I0
sS'store-DOBJ-true'
p64
I0
sS'mix-PARG-false'
p65
I0
sS'beat-PARG-false'
p66
I0
sS'press-DOBJ-true'
p67
I0
sS'prepare-PARG-false'
p68
I0
sS'spoon--false'
p69
I0
sS'combine-PARG-true'
p70
I0
sS'store-DOBJ-false'
p71
I0
sS'sift--false'
p72
I0
sS'combine-DOBJPARG-true'
p73
I7
sS'fold-DOBJPARG-false'
p74
I0
sS'prepare-DOBJPARG-false'
p75
I0
sS'remove-DOBJPARG-true'
p76
I3
sS'use-DOBJPARG-false'
p77
I0
sS'cool-DOBJ-false'
p78
I0
sS'add-DOBJPARG-true'
p79
I2
sS'divide-PARG-true'
p80
I1
sS'transfer-DOBJPARG-false'
p81
I0
sS'set-DOBJ-true'
p82
I0
sS'stir-DOBJ-false'
p83
I0
sS'fill-PARG-false'
p84
I0
sS'preheat-PARG-true'
p85
I0
sS'measure--false'
p86
I0
sS'fill-DOBJPARG-true'
p87
I0
sS'combine-DOBJPARG-false'
p88
I0
sS'fold-PARG-true'
p89
I5
sS'fill-PARG-true'
p90
I0
sS'sprinkle-DOBJPARG-false'
p91
I0
sS'grease-DOBJPARG-false'
p92
I0
sS'fold-DOBJPARG-true'
p93
I1
sS'note-DOBJPARG-true'
p94
I0
sS'add-DOBJ-true'
p95
I6
sS'make-DOBJPARG-false'
p96
I0
sS'store--false'
p97
I0
sS'fold--false'
p98
I0
sS'whisk-DOBJ-false'
p99
I0
sS'let-DOBJPARG-true'
p100
I2
sS'spray-DOBJPARG-true'
p101
I4
sS'spray-DOBJ-false'
p102
I0
sS'process-PARG-false'
p103
I0
sS'store-DOBJPARG-true'
p104
I1
sS'store-PARG-true'
p105
I0
sS'blend-DOBJPARG-false'
p106
I0
sS'preheat-DOBJ-false'
p107
I0
sS'bake-DOBJ-true'
p108
I0
sS'cut-PARG-true'
p109
I2
sS'distribute-PARG-true'
p110
I0
sS'note-DOBJPARG-false'
p111
I0
sS'transfer-PARG-false'
p112
I0
sS'whisk-DOBJPARG-false'
p113
I0
sS'stir-DOBJ-true'
p114
I0
sS'spread-DOBJPARG-true'
p115
I1
sS'heat-DOBJ-true'
p116
I0
sS'beat-DOBJ-true'
p117
I0
sS'note-PARG-true'
p118
I0
sS'prepare--false'
p119
I0
sS'bake-PARG-false'
p120
I0
sS'whisk-DOBJPARG-true'
p121
I3
sS'spread-PARG-true'
p122
I1
sS'stir-PARG-false'
p123
I0
sS'set-DOBJPARG-false'
p124
I0
sS'transfer-DOBJ-true'
p125
I0
sS'cut-DOBJPARG-true'
p126
I0
sS'heat-PARG-false'
p127
I0
sS'prepare-DOBJ-true'
p128
I0
sS'distribute--false'
p129
I0
sS'note-PARG-false'
p130
I0
sS'measure-DOBJPARG-true'
p131
I1
sS'spread--false'
p132
I0
sS'distribute-DOBJ-false'
p133
I0
sS'blend-DOBJPARG-true'
p134
I2
sS'line-DOBJ-false'
p135
I0
sS'spread-DOBJPARG-false'
p136
I0
sS'sprinkle-DOBJ-true'
p137
I0
sS'beat--false'
p138
I0
sS'pour-PARG-false'
p139
I0
sS'use-DOBJ-true'
p140
I1
sS'measure-DOBJ-true'
p141
I0
sS'remove-PARG-true'
p142
I0
sS'line-DOBJ-true'
p143
I0
sS'mix-PARG-true'
p144
I5
sS'fill-DOBJPARG-false'
p145
I0
sS'process-PARG-true'
p146
I1
sS'make-DOBJ-false'
p147
I0
sS'use-DOBJ-false'
p148
I0
sS'heat-DOBJPARG-true'
p149
I1
sS'blend-PARG-false'
p150
I0
sS'process-DOBJ-true'
p151
I0
sS'process--false'
p152
I0
sS'grease-DOBJ-true'
p153
I7
sS'transfer-DOBJ-false'
p154
I0
sS'prepare-DOBJ-false'
p155
I0
sS'cream-DOBJPARG-false'
p156
I0
sS'mix--false'
p157
I2
sS'add-DOBJ-false'
p158
I0
sS'preheat--false'
p159
I0
sS'grease--false'
p160
I0
sS'spray-DOBJ-true'
p161
I0
sS'pour--false'
p162
I0
sS'fold-PARG-false'
p163
I0
sS'let--false'
p164
I0
sS'divide-DOBJPARG-true'
p165
I2
sS'spray--false'
p166
I0
sS'pour-PARG-true'
p167
I1
sS'measure-PARG-true'
p168
I0
sS'cut--false'
p169
I0
sS'transfer-DOBJPARG-true'
p170
I0
sS'press-DOBJPARG-true'
p171
I0
sS'bake-DOBJ-false'
p172
I0
sS'prepare-DOBJPARG-true'
p173
I2
sS'use-DOBJPARG-true'
p174
I1
sS'pour-DOBJ-false'
p175
I0
sS'add-PARG-false'
p176
I0
sS'beat-DOBJPARG-false'
p177
I0
sS'beat-PARG-true'
p178
I2
sS'cut-DOBJPARG-false'
p179
I0
sS'place-DOBJ-false'
p180
I0
sS'line-PARG-false'
p181
I0
sS'mix-DOBJ-true'
p182
I3
sS'spread-DOBJ-true'
p183
I0
sS'sprinkle-PARG-false'
p184
I0
sS'set-DOBJ-false'
p185
I0
sS'spoon-DOBJPARG-true'
p186
I9
sS'remove--false'
p187
I0
sS'stir-PARG-true'
p188
I16
sS'spoon-PARG-true'
p189
I4
sS'lay-DOBJPARG-true'
p190
I1
sS'make-PARG-false'
p191
I0
sS'scoop--false'
p192
I0
sS'place-PARG-false'
p193
I0
sS'process-DOBJPARG-false'
p194
I0
sS'lay-DOBJ-false'
p195
I0
sS'sprinkle-DOBJPARG-true'
p196
I2
sS'spray-DOBJPARG-false'
p197
I0
sS'line--false'
p198
I0
sS'cream-PARG-true'
p199
I0
sS'lay-DOBJ-true'
p200
I0
sS'use-PARG-true'
p201
I0
sS'let-DOBJPARG-false'
p202
I0
sS'mix-DOBJPARG-false'
p203
I0
sS'place-DOBJ-true'
p204
I0
sS'cut-DOBJ-false'
p205
I0
sS'lay--false'
p206
I0
sS'sift-PARG-true'
p207
I0
sS'mix-DOBJ-false'
p208
I0
sS'fold-DOBJ-false'
p209
I0
sS'transfer-PARG-true'
p210
I1
sS'prepare-PARG-true'
p211
I0
sS'whisk--false'
p212
I0
sS'stir-DOBJPARG-true'
p213
I7
sS'cream-DOBJ-true'
p214
I0
sS'coat-DOBJPARG-true'
p215
I2
sS'scoop-PARG-false'
p216
I0
sS'sprinkle-DOBJ-false'
p217
I0
sS'press--false'
p218
I0
sS'note-DOBJ-true'
p219
I0
sS'divide--false'
p220
I0
sS'divide-DOBJPARG-false'
p221
I0
sS'bake-DOBJPARG-false'
p222
I0
sS'blend-DOBJ-false'
p223
I0
sS'grease-PARG-false'
p224
I0
sS'use--false'
p225
I0
sS'combine-DOBJ-false'
p226
I0
sS'fill--false'
p227
I0
sS'sift-PARG-false'
p228
I0
sS'add-PARG-true'
p229
I3
sS'transfer--false'
p230
I0
sS'divide-DOBJ-true'
p231
I0
sS'set-PARG-false'
p232
I0
sS'preheat-PARG-false'
p233
I0
sS'beat-DOBJ-false'
p234
I0
sS'remove-DOBJ-false'
p235
I0
sS'grease-DOBJPARG-true'
p236
I1
sS'let-PARG-false'
p237
I0
sS'spread-PARG-false'
p238
I0
sS'press-DOBJPARG-false'
p239
I0
sS'let-DOBJ-false'
p240
I0
sS'whisk-DOBJ-true'
p241
I1
sS'store-DOBJPARG-false'
p242
I0
sS'line-PARG-true'
p243
I7
sS'store-PARG-false'
p244
I0
sS'make-DOBJPARG-true'
p245
I1
sS'place-DOBJPARG-false'
p246
I0
sS'cream--false'
p247
I0
sS'distribute-DOBJPARG-true'
p248
I1
sS'let-DOBJ-true'
p249
I0
sS'combine--false'
p250
I1
sS'cut-PARG-false'
p251
I0
sS'grease-DOBJ-false'
p252
I0
sS'bake-DOBJPARG-true'
p253
I1
sS'pour-DOBJPARG-false'
p254
I0
sS'cool-DOBJPARG-false'
p255
I0
sS'stir-DOBJPARG-false'
p256
I0
sS'cream-DOBJPARG-true'
p257
I2
sS'fill-DOBJ-false'
p258
I0
sS'coat-PARG-false'
p259
I0
sS'scoop-DOBJ-true'
p260
I0
sS'coat-PARG-true'
p261
I0
sS'spoon-DOBJ-true'
p262
I0
sS'preheat-DOBJPARG-false'
p263
I0
sS'let-PARG-true'
p264
I0
sS'spray-PARG-true'
p265
I0
sS'cool--false'
p266
I0
sS'scoop-DOBJ-false'
p267
I0
sS'place--false'
p268
I0
sS'heat-DOBJ-false'
p269
I0
sS'measure-DOBJPARG-false'
p270
I0
sS'cool-PARG-true'
p271
I2
sS'spoon-DOBJPARG-false'
p272
I0
sS'add--false'
p273
I0
sS'pour-DOBJPARG-true'
p274
I2
sS'heat-DOBJPARG-false'
p275
I0
sS'scoop-DOBJPARG-true'
p276
I1
sS'process-DOBJPARG-true'
p277
I0
sS'heat--false'
p278
I0
sS'note-DOBJ-false'
p279
I0
sS'heat-PARG-true'
p280
I0
sS'grease-PARG-true'
p281
I0
sS'stir--false'
p282
I3
sS'cream-DOBJ-false'
p283
I0
sS'sprinkle--false'
p284
I0
sS'process-DOBJ-false'
p285
I0
sS'blend--false'
p286
I0
sS'cool-PARG-false'
p287
I0
s.(dp0
.(dp0
.