(dp0
S'decorate-1'
p1
I2
sS'invert-1'
p2
I1
sS'invert-0'
p3
I1
sS'open-0'
p4
I0
sS'plop-0'
p5
I0
sS'use-2'
p6
I37
sS'use-1'
p7
I8
sS'use-0'
p8
I1
sS'flute-2'
p9
I1
sS'flute-0'
p10
I1
sS'flute-1'
p11
I2
sS'decorate-2'
p12
I4
sS'icing-0'
p13
I3
sS'garnish-2'
p14
I36
sS'icing-1'
p15
I0
sS'garnish-0'
p16
I2
sS'garnish-1'
p17
I65
sS'form-2'
p18
I39
sS'form-1'
p19
I33
sS'form-0'
p20
I3
sS'smooth-1'
p21
I9
sS'smooth-0'
p22
I11
sS'tap-2'
p23
I4
sS'smooth-2'
p24
I4
sS'pound-2'
p25
I1
sS'pound-0'
p26
I0
sS'pound-1'
p27
I1
sS'whisk-0'
p28
I0
sS'whisk-1'
p29
I61
sS'whisk-2'
p30
I407
sS'flip-2'
p31
I4
sS'score-2'
p32
I0
sS'score-0'
p33
I0
sS'score-1'
p34
I1
sS'icing-2'
p35
I0
sS'whipped-2'
p36
I0
sS'whipped-1'
p37
I1
sS'whipped-0'
p38
I0
sS'baste-2'
p39
I3
sS'baste-1'
p40
I1
sS'baste-0'
p41
I0
sS'pull-0'
p42
I2
sS'pull-1'
p43
I3
sS'pull-2'
p44
I8
sS'cake-1'
p45
I4
sS'cake-0'
p46
I2
sS'cake-2'
p47
I2
sS'build-1'
p48
I1
sS'spoon-2'
p49
I191
sS'spoon-1'
p50
I51
sS'spoon-0'
p51
I0
sS'arrange-2'
p52
I144
sS'arrange-0'
p53
I1
sS'arrange-1'
p54
I7
sS'shred-2'
p55
I41
sS'shred-0'
p56
I4
sS'shred-1'
p57
I22
sS'crimp-2'
p58
I2
sS'shake-2'
p59
I8
sS'crimp-1'
p60
I3
sS'shake-0'
p61
I1
sS'shake-1'
p62
I24
sS'plop-1'
p63
I0
sS'reserve-2'
p64
I26
sS'flip-1'
p65
I3
sS'reserve-0'
p66
I11
sS'reserve-1'
p67
I32
sS'salt-1'
p68
I1
sS'decorate-0'
p69
I0
sS'salt-2'
p70
I1
sS'prick-1'
p71
I1
sS'prick-0'
p72
I0
sS'prick-2'
p73
I3
sS'cool-2'
p74
I125
sS'split-1'
p75
I3
sS'cool-0'
p76
I147
sS'cool-1'
p77
I124
sS'refrigerate-0'
p78
I52
sS'refrigerate-1'
p79
I173
sS'refrigerate-2'
p80
I130
sS'halve-0'
p81
I0
sS'cheese-0'
p82
I7
sS'line-2'
p83
I46
sS'line-1'
p84
I29
sS'line-0'
p85
I0
sS'sort-1'
p86
I1
sS'sort-0'
p87
I1
sS'sort-2'
p88
I0
sS'grate-1'
p89
I1
sS'grate-0'
p90
I1
sS'grate-2'
p91
I13
sS'cook-1'
p92
I806
sS'cook-0'
p93
I13
sS'cook-2'
p94
I1272
sS'pierce-0'
p95
I0
sS'surround-0'
p96
I0
sS'smoke-1'
p97
I0
sS'microwave-2'
p98
I12
sS'microwave-1'
p99
I5
sS'microwave-0'
p100
I0
sS'halve-2'
p101
I1
sS'tuck-2'
p102
I1
sS'heat-2'
p103
I525
sS'heat-1'
p104
I83
sS'heat-0'
p105
I2
sS'render-2'
p106
I1
sS'render-1'
p107
I0
sS'render-0'
p108
I0
sS'loosen-2'
p109
I1
sS'dip-1'
p110
I1
sS'dip-0'
p111
I1
sS'dip-2'
p112
I60
sS'place-1'
p113
I199
sS'place-0'
p114
I10
sS'spray-1'
p115
I8
sS'spray-0'
p116
I2
sS'trim-1'
p117
I3
sS'trim-0'
p118
I1
sS'trim-2'
p119
I8
sS'ready-1'
p120
I2
sS'ready-0'
p121
I0
sS'ready-2'
p122
I3
sS'scrape-2'
p123
I16
sS'turn-0'
p124
I2
sS'turn-1'
p125
I29
sS'turn-2'
p126
I44
sS'pipe-1'
p127
I9
sS'scrape-1'
p128
I3
sS'pipe-2'
p129
I14
sS'flatten-0'
p130
I0
sS'flatten-1'
p131
I8
sS'flatten-2'
p132
I3
sS'clean-0'
p133
I1
sS'keep-0'
p134
I3
sS'coating-0'
p135
I0
sS'fit-2'
p136
I10
sS'fit-1'
p137
I2
sS'keep-1'
p138
I16
sS'cover-1'
p139
I533
sS'cover-0'
p140
I165
sS'ladle-0'
p141
I0
sS'cover-2'
p142
I169
sS'round-0'
p143
I0
sS'round-1'
p144
I2
sS'round-2'
p145
I0
sS'thread-0'
p146
I0
sS'wash-0'
p147
I2
sS'wash-1'
p148
I6
sS'wash-2'
p149
I0
sS'bring-0'
p150
I2
sS'bring-1'
p151
I343
sS'bring-2'
p152
I710
sS'warm-2'
p153
I8
sS'pinch-0'
p154
I0
sS'pinch-1'
p155
I3
sS'pinch-2'
p156
I8
sS'tear-2'
p157
I8
sS'lie-0'
p158
I0
sS'reshape-2'
p159
I1
sS'open-1'
p160
I2
sS'replace-2'
p161
I3
sS'open-2'
p162
I3
sS'broil-0'
p163
I1
sS'broil-1'
p164
I9
sS'broil-2'
p165
I14
sS'blanch-0'
p166
I0
sS'crumble-2'
p167
I55
sS'crumble-0'
p168
I13
sS'crumble-1'
p169
I41
sS'note-2'
p170
I0
sS'wear-0'
p171
I0
sS'wear-1'
p172
I0
sS'wear-2'
p173
I1
sS'lie-1'
p174
I0
sS'grill-0'
p175
I1
sS'grill-1'
p176
I7
sS'grill-2'
p177
I31
sS'make-2'
p178
I45
sS'make-1'
p179
I1
sS'make-0'
p180
I0
sS'wipe-0'
p181
I0
sS'wipe-1'
p182
I2
sS'wipe-2'
p183
I6
sS'scrape-0'
p184
I0
sS'drain-0'
p185
I502
sS'reshape-0'
p186
I0
sS'reshape-1'
p187
I0
sS'lie-2'
p188
I1
sS'warm-1'
p189
I5
sS'muddle-0'
p190
I0
sS'muddle-1'
p191
I0
sS'muddle-2'
p192
I1
sS'knife-2'
p193
I3
sS'knife-1'
p194
I0
sS'knife-0'
p195
I0
sS'blend-1'
p196
I64
sS'blend-0'
p197
I1
sS'blend-2'
p198
I77
sS'flour-0'
p199
I31
sS'flour-1'
p200
I13
sS'flour-2'
p201
I16
sS'oil-2'
p202
I36
sS'oil-0'
p203
I3
sS'oil-1'
p204
I18
sS'warm-0'
p205
I3
sS'twist-1'
p206
I0
sS'twist-0'
p207
I0
sS'twist-2'
p208
I1
sS'gather-2'
p209
I2
sS'gather-0'
p210
I0
sS'gather-1'
p211
I1
sS'pass-2'
p212
I2
sS'pass-0'
p213
I0
sS'pass-1'
p214
I1
sS'drizzle-0'
p215
I1
sS'pulse-2'
p216
I15
sS'pulse-1'
p217
I9
sS'pulse-0'
p218
I0
sS'check-0'
p219
I0
sS'check-1'
p220
I4
sS'check-2'
p221
I6
sS'simmer-0'
p222
I22
sS'simmer-1'
p223
I226
sS'simmer-2'
p224
I164
sS'sauce-2'
p225
I13
sS'taste-1'
p226
I11
sS'taste-0'
p227
I4
sS'toss-2'
p228
I244
sS'taste-2'
p229
I1
sS'reheat-2'
p230
I6
sS'poke-0'
p231
I0
sS'reheat-0'
p232
I0
sS'reheat-1'
p233
I1
sS'overlap-2'
p234
I1
sS'overlap-1'
p235
I0
sS'poke-1'
p236
I0
sS'surround-2'
p237
I1
sS'fill-2'
p238
I175
sS'fill-0'
p239
I0
sS'fill-1'
p240
I14
sS'invert-2'
p241
I4
sS'smoke-2'
p242
I2
sS'knead-1'
p243
I6
sS'can-1'
p244
I0
sS'rub-1'
p245
I3
sS'rub-0'
p246
I0
sS'rub-2'
p247
I29
sS'stack-0'
p248
I0
sS'stack-1'
p249
I1
sS'stack-2'
p250
I0
sS'store-2'
p251
I13
sS'store-1'
p252
I9
sS'store-0'
p253
I1
sS'can-2'
p254
I8
sS'canned-0'
p255
I0
sS'canned-1'
p256
I0
sS'canned-2'
p257
I1
sS'carve-1'
p258
I0
sS'carve-0'
p259
I0
sS'carve-2'
p260
I1
sS'braise-1'
p261
I0
sS'lower-2'
p262
I12
sS'lower-1'
p263
I7
sS'lower-0'
p264
I0
sS'smoke-0'
p265
I1
sS'pour-2'
p266
I650
sS'pour-1'
p267
I344
sS'pour-0'
p268
I5
sS'work-2'
p269
I4
sS'work-0'
p270
I0
sS'work-1'
p271
I0
sS'shave-0'
p272
I0
sS'scatter-1'
p273
I1
sS'finish-0'
p274
I0
sS'finish-1'
p275
I2
sS'raise-0'
p276
I0
sS'raise-1'
p277
I0
sS'shave-1'
p278
I1
sS'assemble-1'
p279
I0
sS'assemble-0'
p280
I0
sS'assemble-2'
p281
I3
sS'load-1'
p282
I0
sS'shave-2'
p283
I0
sS'top-2'
p284
I137
sS'top-1'
p285
I292
sS'top-0'
p286
I1
sS'break-1'
p287
I4
sS'break-0'
p288
I1
sS'break-2'
p289
I24
sS'preheat-2'
p290
I921
sS'preheat-1'
p291
I9
sS'preheat-0'
p292
I0
sS'load-0'
p293
I0
sS'can-0'
p294
I0
sS'tip-1'
p295
I4
sS'tip-0'
p296
I2
sS'tip-2'
p297
I1
sS'run-1'
p298
I0
sS'loosen-1'
p299
I0
sS'run-2'
p300
I13
sS'leave-1'
p301
I1
sS'leave-0'
p302
I0
sS'leave-2'
p303
I8
sS'stream-2'
p304
I5
sS'adjust-2'
p305
I20
sS'adjust-0'
p306
I3
sS'adjust-1'
p307
I6
sS'season-0'
p308
I2
sS'season-1'
p309
I302
sS'season-2'
p310
I202
sS'test-1'
p311
I0
sS'test-0'
p312
I0
sS'test-2'
p313
I1
sS'fold-0'
p314
I0
sS'fold-1'
p315
I63
sS'fold-2'
p316
I76
sS'thicken-0'
p317
I0
sS'thicken-1'
p318
I0
sS'thicken-2'
p319
I3
sS'crimp-0'
p320
I0
sS'grind-2'
p321
I4
sS'halve-1'
p322
I9
sS'grind-0'
p323
I0
sS'grind-1'
p324
I1
sS'dab-2'
p325
I1
sS'dab-1'
p326
I1
sS'dab-0'
p327
I0
sS'stir-0'
p328
I190
sS'bake-2'
p329
I980
sS'cream-2'
p330
I26
sS'cream-0'
p331
I3
sS'cream-1'
p332
I2
sS'stir-2'
p333
I1224
sS'drizzle-1'
p334
I35
sS'bake-1'
p335
I153
sS'drizzle-2'
p336
I49
sS'seat-1'
p337
I1
sS'process-1'
p338
I15
sS'process-0'
p339
I0
sS'process-2'
p340
I6
sS'poke-2'
p341
I3
sS'boil-2'
p342
I39
sS'boil-1'
p343
I21
sS'boil-0'
p344
I0
sS'drain-1'
p345
I466
sS'enjoy-1'
p346
I2
sS'enjoy-0'
p347
I8
sS'raise-2'
p348
I3
sS'enjoy-2'
p349
I0
sS'debone-0'
p350
I0
sS'debone-1'
p351
I1
sS'debone-2'
p352
I0
sS'throw-0'
p353
I0
sS'throw-1'
p354
I0
sS'throw-2'
p355
I2
sS'loosen-0'
p356
I0
sS'dice-0'
p357
I17
sS'dice-1'
p358
I11
sS'dice-2'
p359
I12
sS'scatter-0'
p360
I0
sS'butter-1'
p361
I19
sS'butter-0'
p362
I8
sS'bake-0'
p363
I4
sS'butter-2'
p364
I19
sS'drain-2'
p365
I168
sS'puree-2'
p366
I18
sS'puree-1'
p367
I12
sS'puree-0'
p368
I1
sS'slide-2'
p369
I4
sS'slide-1'
p370
I2
sS'slide-0'
p371
I0
sS'toast-1'
p372
I4
sS'toast-0'
p373
I0
sS'scatter-2'
p374
I5
sS'toast-2'
p375
I14
sS'return-1'
p376
I131
sS'return-0'
p377
I5
sS'separate-0'
p378
I0
sS'return-2'
p379
I132
sS'mince-1'
p380
I1
sS'mound-2'
p381
I6
sS'moisten-2'
p382
I2
sS'core-0'
p383
I0
sS'separate-2'
p384
I8
sS'core-2'
p385
I1
sS'drop-2'
p386
I11
sS'drop-0'
p387
I0
sS'drop-1'
p388
I4
sS'sauce-1'
p389
I11
sS'tap-1'
p390
I3
sS'tap-0'
p391
I0
sS'sauce-0'
p392
I5
sS'separate-1'
p393
I6
sS'roll-0'
p394
I2
sS'roll-1'
p395
I27
sS'roll-2'
p396
I68
sS'hold-1'
p397
I2
sS'quarter-2'
p398
I0
sS'toss-0'
p399
I16
sS'quarter-0'
p400
I1
sS'quarter-1'
p401
I0
sS'toss-1'
p402
I214
sS'slice-0'
p403
I20
sS'stream-1'
p404
I0
sS'stream-0'
p405
I2
sS'ask-1'
p406
I0
sS'slice-1'
p407
I42
sS'ask-0'
p408
I0
sS'melt-2'
p409
I215
sS'melt-1'
p410
I7
sS'melt-0'
p411
I0
sS'ask-2'
p412
I1
sS'roast-2'
p413
I18
sS'roast-1'
p414
I1
sS'roast-0'
p415
I0
sS'beat-1'
p416
I58
sS'beat-0'
p417
I2
sS'dissolve-2'
p418
I19
sS'beat-2'
p419
I226
sS'peel-2'
p420
I28
sS'peel-1'
p421
I54
sS'peel-0'
p422
I76
sS'swirl-1'
p423
I2
sS'swirl-0'
p424
I0
sS'swirl-2'
p425
I2
sS'dot-0'
p426
I0
sS'dot-2'
p427
I5
sS'hollow-2'
p428
I1
sS'freezing-0'
p429
I0
sS'hollow-0'
p430
I0
sS'hollow-1'
p431
I0
sS'dot-1'
p432
I6
sS'smother-0'
p433
I0
sS'smother-1'
p434
I2
sS'smother-2'
p435
I0
sS'overlap-0'
p436
I0
sS'core-1'
p437
I1
sS'lock-0'
p438
I0
sS'lock-1'
p439
I2
sS'lock-2'
p440
I0
sS'julienne-1'
p441
I0
sS'julienne-0'
p442
I0
sS'julienne-2'
p443
I1
sS'punch-0'
p444
I0
sS'crust-1'
p445
I6
sS'crust-0'
p446
I1
sS'crust-2'
p447
I4
sS'end-1'
p448
I2
sS'end-0'
p449
I0
sS'thaw-1'
p450
I1
sS'position-0'
p451
I0
sS'create-2'
p452
I2
sS'create-1'
p453
I0
sS'create-0'
p454
I0
sS'mince-0'
p455
I2
sS'pare-2'
p456
I1
sS'pare-1'
p457
I0
sS'pare-0'
p458
I0
sS'hold-2'
p459
I5
sS'cut-2'
p460
I216
sS'cut-0'
p461
I11
sS'cut-1'
p462
I68
sS'serve-1'
p463
I233
sS'serve-0'
p464
I137
sS'serve-2'
p465
I118
sS'stretch-1'
p466
I2
sS'stretch-0'
p467
I0
sS'stretch-2'
p468
I2
sS'cube-2'
p469
I3
sS'thaw-0'
p470
I0
sS'cube-0'
p471
I5
sS'cube-1'
p472
I4
sS'empty-2'
p473
I2
sS'empty-1'
p474
I0
sS'empty-0'
p475
I0
sS'chop-1'
p476
I27
sS'chop-0'
p477
I48
sS'surround-1'
p478
I0
sS'chop-2'
p479
I37
sS'stop-1'
p480
I1
sS'stop-0'
p481
I0
sS'stop-2'
p482
I0
sS'measure-2'
p483
I10
sS'measure-0'
p484
I0
sS'measure-1'
p485
I3
sS'layer-1'
p486
I15
sS'flip-0'
p487
I2
sS'layer-0'
p488
I1
sS'mince-2'
p489
I0
sS'remove-2'
p490
I366
sS'remove-1'
p491
I534
sS'remove-0'
p492
I7
sS'hold-0'
p493
I0
sS'shape-2'
p494
I28
sS'shape-1'
p495
I29
sS'shape-0'
p496
I2
sS'dredge-2'
p497
I3
sS'dredge-0'
p498
I0
sS'dredge-1'
p499
I2
sS'salt-0'
p500
I4
sS'thaw-2'
p501
I0
sS'repeat-2'
p502
I46
sS'repeat-0'
p503
I6
sS'repeat-1'
p504
I53
sS'transfer-1'
p505
I98
sS'poach-1'
p506
I1
sS'poach-0'
p507
I0
sS'poach-2'
p508
I2
sS'transfer-2'
p509
I174
sS'scrub-0'
p510
I1
sS'rest-2'
p511
I1
sS'stir-1'
p512
I1303
sS'sift-2'
p513
I29
sS'sift-1'
p514
I0
sS'sift-0'
p515
I0
sS'whip-2'
p516
I5
sS'split-0'
p517
I0
sS'cheese-1'
p518
I1
sS'split-2'
p519
I1
sS'flavor-2'
p520
I1
sS'flavor-1'
p521
I0
sS'flavor-0'
p522
I1
sS'brush-0'
p523
I0
sS'brush-1'
p524
I9
sS'brush-2'
p525
I45
sS'cheese-2'
p526
I7
sS'punch-1'
p527
I0
sS'punch-2'
p528
I5
sS'blanch-1'
p529
I1
sS'scrub-1'
p530
I3
sS'fluff-2'
p531
I3
sS'fluff-1'
p532
I2
sS'fluff-0'
p533
I0
sS'dump-1'
p534
I1
sS'dump-0'
p535
I0
sS'crush-1'
p536
I1
sS'crush-0'
p537
I1
sS'rinse-1'
p538
I35
sS'crush-2'
p539
I4
sS'fry-2'
p540
I44
sS'fry-1'
p541
I17
sS'fry-0'
p542
I0
sS'saute-0'
p543
I1
sS'saute-1'
p544
I31
sS'saute-2'
p545
I110
sS'rest-0'
p546
I1
sS'distribute-2'
p547
I7
sS'distribute-0'
p548
I0
sS'distribute-1'
p549
I0
sS'dry-1'
p550
I3
sS'dry-0'
p551
I1
sS'dry-2'
p552
I4
sS'push-1'
p553
I0
sS'push-0'
p554
I0
sS'discard-2'
p555
I12
sS'push-2'
p556
I9
sS'water-1'
p557
I1
sS'water-0'
p558
I1
sS'water-2'
p559
I4
sS'ensure-1'
p560
I0
sS'ensure-0'
p561
I0
sS'ensure-2'
p562
I1
sS'let-1'
p563
I69
sS'let-0'
p564
I9
sS'let-2'
p565
I315
sS'watch-1'
p566
I1
sS'watch-0'
p567
I0
sS'change-1'
p568
I0
sS'watch-2'
p569
I6
sS'alternate-2'
p570
I4
sS'alternate-0'
p571
I0
sS'alternate-1'
p572
I0
sS'steep-1'
p573
I0
sS'steep-0'
p574
I0
sS'steep-2'
p575
I1
sS'mash-2'
p576
I85
sS'mash-0'
p577
I6
sS'mash-1'
p578
I11
sS'steam-0'
p579
I1
sS'steam-1'
p580
I4
sS'steam-2'
p581
I6
sS'handle-2'
p582
I1
sS'pile-1'
p583
I0
sS'pile-0'
p584
I0
sS'pile-2'
p585
I2
sS'snip-1'
p586
I5
sS'snip-0'
p587
I0
sS'rinse-2'
p588
I23
sS'rinse-0'
p589
I21
sS'reduce-1'
p590
I92
sS'reduce-0'
p591
I1
sS'reduce-2'
p592
I388
sS'combine-1'
p593
I21
sS'combine-0'
p594
I3
sS'combine-2'
p595
I753
sS'braise-0'
p596
I0
sS'knead-2'
p597
I12
sS'increase-1'
p598
I0
sS'increase-0'
p599
I0
sS'increase-2'
p600
I29
sS'tear-1'
p601
I0
sS'pierce-2'
p602
I5
sS'pierce-1'
p603
I3
sS'braise-2'
p604
I1
sS'tilt-0'
p605
I0
sS'tilt-1'
p606
I0
sS'tilt-2'
p607
I2
sS'lift-2'
p608
I4
sS'lift-0'
p609
I0
sS'lift-1'
p610
I2
sS'rest-1'
p611
I0
sS'wrap-1'
p612
I10
sS'wrap-0'
p613
I0
sS'wrap-2'
p614
I17
sS'skim-1'
p615
I0
sS'skim-0'
p616
I0
sS'skim-2'
p617
I8
sS'knead-0'
p618
I0
sS'apply-1'
p619
I0
sS'apply-2'
p620
I1
sS'unwrap-0'
p621
I0
sS'tent-2'
p622
I0
sS'position-1'
p623
I0
sS'seal-2'
p624
I9
sS'seal-0'
p625
I10
sS'seal-1'
p626
I12
sS'tent-0'
p627
I0
sS'seat-2'
p628
I0
sS'seat-0'
p629
I0
sS'tent-1'
p630
I1
sS'add-0'
p631
I5
sS'tuck-0'
p632
I0
sS'whip-1'
p633
I3
sS'whip-0'
p634
I0
sS'position-2'
p635
I1
sS'tuck-1'
p636
I0
sS'discard-0'
p637
I60
sS'discard-1'
p638
I42
sS'align-2'
p639
I1
sS'ease-2'
p640
I1
sS'ease-1'
p641
I0
sS'ease-0'
p642
I0
sS'slice-2'
p643
I65
sS'mound-1'
p644
I1
sS'mound-0'
p645
I0
sS'dissolve-0'
p646
I2
sS'align-0'
p647
I0
sS'dissolve-1'
p648
I1
sS'transfer-0'
p649
I12
sS'prepare-2'
p650
I55
sS'prepare-1'
p651
I7
sS'prepare-0'
p652
I0
sS'scramble-2'
p653
I4
sS'stuff-2'
p654
I4
sS'stuff-0'
p655
I0
sS'stuff-1'
p656
I1
sS'scrub-2'
p657
I1
sS'have-2'
p658
I1
sS'have-1'
p659
I1
sS'have-0'
p660
I0
sS'pick-2'
p661
I5
sS'finish-2'
p662
I7
sS'pick-0'
p663
I0
sS'pick-1'
p664
I0
sS'portion-2'
p665
I2
sS'portion-1'
p666
I0
sS'portion-0'
p667
I0
sS'moisten-0'
p668
I0
sS'crack-2'
p669
I2
sS'crack-0'
p670
I0
sS'crack-1'
p671
I1
sS'scramble-0'
p672
I0
sS'add-2'
p673
I887
sS'add-1'
p674
I621
sS'spray-2'
p675
I68
sS'dunk-1'
p676
I0
sS'dunk-0'
p677
I0
sS'align-1'
p678
I0
sS'dunk-2'
p679
I2
sS'place-2'
p680
I1197
sS'crumb-1'
p681
I0
sS'crumb-0'
p682
I0
sS'moisten-1'
p683
I0
sS'crumb-2'
p684
I1
sS'pack-2'
p685
I7
sS'pack-0'
p686
I0
sS'pack-1'
p687
I4
sS'start-0'
p688
I0
sS'start-1'
p689
I2
sS'start-2'
p690
I9
sS'unwrap-2'
p691
I0
sS'scramble-1'
p692
I0
sS'spread-2'
p693
I352
sS'spread-0'
p694
I3
sS'spread-1'
p695
I75
sS'set-2'
p696
I168
sS'set-0'
p697
I60
sS'set-1'
p698
I326
sS'blanch-2'
p699
I1
sS'uncover-0'
p700
I5
sS'uncover-1'
p701
I14
sS'uncover-2'
p702
I1
sS'change-2'
p703
I2
sS'change-0'
p704
I0
sS'divide-0'
p705
I1
sS'divide-1'
p706
I11
sS'divide-2'
p707
I66
sS'soak-0'
p708
I0
sS'chill-2'
p709
I92
sS'chill-0'
p710
I39
sS'chill-1'
p711
I69
sS'dust-1'
p712
I6
sS'sprinkle-2'
p713
I327
sS'sprinkle-1'
p714
I262
sS'sprinkle-0'
p715
I1
sS'makes-1'
p716
I2
sS'makes-0'
p717
I0
sS'makes-2'
p718
I1
sS'follow-0'
p719
I0
sS'follow-1'
p720
I2
sS'follow-2'
p721
I3
sS'insert-0'
p722
I0
sS'insert-1'
p723
I0
sS'insert-2'
p724
I5
sS'dust-0'
p725
I0
sS'build-0'
p726
I0
sS'unwrap-1'
p727
I1
sS'build-2'
p728
I2
sS'reposition-1'
p729
I1
sS'reposition-0'
p730
I0
sS'reposition-2'
p731
I0
sS'coating-1'
p732
I6
sS'thread-2'
p733
I1
sS'thread-1'
p734
I0
sS'pipe-0'
p735
I0
sS'note-1'
p736
I2
sS'note-0'
p737
I8
sS'replace-0'
p738
I0
sS'replace-1'
p739
I1
sS'sear-0'
p740
I0
sS'sear-1'
p741
I0
sS'sear-2'
p742
I4
sS'clean-2'
p743
I2
sS'dust-2'
p744
I10
sS'clean-1'
p745
I2
sS'served-0'
p746
I0
sS'served-1'
p747
I0
sS'served-2'
p748
I5
sS'churn-2'
p749
I0
sS'freezing-1'
p750
I1
sS'churn-0'
p751
I0
sS'churn-1'
p752
I1
sS'plop-2'
p753
I1
sS'freezing-2'
p754
I0
sS'scoop-0'
p755
I0
sS'scoop-1'
p756
I9
sS'scoop-2'
p757
I41
sS'allow-2'
p758
I160
sS'allow-1'
p759
I61
sS'allow-0'
p760
I6
sS'fit-0'
p761
I0
sS'plunge-0'
p762
I0
sS'select-0'
p763
I0
sS'ladle-2'
p764
I19
sS'plunge-1'
p765
I0
sS'put-1'
p766
I4
sS'put-0'
p767
I0
sS'put-2'
p768
I28
sS'ladle-1'
p769
I4
sS'handle-1'
p770
I0
sS'select-2'
p771
I0
sS'select-1'
p772
I1
sS'handle-0'
p773
I0
sS'freeze-2'
p774
I5
sS'freeze-0'
p775
I3
sS'freeze-1'
p776
I6
sS'grease-2'
p777
I93
sS'layer-2'
p778
I53
sS'grease-0'
p779
I11
sS'grease-1'
p780
I152
sS'unroll-2'
p781
I10
sS'unroll-1'
p782
I3
sS'unroll-0'
p783
I0
sS'continue-2'
p784
I127
sS'continue-0'
p785
I0
sS'continue-1'
p786
I25
sS'move-2'
p787
I2
sS'dump-2'
p788
I1
sS'move-0'
p789
I0
sS'move-1'
p790
I2
sS'lay-0'
p791
I0
sS'lay-1'
p792
I2
sS'lay-2'
p793
I35
sS'soak-2'
p794
I24
sS'soak-1'
p795
I1
sS'load-2'
p796
I1
sS'decrease-1'
p797
I0
sS'decrease-0'
p798
I0
sS'decrease-2'
p799
I3
sS'marinate-2'
p800
I18
sS'marinate-0'
p801
I0
sS'marinate-1'
p802
I3
sS'apply-0'
p803
I0
sS'begin-2'
p804
I12
sS'begin-1'
p805
I3
sS'begin-0'
p806
I0
sS'frost-2'
p807
I6
sS'frost-0'
p808
I2
sS'frost-1'
p809
I6
sS'coating-2'
p810
I1
sS'snip-2'
p811
I6
sS'run-0'
p812
I0
sS'crumple-0'
p813
I0
sS'crumple-1'
p814
I1
sS'crumple-2'
p815
I1
sS'whirl-0'
p816
I0
sS'whirl-1'
p817
I1
sS'whirl-2'
p818
I0
sS'strain-0'
p819
I1
sS'strain-1'
p820
I5
sS'strain-2'
p821
I3
sS'mix-0'
p822
I16
sS'mix-1'
p823
I418
sS'mix-2'
p824
I913
sS'coat-0'
p825
I3
sS'coat-1'
p826
I11
sS'coat-2'
p827
I33
sS'take-0'
p828
I0
sS'take-1'
p829
I2
sS'take-2'
p830
I4
sS'tear-0'
p831
I0
sS'squeeze-2'
p832
I14
sS'squeeze-0'
p833
I1
sS'squeeze-1'
p834
I8
sS'brown-0'
p835
I3
sS'brown-1'
p836
I44
sS'brown-2'
p837
I125
sS'press-1'
p838
I25
sS'press-0'
p839
I2
sS'press-2'
p840
I72
sS'plunge-2'
p841
I2
sS'best-2'
p842
I3
sS'best-1'
p843
I1
sS'best-0'
p844
I0
sS'keep-2'
p845
I10
sS'end-2'
p846
I1
sS'pat-1'
p847
I11
sS'pat-0'
p848
I0
sS'pat-2'
p849
I28
s.(dp0
S'use-2-location'
p1
I3
sS'moisten-1-location'
p2
I0
sS'fluff-1-food'
p3
I0
sS'separate-1-location'
p4
I1
sS'sprinkle-1-food'
p5
I153
sS'debone-2-food-location'
p6
I0
sS'tear-2-location'
p7
I0
sS'crust-2-food-location'
p8
I0
sS'shave-2-food-location'
p9
I0
sS'whisk-2-location'
p10
I0
sS'chill-2-location'
p11
I0
sS'ease-1-food'
p12
I0
sS'distribute-2-food'
p13
I3
sS'freezing-2-food'
p14
I0
sS'punch-1-location'
p15
I0
sS'keep-2-location'
p16
I0
sS'can-1-location'
p17
I0
sS'drop-1-location'
p18
I0
sS'lie-1-location'
p19
I0
sS'use-2-food-location'
p20
I0
sS'moisten-2-food-location'
p21
I0
sS'water-1-location'
p22
I0
sS'bring-2-food-location'
p23
I36
sS'preheat-1-location'
p24
I7
sS'split-1-location'
p25
I0
sS'serve-2-location'
p26
I0
sS'pipe-2-food'
p27
I0
sS'snip-1-food'
p28
I0
sS'microwave-1-food'
p29
I2
sS'crack-2-location'
p30
I0
sS'serve-2-food-location'
p31
I2
sS'tear-1-food'
p32
I0
sS'whisk-2-food-location'
p33
I269
sS'reserve-1-location'
p34
I6
sS'rub-1-food'
p35
I0
sS'invert-2-food'
p36
I0
sS'swirl-1-location'
p37
I1
sS'lie-1-food'
p38
I0
sS'thread-1-food'
p39
I0
sS'dice-2-location'
p40
I0
sS'take-1-food'
p41
I0
sS'break-1-location'
p42
I0
sS'shape-1-location'
p43
I1
sS'pipe-1-food'
p44
I1
sS'loosen-1-food'
p45
I0
sS'align-1-location'
p46
I0
sS'stuff-1-location'
p47
I0
sS'put-1-food'
p48
I1
sS'thaw-2-food-location'
p49
I0
sS'sprinkle-1-location'
p50
I17
sS'marinate-2-location'
p51
I0
sS'toast-2-food-location'
p52
I3
sS'carve-2-location'
p53
I0
sS'flute-1-food'
p54
I0
sS'coating-2-location'
p55
I0
sS'pierce-2-food'
p56
I0
sS'end-2-food'
p57
I0
sS'cover-2-food-location'
p58
I8
sS'grease-2-food-location'
p59
I8
sS'fold-2-food-location'
p60
I0
sS'dust-2-food-location'
p61
I0
sS'crust-2-location'
p62
I0
sS'boil-2-food'
p63
I3
sS'squeeze-2-food'
p64
I0
sS'crumble-1-food'
p65
I11
sS'shake-1-location'
p66
I0
sS'enjoy-2-food'
p67
I0
sS'brush-1-food'
p68
I6
sS'taste-2-food'
p69
I0
sS'surround-1-location'
p70
I0
sS'watch-2-food-location'
p71
I0
sS'stop-1-food'
p72
I0
sS'rinse-1-food'
p73
I5
sS'dot-2-food-location'
p74
I2
sS'continue-2-food'
p75
I2
sS'move-1-location'
p76
I1
sS'cream-2-location'
p77
I0
sS'knead-1-location'
p78
I0
sS'can-1-food'
p79
I0
sS'pull-2-food'
p80
I0
sS'soak-2-food-location'
p81
I5
sS'transfer-2-location'
p82
I3
sS'let-2-location'
p83
I0
sS'pinch-2-food'
p84
I0
sS'microwave-2-food-location'
p85
I1
sS'return-2-food-location'
p86
I45
sS'refrigerate-1-location'
p87
I0
sS'simmer-2-food-location'
p88
I2
sS'hollow-1-location'
p89
I0
sS'boil-2-food-location'
p90
I10
sS'tip-2-location'
p91
I0
sS'overlap-2-food'
p92
I0
sS'assemble-2-food'
p93
I2
sS'drain-2-food-location'
p94
I21
sS'add-2-location'
p95
I7
sS'allow-2-food-location'
p96
I1
sS'garnish-2-food'
p97
I1
sS'reduce-1-location'
p98
I0
sS'shred-1-food'
p99
I3
sS'wipe-2-food'
p100
I0
sS'wipe-2-location'
p101
I0
sS'pulse-2-food-location'
p102
I0
sS'measure-1-location'
p103
I0
sS'empty-2-location'
p104
I0
sS'move-2-food'
p105
I0
sS'work-2-food-location'
p106
I0
sS'begin-2-location'
p107
I0
sS'crush-1-food'
p108
I0
sS'tent-2-food'
p109
I0
sS'change-1-food'
p110
I0
sS'pass-1-food'
p111
I1
sS'split-2-location'
p112
I0
sS'increase-2-food'
p113
I0
sS'pare-1-food'
p114
I0
sS'end-1-location'
p115
I0
sS'put-2-food'
p116
I1
sS'tear-1-location'
p117
I0
sS'sift-1-food'
p118
I0
sS'pass-1-location'
p119
I0
sS'whipped-1-location'
p120
I0
sS'put-2-food-location'
p121
I9
sS'run-1-location'
p122
I0
sS'churn-1-location'
p123
I0
sS'knife-2-location'
p124
I0
sS'squeeze-2-food-location'
p125
I0
sS'whip-2-location'
p126
I0
sS'spray-2-food'
p127
I0
sS'have-2-location'
p128
I0
sS'simmer-2-food'
p129
I1
sS'trim-1-food'
p130
I0
sS'pack-2-location'
p131
I1
sS'pick-1-location'
p132
I0
sS'halve-2-food'
p133
I0
sS'tent-2-food-location'
p134
I0
sS'dot-2-food'
p135
I0
sS'cube-1-food'
p136
I1
sS'punch-1-food'
p137
I0
sS'adjust-1-food'
p138
I1
sS'create-2-food-location'
p139
I0
sS'toss-2-food-location'
p140
I80
sS'return-2-location'
p141
I5
sS'lift-2-location'
p142
I0
sS'crumb-2-food-location'
p143
I0
sS'thread-2-location'
p144
I0
sS'oil-2-food-location'
p145
I5
sS'pinch-2-food-location'
p146
I0
sS'work-1-food'
p147
I0
sS'preheat-2-location'
p148
I12
sS'julienne-1-location'
p149
I0
sS'punch-2-food'
p150
I0
sS'broil-1-location'
p151
I0
sS'remove-1-location'
p152
I90
sS'shape-2-location'
p153
I0
sS'finish-1-location'
p154
I1
sS'baste-2-food'
p155
I0
sS'set-1-location'
p156
I3
sS'handle-1-food'
p157
I0
sS'put-2-location'
p158
I0
sS'makes-2-food-location'
p159
I0
sS'handle-2-food'
p160
I0
sS'water-2-food-location'
p161
I1
sS'drizzle-1-food'
p162
I21
sS'make-2-location'
p163
I0
sS'use-1-food'
p164
I0
sS'garnish-1-location'
p165
I1
sS'tilt-2-food-location'
p166
I0
sS'pare-2-food-location'
p167
I0
sS'line-1-location'
p168
I1
sS'sift-2-food'
p169
I14
sS'layer-1-location'
p170
I1
sS'sear-2-food'
p171
I0
sS'crimp-2-location'
p172
I0
sS'process-1-location'
p173
I0
sS'mince-2-food'
p174
I0
sS'fry-2-food'
p175
I2
sS'smother-2-location'
p176
I0
sS'watch-2-food'
p177
I0
sS'drain-1-food'
p178
I49
sS'form-1-location'
p179
I0
sS'crumb-1-location'
p180
I0
sS'butter-2-location'
p181
I0
sS'crumble-1-location'
p182
I0
sS'prick-2-food'
p183
I0
sS'have-2-food-location'
p184
I0
sS'cook-2-food'
p185
I101
sS'grind-2-food-location'
p186
I0
sS'skim-1-food'
p187
I0
sS'sprinkle-2-location'
p188
I1
sS'rest-2-food'
p189
I0
sS'spoon-2-location'
p190
I7
sS'makes-1-location'
p191
I1
sS'roll-1-food'
p192
I6
sS'throw-1-food'
p193
I0
sS'open-2-location'
p194
I0
sS'taste-1-location'
p195
I0
sS'moisten-2-location'
p196
I0
sS'dot-1-food'
p197
I6
sS'scatter-2-location'
p198
I0
sS'frost-2-food'
p199
I1
sS'debone-1-food'
p200
I0
sS'start-1-location'
p201
I0
sS'render-2-food-location'
p202
I1
sS'steam-1-location'
p203
I0
sS'crush-2-food-location'
p204
I0
sS'replace-1-location'
p205
I0
sS'ensure-1-location'
p206
I0
sS'cheese-1-location'
p207
I0
sS'smoke-1-food'
p208
I0
sS'skim-2-food-location'
p209
I1
sS'coating-1-food'
p210
I1
sS'open-1-location'
p211
I0
sS'top-2-location'
p212
I1
sS'leave-1-location'
p213
I1
sS'coat-2-location'
p214
I0
sS'carve-2-food-location'
p215
I0
sS'split-2-food-location'
p216
I0
sS'bring-2-food'
p217
I1
sS'unwrap-1-food'
p218
I1
sS'hold-1-location'
p219
I0
sS'arrange-2-food'
p220
I12
sS'pat-2-food'
p221
I1
sS'decorate-2-food-location'
p222
I0
sS'lift-1-food'
p223
I0
sS'core-2-food-location'
p224
I0
sS'change-2-food-location'
p225
I0
sS'roll-2-food-location'
p226
I0
sS'twist-1-food'
p227
I0
sS'poke-2-location'
p228
I0
sS'dab-1-location'
p229
I0
sS'shred-2-food-location'
p230
I16
sS'ladle-2-location'
p231
I0
sS'allow-1-location'
p232
I0
sS'test-1-food'
p233
I0
sS'core-1-food'
p234
I0
sS'cut-1-food'
p235
I3
sS'brown-2-location'
p236
I2
sS'overlap-2-location'
p237
I0
sS'return-1-location'
p238
I47
sS'ask-2-food'
p239
I0
sS'ensure-2-food'
p240
I0
sS'lock-1-food'
p241
I0
sS'whipped-2-food-location'
p242
I0
sS'decrease-2-food'
p243
I0
sS'apply-2-food'
p244
I0
sS'remove-2-food-location'
p245
I56
sS'unroll-2-location'
p246
I0
sS'flip-2-location'
p247
I0
sS'wear-2-food-location'
p248
I0
sS'combine-1-location'
p249
I2
sS'lay-2-food-location'
p250
I5
sS'trim-2-food'
p251
I0
sS'score-2-location'
p252
I0
sS'thicken-1-food'
p253
I0
sS'makes-2-location'
p254
I0
sS'distribute-1-location'
p255
I0
sS'brown-2-food-location'
p256
I60
sS'fluff-2-food'
p257
I0
sS'blanch-1-location'
p258
I0
sS'best-1-food'
p259
I0
sS'watch-1-location'
p260
I0
sS'pulse-1-food'
p261
I1
sS'transfer-1-food'
p262
I2
sS'ask-1-location'
p263
I0
sS'melt-2-food'
p264
I2
sS'toast-2-food'
p265
I0
sS'preheat-2-food'
p266
I0
sS'oil-1-food'
p267
I0
sS'scatter-2-food'
p268
I2
sS'dry-1-location'
p269
I0
sS'uncover-1-location'
p270
I5
sS'let-1-location'
p271
I0
sS'pack-1-food'
p272
I0
sS'makes-1-food'
p273
I0
sS'transfer-2-food-location'
p274
I49
sS'fold-2-food'
p275
I15
sS'flip-2-food'
p276
I0
sS'dot-1-location'
p277
I0
sS'blend-2-food'
p278
I16
sS'steep-2-food-location'
p279
I0
sS'flip-1-food'
p280
I2
sS'measure-2-food'
p281
I0
sS'empty-1-food'
p282
I0
sS'tear-2-food'
p283
I0
sS'prepare-1-location'
p284
I0
sS'bake-1-food'
p285
I15
sS'stretch-2-location'
p286
I0
sS'poke-1-food'
p287
I0
sS'change-2-food'
p288
I0
sS'drop-1-food'
p289
I2
sS'select-2-location'
p290
I0
sS'uncover-2-food'
p291
I0
sS'stream-2-location'
p292
I0
sS'combine-1-food'
p293
I8
sS'pat-1-location'
p294
I5
sS'sort-1-food'
p295
I1
sS'dump-2-food'
p296
I0
sS'run-1-food'
p297
I0
sS'marinate-2-food-location'
p298
I0
sS'puree-2-food'
p299
I1
sS'frost-1-location'
p300
I0
sS'peel-1-location'
p301
I1
sS'thaw-2-location'
p302
I0
sS'score-1-location'
p303
I0
sS'enjoy-2-location'
p304
I0
sS'melt-2-location'
p305
I1
sS'fill-2-food'
p306
I1
sS'core-1-location'
p307
I0
sS'stuff-2-food-location'
p308
I0
sS'select-1-location'
p309
I0
sS'decorate-2-location'
p310
I0
sS'bake-2-food'
p311
I0
sS'divide-2-food'
p312
I3
sS'wash-1-location'
p313
I0
sS'turn-2-food-location'
p314
I2
sS'water-2-location'
p315
I0
sS'ready-1-location'
p316
I0
sS'render-2-location'
p317
I0
sS'poach-1-food'
p318
I0
sS'debone-2-location'
p319
I0
sS'squeeze-1-location'
p320
I0
sS'crumple-2-food'
p321
I0
sS'continue-1-location'
p322
I0
sS'rest-2-location'
p323
I0
sS'core-2-food'
p324
I0
sS'scoop-2-food-location'
p325
I0
sS'sauce-1-location'
p326
I3
sS'muddle-1-food'
p327
I0
sS'position-2-food'
p328
I0
sS'cube-1-location'
p329
I0
sS'place-1-location'
p330
I134
sS'saute-1-location'
p331
I2
sS'discard-1-food'
p332
I0
sS'make-2-food-location'
p333
I6
sS'increase-1-food'
p334
I0
sS'mound-1-food'
p335
I0
sS'line-2-food-location'
p336
I6
sS'ask-1-food'
p337
I0
sS'rub-2-food'
p338
I9
sS'insert-2-location'
p339
I0
sS'check-1-location'
p340
I0
sS'dunk-2-food'
p341
I0
sS'baste-1-food'
p342
I0
sS'break-2-location'
p343
I0
sS'slice-2-food'
p344
I1
sS'grill-2-location'
p345
I0
sS'frost-1-food'
p346
I1
sS'pick-2-food'
p347
I0
sS'top-1-food'
p348
I146
sS'quarter-1-food'
p349
I0
sS'lift-1-location'
p350
I0
sS'freeze-2-food'
p351
I0
sS'crumb-1-food'
p352
I0
sS'braise-2-food-location'
p353
I0
sS'flour-2-location'
p354
I0
sS'dip-2-food'
p355
I9
sS'ease-2-food-location'
p356
I0
sS'cover-2-food'
p357
I4
sS'layer-1-food'
p358
I7
sS'pinch-2-location'
p359
I0
sS'cover-1-food'
p360
I85
sS'ladle-2-food-location'
p361
I0
sS'poach-2-location'
p362
I0
sS'refrigerate-2-food'
p363
I0
sS'shave-1-location'
p364
I0
sS'grill-2-food-location'
p365
I0
sS'pare-1-location'
p366
I0
sS'crust-2-food'
p367
I0
sS'cake-2-location'
p368
I0
sS'fry-1-location'
p369
I0
sS'heat-1-food'
p370
I8
sS'assemble-2-location'
p371
I0
sS'roast-2-food'
p372
I0
sS'plop-2-food-location'
p373
I0
sS'test-2-food-location'
p374
I0
sS'uncover-1-food'
p375
I0
sS'drop-2-location'
p376
I0
sS'prick-2-food-location'
p377
I0
sS'hollow-2-food-location'
p378
I1
sS'grill-1-food'
p379
I2
sS'tap-2-food-location'
p380
I0
sS'seat-1-location'
p381
I0
sS'reheat-2-location'
p382
I0
sS'sear-2-food-location'
p383
I0
sS'salt-2-location'
p384
I0
sS'muddle-2-location'
p385
I0
sS'follow-1-location'
p386
I0
sS'knife-2-food'
p387
I0
sS'blanch-1-food'
p388
I0
sS'cook-2-location'
p389
I3
sS'finish-2-location'
p390
I0
sS'stop-1-location'
p391
I0
sS'bring-2-location'
p392
I0
sS'dust-1-food'
p393
I5
sS'pinch-1-food'
p394
I0
sS'adjust-2-food'
p395
I1
sS'dissolve-1-food'
p396
I0
sS'clean-2-food'
p397
I0
sS'assemble-2-food-location'
p398
I0
sS'alternate-2-location'
p399
I1
sS'stack-2-location'
p400
I0
sS'flavor-2-location'
p401
I0
sS'score-2-food'
p402
I0
sS'chop-2-location'
p403
I0
sS'position-2-food-location'
p404
I0
sS'slice-2-food-location'
p405
I2
sS'season-1-food'
p406
I250
sS'lay-1-location'
p407
I0
sS'pat-2-food-location'
p408
I0
sS'crimp-2-food'
p409
I0
sS'thaw-1-location'
p410
I0
sS'season-2-food'
p411
I25
sS'snip-2-food'
p412
I0
sS'pound-2-food-location'
p413
I0
sS'turn-1-food'
p414
I0
sS'stuff-2-food'
p415
I0
sS'pipe-2-food-location'
p416
I0
sS'smoke-2-food-location'
p417
I0
sS'align-2-location'
p418
I0
sS'gather-2-location'
p419
I0
sS'spoon-2-food'
p420
I8
sS'fry-1-food'
p421
I3
sS'put-1-location'
p422
I2
sS'toss-2-food'
p423
I20
sS'lower-1-location'
p424
I0
sS'combine-2-food-location'
p425
I568
sS'fill-2-food-location'
p426
I33
sS'beat-1-location'
p427
I0
sS'reshape-2-food'
p428
I0
sS'end-1-food'
p429
I1
sS'crack-1-location'
p430
I0
sS'decrease-2-food-location'
p431
I0
sS'reposition-2-location'
p432
I0
sS'press-2-food-location'
p433
I11
sS'heat-2-food'
p434
I4
sS'dredge-2-location'
p435
I0
sS'mix-1-food'
p436
I132
sS'distribute-2-food-location'
p437
I0
sS'round-1-food'
p438
I0
sS'divide-2-location'
p439
I1
sS'icing-1-food'
p440
I0
sS'decorate-2-food'
p441
I0
sS'process-1-food'
p442
I1
sS'slide-2-food-location'
p443
I0
sS'stack-2-food'
p444
I0
sS'tap-2-location'
p445
I0
sS'microwave-1-location'
p446
I0
sS'repeat-1-location'
p447
I2
sS'served-2-food'
p448
I0
sS'remove-1-food'
p449
I27
sS'reposition-2-food-location'
p450
I0
sS'round-2-food'
p451
I0
sS'quarter-1-location'
p452
I0
sS'poach-2-food-location'
p453
I1
sS'freezing-2-food-location'
p454
I0
sS'cream-2-food-location'
p455
I16
sS'have-1-location'
p456
I0
sS'tent-1-location'
p457
I0
sS'seat-1-food'
p458
I0
sS'dab-2-location'
p459
I0
sS'boil-1-food'
p460
I3
sS'drizzle-1-location'
p461
I0
sS'loosen-2-food-location'
p462
I0
sS'remove-2-location'
p463
I16
sS'tuck-1-location'
p464
I0
sS'ready-1-food'
p465
I0
sS'stretch-2-food-location'
p466
I1
sS'portion-2-location'
p467
I1
sS'freezing-2-location'
p468
I0
sS'pound-2-location'
p469
I0
sS'push-1-food'
p470
I0
sS'scoop-2-food'
p471
I1
sS'mix-2-food-location'
p472
I469
sS'grate-2-food-location'
p473
I4
sS'thaw-1-food'
p474
I0
sS'scrape-2-location'
p475
I0
sS'clean-2-food-location'
p476
I0
sS'allow-2-food'
p477
I1
sS'pinch-1-location'
p478
I0
sS'sprinkle-2-food'
p479
I43
sS'roast-2-food-location'
p480
I7
sS'dissolve-2-location'
p481
I0
sS'sift-2-food-location'
p482
I13
sS'dip-1-location'
p483
I0
sS'oil-2-food'
p484
I1
sS'gather-2-food'
p485
I0
sS'test-2-location'
p486
I0
sS'scoop-1-food'
p487
I1
sS'check-2-food-location'
p488
I0
sS'add-2-food'
p489
I299
sS'baste-1-location'
p490
I1
sS'freeze-1-food'
p491
I0
sS'decorate-1-food'
p492
I0
sS'wipe-1-food'
p493
I0
sS'replace-2-food'
p494
I0
sS'sauce-2-food-location'
p495
I0
sS'spread-1-location'
p496
I18
sS'brown-1-food'
p497
I2
sS'heat-2-food-location'
p498
I199
sS'throw-2-food-location'
p499
I0
sS'simmer-1-location'
p500
I1
sS'stream-2-food-location'
p501
I0
sS'chill-1-location'
p502
I0
sS'drop-2-food-location'
p503
I0
sS'taste-2-food-location'
p504
I0
sS'strain-1-location'
p505
I3
sS'dredge-2-food'
p506
I2
sS'scrape-1-location'
p507
I1
sS'run-2-location'
p508
I0
sS'knead-2-food'
p509
I0
sS'roast-1-location'
p510
I0
sS'wash-2-location'
p511
I0
sS'tear-2-food-location'
p512
I0
sS'core-2-location'
p513
I0
sS'dissolve-2-food'
p514
I9
sS'steep-1-food'
p515
I0
sS'lay-1-food'
p516
I0
sS'dice-2-food'
p517
I4
sS'cheese-1-food'
p518
I1
sS'wrap-2-location'
p519
I0
sS'dry-2-food-location'
p520
I0
sS'wash-1-food'
p521
I3
sS'ready-2-food-location'
p522
I0
sS'throw-2-location'
p523
I0
sS'brush-1-location'
p524
I0
sS'cook-2-food-location'
p525
I130
sS'create-1-food'
p526
I0
sS'pack-2-food-location'
p527
I0
sS'skim-2-location'
p528
I0
sS'handle-2-food-location'
p529
I0
sS'melt-1-location'
p530
I2
sS'flatten-2-location'
p531
I0
sS'pierce-2-food-location'
p532
I1
sS'churn-2-location'
p533
I0
sS'best-1-location'
p534
I0
sS'poach-1-location'
p535
I0
sS'turn-2-food'
p536
I1
sS'note-2-location'
p537
I0
sS'pack-1-location'
p538
I3
sS'pull-2-location'
p539
I0
sS'dump-2-food-location'
p540
I1
sS'dump-2-location'
p541
I0
sS'butter-1-food'
p542
I2
sS'finish-2-food-location'
p543
I1
sS'spray-2-food-location'
p544
I1
sS'slide-1-location'
p545
I1
sS'add-1-food'
p546
I370
sS'snip-2-food-location'
p547
I0
sS'layer-2-food-location'
p548
I12
sS'store-2-location'
p549
I0
sS'mix-2-food'
p550
I121
sS'warm-2-food'
p551
I0
sS'place-2-location'
p552
I24
sS'freeze-1-location'
p553
I0
sS'debone-2-food'
p554
I0
sS'break-1-food'
p555
I0
sS'tilt-2-location'
p556
I0
sS'snip-2-location'
p557
I0
sS'pick-2-location'
p558
I0
sS'take-1-location'
p559
I1
sS'adjust-2-food-location'
p560
I0
sS'toss-1-location'
p561
I1
sS'reposition-1-food'
p562
I0
sS'plop-1-location'
p563
I0
sS'render-2-food'
p564
I0
sS'smother-1-food'
p565
I0
sS'stir-2-location'
p566
I7
sS'flavor-2-food'
p567
I0
sS'julienne-2-location'
p568
I0
sS'wear-1-location'
p569
I0
sS'saute-2-food-location'
p570
I34
sS'prepare-2-food'
p571
I4
sS'flip-2-food-location'
p572
I1
sS'round-1-location'
p573
I0
sS'served-1-location'
p574
I0
sS'continue-2-food-location'
p575
I0
sS'flatten-1-food'
p576
I1
sS'move-2-location'
p577
I1
sS'wear-1-food'
p578
I0
sS'frost-2-location'
p579
I0
sS'pull-1-food'
p580
I1
sS'arrange-1-food'
p581
I1
sS'crack-2-food-location'
p582
I1
sS'mix-2-location'
p583
I3
sS'take-2-food-location'
p584
I0
sS'lay-2-food'
p585
I1
sS'set-2-food'
p586
I1
sS'work-1-location'
p587
I0
sS'cut-2-location'
p588
I0
sS'wear-2-food'
p589
I0
sS'cream-2-food'
p590
I4
sS'coat-2-food-location'
p591
I8
sS'carve-1-food'
p592
I0
sS'wrap-1-food'
p593
I0
sS'soak-2-location'
p594
I0
sS'crack-2-food'
p595
I0
sS'remove-2-food'
p596
I10
sS'unroll-2-food-location'
p597
I1
sS'heat-1-location'
p598
I0
sS'rest-2-food-location'
p599
I0
sS'scramble-2-food-location'
p600
I0
sS'cool-1-food'
p601
I5
sS'pat-1-food'
p602
I0
sS'score-1-food'
p603
I0
sS'scrape-1-food'
p604
I0
sS'grind-2-location'
p605
I0
sS'broil-1-food'
p606
I0
sS'pile-2-food-location'
p607
I0
sS'leave-1-food'
p608
I0
sS'begin-1-food'
p609
I1
sS'reposition-2-food'
p610
I0
sS'insert-1-food'
p611
I0
sS'brown-1-location'
p612
I0
sS'crumple-2-food-location'
p613
I0
sS'mince-1-location'
p614
I0
sS'reshape-2-location'
p615
I0
sS'braise-2-food'
p616
I0
sS'load-2-location'
p617
I0
sS'bake-1-location'
p618
I15
sS'garnish-1-food'
p619
I42
sS'blanch-2-food-location'
p620
I1
sS'steam-2-location'
p621
I0
sS'overlap-2-food-location'
p622
I0
sS'flute-2-food-location'
p623
I0
sS'spread-2-location'
p624
I11
sS'muddle-2-food'
p625
I0
sS'knead-2-location'
p626
I0
sS'measure-2-food-location'
p627
I2
sS'note-1-food'
p628
I0
sS'chill-1-food'
p629
I1
sS'julienne-2-food-location'
p630
I0
sS'strain-2-location'
p631
I0
sS'distribute-2-location'
p632
I0
sS'freeze-2-location'
p633
I0
sS'seal-2-food'
p634
I0
sS'knead-1-food'
p635
I0
sS'seat-2-food-location'
p636
I0
sS'icing-2-food'
p637
I0
sS'rinse-2-food-location'
p638
I0
sS'toast-2-location'
p639
I0
sS'marinate-2-food'
p640
I3
sS'moisten-1-food'
p641
I0
sS'open-2-food-location'
p642
I0
sS'beat-1-food'
p643
I17
sS'repeat-2-location'
p644
I1
sS'begin-2-food-location'
p645
I1
sS'dry-2-location'
p646
I0
sS'prick-1-food'
p647
I0
sS'cake-1-food'
p648
I2
sS'dust-1-location'
p649
I0
sS'align-2-food'
p650
I0
sS'form-2-food'
p651
I0
sS'wipe-2-food-location'
p652
I1
sS'pipe-1-location'
p653
I0
sS'let-2-food'
p654
I4
sS'spread-1-food'
p655
I18
sS'taste-2-location'
p656
I0
sS'create-1-location'
p657
I0
sS'sort-2-food'
p658
I0
sS'ladle-1-location'
p659
I4
sS'rub-1-location'
p660
I0
sS'julienne-1-food'
p661
I0
sS'move-1-food'
p662
I0
sS'tip-1-food'
p663
I1
sS'blend-1-food'
p664
I12
sS'loosen-2-location'
p665
I1
sS'thaw-2-food'
p666
I0
sS'reshape-2-food-location'
p667
I0
sS'grate-1-location'
p668
I1
sS'flatten-2-food-location'
p669
I0
sS'process-2-location'
p670
I0
sS'measure-2-location'
p671
I1
sS'empty-1-location'
p672
I0
sS'drain-1-location'
p673
I33
sS'lock-2-food'
p674
I0
sS'follow-2-location'
p675
I0
sS'set-2-location'
p676
I5
sS'build-2-food'
p677
I0
sS'stir-2-food'
p678
I235
sS'position-1-food'
p679
I0
sS'bring-1-location'
p680
I0
sS'arrange-1-location'
p681
I2
sS'poke-1-location'
p682
I0
sS'unroll-1-food'
p683
I1
sS'increase-2-location'
p684
I1
sS'butter-1-location'
p685
I13
sS'spray-1-food'
p686
I0
sS'unroll-1-location'
p687
I0
sS'dip-2-location'
p688
I0
sS'spoon-2-food-location'
p689
I8
sS'freeze-2-food-location'
p690
I0
sS'chop-1-location'
p691
I0
sS'render-1-food'
p692
I0
sS'plop-2-location'
p693
I0
sS'knife-1-location'
p694
I0
sS'measure-1-food'
p695
I1
sS'whip-1-food'
p696
I0
sS'empty-2-food'
p697
I0
sS'cube-2-location'
p698
I0
sS'sift-1-location'
p699
I0
sS'boil-2-location'
p700
I0
sS'enjoy-1-location'
p701
I0
sS'coat-1-food'
p702
I3
sS'quarter-2-food'
p703
I0
sS'add-1-location'
p704
I16
sS'fit-2-food'
p705
I0
sS'salt-1-food'
p706
I0
sS'trim-2-food-location'
p707
I0
sS'smooth-1-location'
p708
I0
sS'portion-1-food'
p709
I0
sS'seal-2-location'
p710
I0
sS'sprinkle-2-food-location'
p711
I14
sS'moisten-2-food'
p712
I0
sS'grate-2-location'
p713
I0
sS'lower-1-food'
p714
I0
sS'canned-1-food'
p715
I0
sS'let-2-food-location'
p716
I0
sS'salt-2-food'
p717
I0
sS'broil-2-food-location'
p718
I2
sS'set-1-food'
p719
I0
sS'dip-1-food'
p720
I0
sS'crush-2-food'
p721
I0
sS'dunk-2-food-location'
p722
I0
sS'store-1-food'
p723
I0
sS'reserve-2-location'
p724
I2
sS'portion-1-location'
p725
I0
sS'grind-1-food'
p726
I0
sS'discard-2-food-location'
p727
I0
sS'punch-2-food-location'
p728
I0
sS'sort-2-location'
p729
I0
sS'leave-2-food'
p730
I0
sS'churn-2-food-location'
p731
I0
sS'scramble-1-food'
p732
I0
sS'reduce-2-location'
p733
I0
sS'fluff-2-food-location'
p734
I1
sS'season-2-food-location'
p735
I2
sS'coating-2-food'
p736
I1
sS'pipe-2-location'
p737
I0
sS'cube-2-food'
p738
I0
sS'dust-2-food'
p739
I1
sS'coat-1-location'
p740
I0
sS'dissolve-1-location'
p741
I1
sS'fluff-1-location'
p742
I2
sS'poach-2-food'
p743
I0
sS'dry-1-food'
p744
I0
sS'steep-1-location'
p745
I0
sS'scrub-1-food'
p746
I3
sS'dunk-2-location'
p747
I0
sS'reduce-1-food'
p748
I0
sS'thread-1-location'
p749
I0
sS'continue-1-food'
p750
I1
sS'quarter-2-location'
p751
I0
sS'marinate-1-food'
p752
I0
sS'crumple-1-food'
p753
I1
sS'trim-2-location'
p754
I0
sS'beat-2-food'
p755
I23
sS'flavor-1-location'
p756
I0
sS'handle-2-location'
p757
I0
sS'smother-2-food'
p758
I0
sS'frost-2-food-location'
p759
I0
sS'slice-1-food'
p760
I18
sS'stack-1-food'
p761
I0
sS'pound-2-food'
p762
I0
sS'chop-2-food'
p763
I5
sS'make-2-food'
p764
I4
sS'keep-2-food'
p765
I0
sS'crimp-1-food'
p766
I0
sS'shape-2-food'
p767
I0
sS'twist-2-food-location'
p768
I0
sS'roll-2-location'
p769
I0
sS'reheat-2-food-location'
p770
I0
sS'garnish-2-food-location'
p771
I1
sS'check-1-food'
p772
I1
sS'position-2-location'
p773
I0
sS'crumble-2-location'
p774
I1
sS'pulse-2-food'
p775
I0
sS'ask-2-food-location'
p776
I0
sS'mound-1-location'
p777
I0
sS'grind-2-food'
p778
I0
sS'decrease-2-location'
p779
I0
sS'prepare-2-location'
p780
I0
sS'apply-2-location'
p781
I0
sS'served-2-location'
p782
I0
sS'chop-1-food'
p783
I11
sS'scoop-2-location'
p784
I0
sS'reduce-2-food-location'
p785
I0
sS'ready-2-location'
p786
I0
sS'lower-2-location'
p787
I0
sS'canned-2-location'
p788
I0
sS'cool-2-food'
p789
I2
sS'discard-2-food'
p790
I0
sS'broil-2-location'
p791
I0
sS'crumple-2-location'
p792
I0
sS'cheese-2-location'
p793
I0
sS'pulse-2-location'
p794
I0
sS'rinse-2-food'
p795
I1
sS'lower-2-food-location'
p796
I1
sS'canned-2-food-location'
p797
I0
sS'raise-2-location'
p798
I0
sS'stack-2-food-location'
p799
I0
sS'replace-2-location'
p800
I0
sS'drizzle-2-food'
p801
I1
sS'served-1-food'
p802
I0
sS'press-1-food'
p803
I0
sS'fit-1-food'
p804
I0
sS'finish-1-food'
p805
I0
sS'top-2-food-location'
p806
I8
sS'reshape-1-food'
p807
I0
sS'lock-1-location'
p808
I1
sS'tuck-2-location'
p809
I0
sS'dump-1-food'
p810
I0
sS'crumble-2-food'
p811
I2
sS'whirl-1-location'
p812
I0
sS'assemble-1-food'
p813
I0
sS'plop-2-food'
p814
I0
sS'scramble-2-location'
p815
I0
sS'stuff-1-food'
p816
I0
sS'replace-2-food-location'
p817
I0
sS'tip-1-location'
p818
I0
sS'shake-2-food-location'
p819
I1
sS'carve-2-food'
p820
I0
sS'grill-1-location'
p821
I0
sS'mince-1-food'
p822
I0
sS'flatten-1-location'
p823
I0
sS'smoke-1-location'
p824
I0
sS'pile-2-food'
p825
I0
sS'build-2-food-location'
p826
I0
sS'turn-2-location'
p827
I1
sS'portion-2-food'
p828
I0
sS'thread-2-food-location'
p829
I0
sS'sauce-2-food'
p830
I1
sS'create-2-location'
p831
I0
sS'reheat-2-food'
p832
I0
sS'position-1-location'
p833
I0
sS'dice-2-food-location'
p834
I1
sS'mash-2-food-location'
p835
I13
sS'whisk-1-location'
p836
I2
sS'twist-2-food'
p837
I0
sS'ease-2-location'
p838
I0
sS'decrease-1-food'
p839
I0
sS'apply-1-food'
p840
I0
sS'push-1-location'
p841
I0
sS'shake-1-food'
p842
I1
sS'braise-1-location'
p843
I0
sS'bake-2-food-location'
p844
I48
sS'coating-1-location'
p845
I0
sS'snip-1-location'
p846
I0
sS'alternate-1-location'
p847
I0
sS'sear-1-location'
p848
I0
sS'tap-2-food'
p849
I0
sS'flour-1-location'
p850
I7
sS'test-1-location'
p851
I0
sS'top-2-food'
p852
I15
sS'unwrap-1-location'
p853
I0
sS'pierce-2-location'
p854
I0
sS'scramble-2-food'
p855
I0
sS'overlap-1-location'
p856
I0
sS'season-2-location'
p857
I0
sS'raise-2-food'
p858
I0
sS'hollow-2-location'
p859
I0
sS'soak-2-food'
p860
I5
sS'ready-2-food'
p861
I0
sS'refrigerate-2-food-location'
p862
I0
sS'debone-1-location'
p863
I0
sS'invert-1-food'
p864
I0
sS'puree-1-food'
p865
I1
sS'can-2-food-location'
p866
I0
sS'have-1-food'
p867
I0
sS'poke-2-food-location'
p868
I1
sS'cake-2-food-location'
p869
I0
sS'dump-1-location'
p870
I1
sS'clean-1-location'
p871
I0
sS'water-1-food'
p872
I0
sS'strain-2-food-location'
p873
I0
sS'press-2-food'
p874
I4
sS'cheese-2-food'
p875
I2
sS'build-1-food'
p876
I0
sS'stream-2-food'
p877
I2
sS'strain-2-food'
p878
I0
sS'toast-1-location'
p879
I0
sS'simmer-1-food'
p880
I35
sS'simmer-2-location'
p881
I0
sS'finish-2-food'
p882
I0
sS'best-2-food'
p883
I0
sS'plunge-1-location'
p884
I0
sS'tilt-1-food'
p885
I0
sS'fill-1-food'
p886
I1
sS'slide-2-food'
p887
I0
sS'serve-1-food'
p888
I43
sS'scrub-2-food-location'
p889
I0
sS'run-2-food'
p890
I1
sS'thicken-1-location'
p891
I0
sS'stir-1-food'
p892
I708
sS'shred-1-location'
p893
I13
sS'pierce-1-food'
p894
I0
sS'press-1-location'
p895
I14
sS'wrap-1-location'
p896
I0
sS'smother-2-food-location'
p897
I0
sS'select-2-food-location'
p898
I0
sS'push-2-food'
p899
I0
sS'reheat-1-food'
p900
I1
sS'rub-2-food-location'
p901
I0
sS'reshape-1-location'
p902
I0
sS'use-1-location'
p903
I1
sS'start-1-food'
p904
I0
sS'mash-1-location'
p905
I5
sS'arrange-2-food-location'
p906
I28
sS'pound-1-location'
p907
I0
sS'bake-2-location'
p908
I22
sS'uncover-2-location'
p909
I0
sS'check-2-food'
p910
I0
sS'decorate-1-location'
p911
I0
sS'thread-2-food'
p912
I0
sS'dice-1-food'
p913
I5
sS'tuck-1-food'
p914
I0
sS'roast-2-location'
p915
I0
sS'cream-1-location'
p916
I0
sS'stir-1-location'
p917
I28
sS'prick-1-location'
p918
I0
sS'halve-1-food'
p919
I9
sS'knife-2-food-location'
p920
I0
sS'wash-2-food-location'
p921
I0
sS'grill-2-food'
p922
I2
sS'spoon-1-location'
p923
I19
sS'press-2-location'
p924
I1
sS'whisk-1-food'
p925
I34
sS'separate-2-food-location'
p926
I1
sS'fill-1-location'
p927
I6
sS'work-2-location'
p928
I0
sS'lie-2-location'
p929
I0
sS'reserve-2-food-location'
p930
I5
sS'whirl-2-location'
p931
I0
sS'roast-1-food'
p932
I0
sS'lock-2-food-location'
p933
I0
sS'cover-1-location'
p934
I91
sS'combine-2-food'
p935
I59
sS'dissolve-2-food-location'
p936
I4
sS'break-2-food'
p937
I0
sS'split-2-food'
p938
I0
sS'squeeze-2-location'
p939
I0
sS'dice-1-location'
p940
I1
sS'swirl-2-location'
p941
I0
sS'layer-2-location'
p942
I2
sS'shave-1-food'
p943
I0
sS'plunge-2-food-location'
p944
I0
sS'flatten-2-food'
p945
I0
sS'seat-2-food'
p946
I0
sS'note-2-food'
p947
I0
sS'serve-1-location'
p948
I4
sS'smother-1-location'
p949
I0
sS'return-1-food'
p950
I0
sS'dry-2-food'
p951
I0
sS'salt-1-location'
p952
I0
sS'icing-2-location'
p953
I0
sS'place-2-food-location'
p954
I570
sS'steam-2-food-location'
p955
I2
sS'pile-1-location'
p956
I0
sS'clean-1-food'
p957
I1
sS'broil-2-food'
p958
I1
sS'return-2-food'
p959
I0
sS'reduce-2-food'
p960
I0
sS'spray-2-location'
p961
I2
sS'line-2-food'
p962
I0
sS'prepare-1-food'
p963
I0
sS'whip-1-location'
p964
I0
sS'mix-1-location'
p965
I9
sS'check-2-location'
p966
I0
sS'stuff-2-location'
p967
I0
sS'note-1-location'
p968
I0
sS'overlap-1-food'
p969
I0
sS'prepare-2-food-location'
p970
I7
sS'hold-2-food-location'
p971
I0
sS'seat-2-location'
p972
I0
sS'spoon-1-food'
p973
I7
sS'puree-2-food-location'
p974
I7
sS'dredge-1-location'
p975
I0
sS'place-2-food'
p976
I38
sS'set-2-food-location'
p977
I3
sS'divide-1-location'
p978
I4
sS'keep-1-food'
p979
I0
sS'drain-2-food'
p980
I1
sS'season-1-location'
p981
I1
sS'flour-2-food-location'
p982
I0
sS'peel-2-food-location'
p983
I0
sS'crumple-1-location'
p984
I0
sS'reheat-1-location'
p985
I0
sS'seal-1-food'
p986
I0
sS'transfer-1-location'
p987
I90
sS'punch-2-location'
p988
I0
sS'pour-1-location'
p989
I79
sS'rinse-2-location'
p990
I0
sS'sear-1-food'
p991
I0
sS'whipped-2-food'
p992
I0
sS'chill-2-food-location'
p993
I0
sS'pack-2-food'
p994
I0
sS'crush-1-location'
p995
I0
sS'tent-1-food'
p996
I0
sS'seal-1-location'
p997
I0
sS'drizzle-2-location'
p998
I0
sS'carve-1-location'
p999
I0
sS'drizzle-2-food-location'
p1000
I4
sS'mound-2-location'
p1001
I0
sS'lay-2-location'
p1002
I0
sS'sort-2-food-location'
p1003
I0
sS'toss-2-location'
p1004
I0
sS'form-2-food-location'
p1005
I0
sS'invert-1-location'
p1006
I1
sS'note-2-food-location'
p1007
I0
sS'pour-1-food'
p1008
I126
sS'cake-2-food'
p1009
I0
sS'ease-2-food'
p1010
I0
sS'mash-2-location'
p1011
I4
sS'scatter-1-location'
p1012
I0
sS'score-2-food-location'
p1013
I0
sS'hold-2-food'
p1014
I0
sS'freezing-1-food'
p1015
I1
sS'surround-1-food'
p1016
I0
sS'unroll-2-food'
p1017
I1
sS'gather-2-food-location'
p1018
I0
sS'alternate-2-food'
p1019
I0
sS'twist-2-location'
p1020
I0
sS'peel-1-food'
p1021
I40
sS'stream-1-food'
p1022
I0
sS'warm-2-location'
p1023
I0
sS'peel-2-food'
p1024
I2
sS'distribute-1-food'
p1025
I0
sS'shape-1-food'
p1026
I1
sS'load-1-food'
p1027
I0
sS'chill-2-food'
p1028
I1
sS'crack-1-food'
p1029
I1
sS'pile-1-food'
p1030
I0
sS'align-1-food'
p1031
I0
sS'refrigerate-2-location'
p1032
I0
sS'crumb-2-location'
p1033
I0
sS'wrap-2-food-location'
p1034
I0
sS'taste-1-food'
p1035
I1
sS'smoke-2-food'
p1036
I0
sS'line-1-food'
p1037
I0
sS'adjust-2-location'
p1038
I0
sS'pare-2-food'
p1039
I0
sS'tuck-2-food-location'
p1040
I0
sS'thicken-2-food-location'
p1041
I0
sS'ladle-1-food'
p1042
I0
sS'slide-1-food'
p1043
I0
sS'allow-1-food'
p1044
I1
sS'ladle-2-food'
p1045
I0
sS'brush-2-food'
p1046
I3
sS'whirl-2-food'
p1047
I0
sS'cut-1-location'
p1048
I2
sS'unwrap-2-location'
p1049
I0
sS'sauce-1-food'
p1050
I2
sS'enjoy-2-food-location'
p1051
I0
sS'increase-1-location'
p1052
I0
sS'tap-1-location'
p1053
I0
sS'icing-1-location'
p1054
I0
sS'pile-2-location'
p1055
I0
sS'slide-2-location'
p1056
I0
sS'muddle-2-food-location'
p1057
I0
sS'whirl-1-food'
p1058
I0
sS'reserve-1-food'
p1059
I9
sS'soak-1-location'
p1060
I0
sS'fill-2-location'
p1061
I0
sS'boil-1-location'
p1062
I0
sS'increase-2-food-location'
p1063
I0
sS'microwave-2-food'
p1064
I1
sS'loosen-2-food'
p1065
I0
sS'can-2-food'
p1066
I0
sS'open-1-food'
p1067
I1
sS'flute-1-location'
p1068
I0
sS'cool-2-food-location'
p1069
I1
sS'fold-1-food'
p1070
I39
sS'combine-2-location'
p1071
I2
sS'pour-2-food'
p1072
I53
sS'reserve-2-food'
p1073
I0
sS'end-2-location'
p1074
I0
sS'lift-2-food'
p1075
I0
sS'cool-2-location'
p1076
I0
sS'discard-2-location'
p1077
I1
sS'beat-2-food-location'
p1078
I122
sS'fit-2-location'
p1079
I1
sS'repeat-1-food'
p1080
I9
sS'dot-2-location'
p1081
I0
sS'flour-1-food'
p1082
I1
sS'saute-2-location'
p1083
I0
sS'hollow-1-food'
p1084
I0
sS'twist-1-location'
p1085
I0
sS'ask-2-location'
p1086
I0
sS'mash-2-food'
p1087
I7
sS'warm-1-food'
p1088
I1
sS'shred-2-food'
p1089
I2
sS'whipped-2-location'
p1090
I0
sS'dab-2-food-location'
p1091
I0
sS'create-2-food'
p1092
I0
sS'soak-1-food'
p1093
I0
sS'warm-2-food-location'
p1094
I2
sS'sort-1-location'
p1095
I0
sS'rest-1-location'
p1096
I0
sS'toast-1-food'
p1097
I1
sS'best-2-location'
p1098
I0
sS'steep-2-food'
p1099
I0
sS'brush-2-location'
p1100
I0
sS'scramble-1-location'
p1101
I0
sS'scoop-1-location'
p1102
I4
sS'smooth-1-food'
p1103
I0
sS'thicken-2-food'
p1104
I0
sS'follow-1-food'
p1105
I1
sS'preheat-2-food-location'
p1106
I2
sS'plunge-2-location'
p1107
I0
sS'halve-2-food-location'
p1108
I1
sS'squeeze-1-food'
p1109
I4
sS'stop-2-food'
p1110
I0
sS'scrub-1-location'
p1111
I0
sS'braise-2-location'
p1112
I0
sS'dunk-1-location'
p1113
I0
sS'serve-2-food'
p1114
I2
sS'pick-2-food-location'
p1115
I0
sS'crumble-2-food-location'
p1116
I27
sS'dip-2-food-location'
p1117
I1
sS'pour-2-food-location'
p1118
I93
sS'seal-2-food-location'
p1119
I0
sS'pull-2-food-location'
p1120
I0
sS'turn-1-location'
p1121
I2
sS'store-1-location'
p1122
I0
sS'crumb-2-food'
p1123
I0
sS'insert-2-food'
p1124
I0
sS'shave-2-food'
p1125
I0
sS'prick-2-location'
p1126
I0
sS'grease-1-food'
p1127
I4
sS'crush-2-location'
p1128
I0
sS'fluff-2-location'
p1129
I0
sS'surround-2-food'
p1130
I0
sS'run-2-food-location'
p1131
I0
sS'store-2-food-location'
p1132
I0
sS'tip-2-food-location'
p1133
I0
sS'crust-1-location'
p1134
I0
sS'brown-2-food'
p1135
I2
sS'pare-2-location'
p1136
I0
sS'churn-2-food'
p1137
I0
sS'follow-2-food'
p1138
I2
sS'wash-2-food'
p1139
I0
sS'dredge-1-food'
p1140
I1
sS'ensure-2-food-location'
p1141
I0
sS'freezing-1-location'
p1142
I0
sS'swirl-1-food'
p1143
I0
sS'lie-2-food-location'
p1144
I0
sS'baste-2-location'
p1145
I0
sS'tuck-2-food'
p1146
I0
sS'cheese-2-food-location'
p1147
I1
sS'skim-1-location'
p1148
I0
sS'round-2-food-location'
p1149
I0
sS'dredge-2-food-location'
p1150
I0
sS'replace-1-food'
p1151
I0
sS'rub-2-location'
p1152
I0
sS'store-2-food'
p1153
I0
sS'strain-1-food'
p1154
I1
sS'ease-1-location'
p1155
I0
sS'load-1-location'
p1156
I0
sS'split-1-food'
p1157
I2
sS'canned-1-location'
p1158
I0
sS'spray-1-location'
p1159
I1
sS'butter-2-food-location'
p1160
I3
sS'repeat-2-food'
p1161
I1
sS'whisk-2-food'
p1162
I49
sS'cook-1-location'
p1163
I6
sS'select-1-food'
p1164
I0
sS'oil-2-location'
p1165
I0
sS'fold-2-location'
p1166
I0
sS'wipe-1-location'
p1167
I2
sS'pass-2-food'
p1168
I0
sS'spread-2-food-location'
p1169
I35
sS'flavor-1-food'
p1170
I0
sS'smooth-2-food'
p1171
I0
sS'decrease-1-location'
p1172
I0
sS'apply-1-location'
p1173
I0
sS'raise-2-food-location'
p1174
I0
sS'separate-1-food'
p1175
I3
sS'form-2-location'
p1176
I0
sS'shake-2-location'
p1177
I0
sS'build-1-location'
p1178
I0
sS'make-1-food'
p1179
I0
sS'raise-1-food'
p1180
I0
sS'cool-1-location'
p1181
I0
sS'separate-2-food'
p1182
I0
sS'refrigerate-1-food'
p1183
I2
sS'puree-1-location'
p1184
I0
sS'start-2-location'
p1185
I0
sS'use-2-food'
p1186
I1
sS'insert-2-food-location'
p1187
I0
sS'work-2-food'
p1188
I0
sS'grease-1-location'
p1189
I135
sS'gather-1-location'
p1190
I0
sS'stream-1-location'
p1191
I0
sS'unwrap-2-food'
p1192
I0
sS'skim-2-food'
p1193
I0
sS'follow-2-food-location'
p1194
I0
sS'plunge-1-food'
p1195
I0
sS'pull-1-location'
p1196
I0
sS'apply-2-food-location'
p1197
I0
sS'braise-1-food'
p1198
I0
sS'handle-1-location'
p1199
I0
sS'invert-2-location'
p1200
I1
sS'grease-2-food'
p1201
I0
sS'surround-2-food-location'
p1202
I0
sS'preheat-1-food'
p1203
I0
sS'saute-1-food'
p1204
I9
sS'mince-2-location'
p1205
I0
sS'render-1-location'
p1206
I0
sS'invert-2-food-location'
p1207
I0
sS'begin-2-food'
p1208
I0
sS'discard-1-location'
p1209
I7
sS'flour-2-food'
p1210
I5
sS'heat-2-location'
p1211
I10
sS'cut-2-food-location'
p1212
I2
sS'open-2-food'
p1213
I0
sS'swirl-2-food-location'
p1214
I1
sS'hollow-2-food'
p1215
I0
sS'garnish-2-location'
p1216
I0
sS'whipped-1-food'
p1217
I0
sS'watch-2-location'
p1218
I0
sS'fold-1-location'
p1219
I0
sS'blanch-2-location'
p1220
I0
sS'loosen-1-location'
p1221
I0
sS'puree-2-location'
p1222
I0
sS'uncover-2-food-location'
p1223
I0
sS'empty-2-food-location'
p1224
I1
sS'roll-1-location'
p1225
I6
sS'reposition-1-location'
p1226
I0
sS'warm-1-location'
p1227
I0
sS'let-1-food'
p1228
I11
sS'lie-2-food'
p1229
I0
sS'unwrap-2-food-location'
p1230
I0
sS'scatter-1-food'
p1231
I0
sS'cube-2-food-location'
p1232
I0
sS'blend-2-location'
p1233
I2
sS'tap-1-food'
p1234
I1
sS'canned-2-food'
p1235
I0
sS'lower-2-food'
p1236
I1
sS'flip-1-location'
p1237
I0
sS'stretch-2-food'
p1238
I0
sS'brush-2-food-location'
p1239
I2
sS'dab-1-food'
p1240
I0
sS'plop-1-food'
p1241
I0
sS'hold-2-location'
p1242
I0
sS'scrub-2-food'
p1243
I0
sS'portion-2-food-location'
p1244
I0
sS'stir-2-food-location'
p1245
I224
sS'pour-2-location'
p1246
I7
sS'test-2-food'
p1247
I0
sS'stop-2-food-location'
p1248
I0
sS'cook-1-food'
p1249
I192
sS'stack-1-location'
p1250
I0
sS'alternate-1-food'
p1251
I0
sS'crust-1-food'
p1252
I0
sS'pass-2-location'
p1253
I0
sS'chop-2-food-location'
p1254
I4
sS'pulse-1-location'
p1255
I0
sS'shake-2-food'
p1256
I1
sS'start-2-food'
p1257
I0
sS'change-2-location'
p1258
I0
sS'whirl-2-food-location'
p1259
I0
sS'drain-2-location'
p1260
I2
sS'arrange-2-location'
p1261
I0
sS'pat-2-location'
p1262
I0
sS'alternate-2-food-location'
p1263
I1
sS'begin-1-location'
p1264
I0
sS'halve-2-location'
p1265
I0
sS'start-2-food-location'
p1266
I0
sS'push-2-food-location'
p1267
I2
sS'make-1-location'
p1268
I0
sS'shape-2-food-location'
p1269
I0
sS'bring-1-food'
p1270
I0
sS'build-2-location'
p1271
I0
sS'smoke-2-location'
p1272
I0
sS'oil-1-location'
p1273
I4
sS'leave-2-food-location'
p1274
I1
sS'transfer-2-food'
p1275
I0
sS'plunge-2-food'
p1276
I0
sS'throw-2-food'
p1277
I0
sS'have-2-food'
p1278
I0
sS'tent-2-location'
p1279
I0
sS'ensure-1-food'
p1280
I0
sS'lift-2-food-location'
p1281
I0
sS'melt-2-food-location'
p1282
I194
sS'ensure-2-location'
p1283
I0
sS'process-2-food'
p1284
I0
sS'coat-2-food'
p1285
I1
sS'thicken-2-location'
p1286
I0
sS'form-1-food'
p1287
I1
sS'spread-2-food'
p1288
I36
sS'raise-1-location'
p1289
I0
sS'lock-2-location'
p1290
I0
sS'whip-2-food-location'
p1291
I3
sS'scrape-2-food-location'
p1292
I3
sS'peel-2-location'
p1293
I0
sS'end-2-food-location'
p1294
I0
sS'dust-2-location'
p1295
I0
sS'water-2-food'
p1296
I0
sS'round-2-location'
p1297
I0
sS'crimp-1-location'
p1298
I0
sS'stop-2-location'
p1299
I0
sS'saute-2-food'
p1300
I16
sS'change-1-location'
p1301
I0
sS'separate-2-location'
p1302
I0
sS'sauce-2-location'
p1303
I0
sS'served-2-food-location'
p1304
I0
sS'top-1-location'
p1305
I7
sS'scatter-2-food-location'
p1306
I1
sS'mash-1-food'
p1307
I2
sS'pass-2-food-location'
p1308
I1
sS'salt-2-food-location'
p1309
I0
sS'makes-2-food'
p1310
I0
sS'break-2-food-location'
p1311
I9
sS'grate-1-food'
p1312
I0
sS'churn-1-food'
p1313
I0
sS'select-2-food'
p1314
I0
sS'scrub-2-location'
p1315
I0
sS'blend-1-location'
p1316
I1
sS'trim-1-location'
p1317
I0
sS'clean-2-location'
p1318
I0
sS'shred-2-location'
p1319
I1
sS'steam-1-food'
p1320
I0
sS'knead-2-food-location'
p1321
I0
sS'push-2-location'
p1322
I0
sS'load-2-food-location'
p1323
I0
sS'dab-2-food'
p1324
I0
sS'enjoy-1-food'
p1325
I0
sS'drop-2-food'
p1326
I3
sS'muddle-1-location'
p1327
I0
sS'keep-1-location'
p1328
I1
sS'marinate-1-location'
p1329
I0
sS'melt-1-food'
p1330
I4
sS'scrape-2-food'
p1331
I1
sS'mince-2-food-location'
p1332
I0
sS'beat-2-location'
p1333
I0
sS'steam-2-food'
p1334
I0
sS'cake-1-location'
p1335
I0
sS'sift-2-location'
p1336
I0
sS'sear-2-location'
p1337
I0
sS'adjust-1-location'
p1338
I1
sS'gather-1-food'
p1339
I0
sS'process-2-food-location'
p1340
I1
sS'icing-2-food-location'
p1341
I0
sS'smooth-2-location'
p1342
I0
sS'continue-2-location'
p1343
I0
sS'flute-2-food'
p1344
I0
sS'fry-2-food-location'
p1345
I12
sS'fry-2-location'
p1346
I0
sS'tilt-1-location'
p1347
I0
sS'poke-2-food'
p1348
I0
sS'keep-2-food-location'
p1349
I0
sS'fit-1-location'
p1350
I2
sS'repeat-2-food-location'
p1351
I0
sS'whip-2-food'
p1352
I0
sS'mound-2-food-location'
p1353
I0
sS'wear-2-location'
p1354
I0
sS'pound-1-food'
p1355
I1
sS'align-2-food-location'
p1356
I0
sS'butter-2-food'
p1357
I4
sS'slice-2-location'
p1358
I0
sS'flute-2-location'
p1359
I0
sS'move-2-food-location'
p1360
I0
sS'pick-1-food'
p1361
I0
sS'place-1-food'
p1362
I12
sS'flavor-2-food-location'
p1363
I0
sS'blanch-2-food'
p1364
I0
sS'julienne-2-food'
p1365
I0
sS'take-2-location'
p1366
I1
sS'cut-2-food'
p1367
I6
sS'dunk-1-food'
p1368
I0
sS'hold-1-food'
p1369
I0
sS'stretch-1-location'
p1370
I0
sS'mound-2-food'
p1371
I1
sS'shave-2-location'
p1372
I0
sS'stretch-1-food'
p1373
I0
sS'blend-2-food-location'
p1374
I16
sS'best-2-food-location'
p1375
I0
sS'knife-1-food'
p1376
I0
sS'pierce-1-location'
p1377
I2
sS'steep-2-location'
p1378
I0
sS'cream-1-food'
p1379
I0
sS'slice-1-location'
p1380
I0
sS'insert-1-location'
p1381
I0
sS'quarter-2-food-location'
p1382
I0
sS'grate-2-food'
p1383
I1
sS'crimp-2-food-location'
p1384
I0
sS'fit-2-food-location'
p1385
I3
sS'assemble-1-location'
p1386
I0
sS'tilt-2-food'
p1387
I0
sS'cover-2-location'
p1388
I2
sS'throw-1-location'
p1389
I0
sS'add-2-food-location'
p1390
I81
sS'baste-2-food-location'
p1391
I0
sS'halve-1-location'
p1392
I0
sS'divide-1-food'
p1393
I1
sS'load-2-food'
p1394
I1
sS'microwave-2-location'
p1395
I0
sS'watch-1-food'
p1396
I0
sS'surround-2-location'
p1397
I0
sS'can-2-location'
p1398
I0
sS'coating-2-food-location'
p1399
I0
sS'line-2-location'
p1400
I2
sS'smooth-2-food-location'
p1401
I1
sS'swirl-2-food'
p1402
I0
sS'divide-2-food-location'
p1403
I6
sS'tip-2-food'
p1404
I0
sS'take-2-food'
p1405
I0
sS'grease-2-location'
p1406
I3
sS'allow-2-location'
p1407
I0
sS'layer-2-food'
p1408
I8
sS'rest-1-food'
p1409
I0
sS'toss-1-food'
p1410
I23
sS'grind-1-location'
p1411
I0
sS'wrap-2-food'
p1412
I0
sS'roll-2-food'
p1413
I4
sS'rinse-1-location'
p1414
I1
sS'leave-2-location'
p1415
I0
s.(dp0
S'scoop-DOBJPARG-false'
p1
I0
sS'peel-DOBJ-false'
p2
I0
sS'take-DOBJPARG-true'
p3
I2
sS'preheat-DOBJPARG-true'
p4
I921
sS'build-PARG-false'
p5
I0
sS'drizzle-DOBJPARG-false'
p6
I0
sS'break-DOBJPARG-false'
p7
I0
sS'mound-DOBJPARG-true'
p8
I6
sS'pierce-DOBJ-true'
p9
I1
sS'handle-DOBJ-true'
p10
I0
sS'dot--false'
p11
I0
sS'pat--false'
p12
I1
sS'drain-DOBJ-false'
p13
I0
sS'split-PARG-true'
p14
I1
sS'crumble-DOBJ-false'
p15
I0
sS'water-PARG-false'
p16
I0
sS'distribute-DOBJ-true'
p17
I1
sS'served-PARG-false'
p18
I0
sS'reheat-PARG-false'
p19
I0
sS'wrap-DOBJPARG-false'
p20
I0
sS'chop--false'
p21
I54
sS'clean-DOBJ-false'
p22
I0
sS'brush-DOBJPARG-true'
p23
I44
sS'gather-DOBJPARG-false'
p24
I0
sS'sift-DOBJPARG-true'
p25
I12
sS'lay-DOBJ-true'
p26
I1
sS'put-PARG-true'
p27
I7
sS'canned-DOBJ-true'
p28
I0
sS'mince-DOBJ-true'
p29
I1
sS'crimp-PARG-true'
p30
I0
sS'distribute-DOBJPARG-false'
p31
I0
sS'coating-PARG-true'
p32
I1
sS'beat-PARG-false'
p33
I0
sS'handle-DOBJPARG-true'
p34
I0
sS'dunk-DOBJ-true'
p35
I0
sS'lower-DOBJ-true'
p36
I7
sS'wipe-DOBJPARG-false'
p37
I0
sS'prepare-DOBJPARG-false'
p38
I0
sS'ready-PARG-true'
p39
I2
sS'dice-PARG-false'
p40
I0
sS'steam-DOBJPARG-false'
p41
I0
sS'scatter-PARG-true'
p42
I0
sS'stream-PARG-false'
p43
I0
sS'refrigerate--false'
p44
I91
sS'pat-DOBJPARG-false'
p45
I0
sS'run-PARG-false'
p46
I0
sS'braise-PARG-true'
p47
I1
sS'flour-DOBJ-true'
p48
I10
sS'finish-DOBJPARG-true'
p49
I5
sS'stack-PARG-false'
p50
I0
sS'freezing--false'
p51
I0
sS'position--false'
p52
I0
sS'fold-DOBJPARG-true'
p53
I59
sS'add-DOBJ-true'
p54
I1017
sS'quarter--false'
p55
I1
sS'scramble-PARG-true'
p56
I0
sS'turn-DOBJPARG-false'
p57
I0
sS'carve-DOBJ-false'
p58
I0
sS'replace-DOBJ-false'
p59
I0
sS'insert-DOBJPARG-true'
p60
I5
sS'flatten-DOBJPARG-true'
p61
I2
sS'raise-PARG-true'
p62
I0
sS'pulse-DOBJPARG-true'
p63
I10
sS'mash-PARG-true'
p64
I14
sS'pack-DOBJPARG-false'
p65
I0
sS'lock-PARG-false'
p66
I0
sS'distribute--false'
p67
I0
sS'garnish-DOBJPARG-false'
p68
I0
sS'slide-DOBJ-true'
p69
I0
sS'arrange-DOBJ-true'
p70
I1
sS'blanch-DOBJ-false'
p71
I0
sS'punch-DOBJPARG-false'
p72
I0
sS'shred-DOBJPARG-true'
p73
I32
sS'crimp-DOBJPARG-false'
p74
I0
sS'braise-DOBJPARG-true'
p75
I0
sS'smooth-DOBJPARG-true'
p76
I3
sS'hollow-DOBJ-false'
p77
I0
sS'fluff-PARG-true'
p78
I2
sS'render-PARG-false'
p79
I0
sS'dry-DOBJPARG-true'
p80
I3
sS'stream--false'
p81
I2
sS'test-PARG-true'
p82
I1
sS'lie-DOBJ-true'
p83
I0
sS'shape-PARG-true'
p84
I36
sS'strain-DOBJ-true'
p85
I2
sS'take-PARG-true'
p86
I1
sS'mix--false'
p87
I212
sS'drain-PARG-true'
p88
I213
sS'grill-PARG-true'
p89
I18
sS'thicken-DOBJ-true'
p90
I0
sS'insert-PARG-false'
p91
I0
sS'reserve--false'
p92
I11
sS'tent--false'
p93
I0
sS'seal-DOBJ-true'
p94
I13
sS'wear-DOBJ-false'
p95
I0
sS'fry--false'
p96
I0
sS'flour-PARG-true'
p97
I14
sS'mix-DOBJ-true'
p98
I119
sS'thicken-DOBJ-false'
p99
I0
sS'dust-DOBJPARG-true'
p100
I4
sS'skim-DOBJPARG-true'
p101
I6
sS'reheat-DOBJPARG-true'
p102
I3
sS'grate-PARG-true'
p103
I1
sS'chill-DOBJ-true'
p104
I2
sS'sauce-DOBJPARG-false'
p105
I0
sS'flute-DOBJ-false'
p106
I0
sS'return--false'
p107
I8
sS'enjoy-DOBJPARG-false'
p108
I0
sS'mix-DOBJPARG-false'
p109
I0
sS'knead--false'
p110
I0
sS'dredge-DOBJPARG-true'
p111
I3
sS'tent-PARG-true'
p112
I1
sS'dab--false'
p113
I0
sS'dry-PARG-false'
p114
I0
sS'make-PARG-false'
p115
I0
sS'arrange--false'
p116
I1
sS'move-PARG-true'
p117
I2
sS'pass--false'
p118
I0
sS'change-PARG-false'
p119
I0
sS'open-DOBJPARG-false'
p120
I0
sS'empty-DOBJPARG-false'
p121
I0
sS'finish-DOBJPARG-false'
p122
I0
sS'roll-DOBJPARG-true'
p123
I37
sS'microwave-DOBJ-false'
p124
I0
sS'return-DOBJPARG-false'
p125
I0
sS'dunk-DOBJPARG-false'
p126
I0
sS'boil-DOBJ-true'
p127
I0
sS'mash-DOBJ-true'
p128
I7
sS'served--false'
p129
I0
sS'rub--false'
p130
I0
sS'spread-PARG-false'
p131
I0
sS'shake-DOBJPARG-false'
p132
I0
sS'sauce-DOBJ-false'
p133
I0
sS'toast-PARG-true'
p134
I7
sS'pound-DOBJ-false'
p135
I0
sS'gather-PARG-true'
p136
I1
sS'squeeze-PARG-false'
p137
I0
sS'crimp-DOBJPARG-true'
p138
I2
sS'thread-DOBJPARG-true'
p139
I1
sS'sear-PARG-false'
p140
I0
sS'pierce-DOBJ-false'
p141
I0
sS'makes-DOBJPARG-true'
p142
I0
sS'pass-DOBJPARG-false'
p143
I0
sS'store-PARG-false'
p144
I0
sS'uncover-DOBJ-true'
p145
I7
sS'surround-PARG-true'
p146
I0
sS'flip-PARG-false'
p147
I0
sS'coat-DOBJPARG-false'
p148
I0
sS'roll-PARG-true'
p149
I43
sS'stretch-DOBJ-true'
p150
I0
sS'best-DOBJPARG-false'
p151
I0
sS'moisten-DOBJ-true'
p152
I0
sS'ensure-PARG-true'
p153
I0
sS'ease-DOBJ-true'
p154
I0
sS'unwrap--false'
p155
I0
sS'garnish-PARG-false'
p156
I0
sS'dredge-PARG-false'
p157
I0
sS'garnish-DOBJ-false'
p158
I0
sS'strain-DOBJ-false'
p159
I0
sS'oil-DOBJPARG-true'
p160
I9
sS'wrap--false'
p161
I0
sS'allow-DOBJ-false'
p162
I0
sS'ready-DOBJ-false'
p163
I0
sS'shave-DOBJPARG-true'
p164
I0
sS'reposition-PARG-false'
p165
I0
sS'change-DOBJPARG-false'
p166
I0
sS'sift-DOBJ-true'
p167
I16
sS'ready-PARG-false'
p168
I0
sS'rinse-PARG-false'
p169
I0
sS'form-PARG-true'
p170
I33
sS'loosen-DOBJPARG-true'
p171
I0
sS'top-DOBJ-false'
p172
I0
sS'knead-PARG-false'
p173
I0
sS'note-DOBJ-false'
p174
I0
sS'loosen-DOBJ-false'
p175
I0
sS'put-DOBJ-true'
p176
I2
sS'portion-PARG-true'
p177
I0
sS'bring-DOBJPARG-false'
p178
I0
sS'warm--false'
p179
I5
sS'taste-DOBJ-false'
p180
I0
sS'note-DOBJPARG-true'
p181
I0
sS'pick-PARG-false'
p182
I0
sS'flute-DOBJPARG-false'
p183
I0
sS'scrub-DOBJ-true'
p184
I4
sS'seal-PARG-false'
p185
I0
sS'trim-PARG-true'
p186
I2
sS'whipped-PARG-false'
p187
I0
sS'churn-PARG-true'
p188
I1
sS'fry-DOBJ-false'
p189
I0
sS'flour-DOBJPARG-false'
p190
I0
sS'open-DOBJPARG-true'
p191
I1
sS'sear-DOBJPARG-true'
p192
I4
sS'peel--false'
p193
I83
sS'note-PARG-false'
p194
I0
sS'open-DOBJ-false'
p195
I0
sS'spread-DOBJPARG-false'
p196
I0
sS'beat--false'
p197
I14
sS'muddle-DOBJPARG-false'
p198
I0
sS'fluff-DOBJ-true'
p199
I0
sS'measure-DOBJ-true'
p200
I6
sS'salt-DOBJPARG-false'
p201
I0
sS'dunk-PARG-true'
p202
I0
sS'plunge--false'
p203
I0
sS'process-DOBJ-true'
p204
I0
sS'knead-DOBJPARG-true'
p205
I8
sS'simmer-DOBJ-false'
p206
I0
sS'reserve-DOBJ-true'
p207
I28
sS'pipe-PARG-true'
p208
I8
sS'fill--false'
p209
I0
sS'layer--false'
p210
I1
sS'discard-PARG-true'
p211
I9
sS'preheat--false'
p212
I0
sS'overlap-DOBJPARG-true'
p213
I1
sS'dip-DOBJPARG-true'
p214
I56
sS'surround-DOBJ-false'
p215
I0
sS'bake-DOBJ-false'
p216
I0
sS'form-DOBJ-true'
p217
I6
sS'stream-PARG-true'
p218
I2
sS'twist-DOBJ-true'
p219
I0
sS'baste-DOBJPARG-false'
p220
I0
sS'drizzle--false'
p221
I1
sS'fold-DOBJPARG-false'
p222
I0
sS'lay-DOBJPARG-true'
p223
I34
sS'peel-DOBJPARG-false'
p224
I0
sS'boil-PARG-true'
p225
I30
sS'spray-DOBJPARG-false'
p226
I0
sS'whisk-DOBJPARG-true'
p227
I331
sS'decorate-PARG-true'
p228
I3
sS'use-PARG-true'
p229
I2
sS'crust--false'
p230
I1
sS'sift-PARG-true'
p231
I1
sS'poach-PARG-true'
p232
I1
sS'bring-DOBJ-false'
p233
I0
sS'grind-DOBJPARG-true'
p234
I4
sS'braise-PARG-false'
p235
I0
sS'roast-PARG-false'
p236
I0
sS'toss-DOBJ-true'
p237
I7
sS'spray-DOBJ-false'
p238
I0
sS'uncover--false'
p239
I9
sS'decorate-DOBJ-true'
p240
I0
sS'serve-DOBJ-true'
p241
I96
sS'ask-DOBJPARG-false'
p242
I0
sS'squeeze-DOBJ-true'
p243
I2
sS'top-DOBJPARG-true'
p244
I85
sS'debone-DOBJPARG-true'
p245
I0
sS'select-DOBJPARG-false'
p246
I0
sS'line-PARG-true'
p247
I31
sS'reduce-DOBJ-false'
p248
I0
sS'debone-PARG-false'
p249
I0
sS'crumb-PARG-false'
p250
I0
sS'enjoy--false'
p251
I10
sS'pipe-DOBJ-true'
p252
I2
sS'work-DOBJPARG-true'
p253
I1
sS'keep-PARG-true'
p254
I3
sS'tilt-DOBJ-false'
p255
I0
sS'halve-PARG-true'
p256
I0
sS'reheat-PARG-true'
p257
I2
sS'blend--false'
p258
I11
sS'flour-DOBJ-false'
p259
I0
sS'rub-DOBJ-false'
p260
I0
sS'ask--false'
p261
I0
sS'continue-DOBJPARG-true'
p262
I72
sS'can-DOBJ-true'
p263
I1
sS'set-DOBJPARG-true'
p264
I43
sS'whirl--false'
p265
I0
sS'bring-DOBJPARG-true'
p266
I527
sS'marinate-DOBJPARG-true'
p267
I5
sS'tent-DOBJPARG-false'
p268
I0
sS'invert-DOBJPARG-true'
p269
I4
sS'pipe-DOBJPARG-false'
p270
I0
sS'line-DOBJPARG-false'
p271
I0
sS'grate-DOBJPARG-true'
p272
I10
sS'tip-PARG-true'
p273
I1
sS'fold-DOBJ-true'
p274
I1
sS'flour-DOBJPARG-true'
p275
I3
sS'pull-DOBJ-false'
p276
I0
sS'discard-DOBJPARG-false'
p277
I0
sS'process--false'
p278
I0
sS'open--false'
p279
I0
sS'wash--false'
p280
I3
sS'break-PARG-true'
p281
I5
sS'move-DOBJ-false'
p282
I0
sS'throw-DOBJPARG-false'
p283
I0
sS'lock-DOBJ-false'
p284
I0
sS'marinate--false'
p285
I1
sS'dip-DOBJPARG-false'
p286
I0
sS'pat-PARG-false'
p287
I0
sS'break-PARG-false'
p288
I0
sS'squeeze--false'
p289
I1
sS'trim-DOBJ-false'
p290
I0
sS'rest-DOBJPARG-true'
p291
I0
sS'knead-DOBJ-false'
p292
I0
sS'skim-PARG-false'
p293
I0
sS'open-DOBJ-true'
p294
I3
sS'skim-DOBJ-true'
p295
I0
sS'can-DOBJPARG-true'
p296
I5
sS'empty-DOBJPARG-true'
p297
I2
sS'keep-DOBJ-true'
p298
I15
sS'flatten-DOBJ-false'
p299
I0
sS'drop-DOBJPARG-true'
p300
I8
sS'churn-PARG-false'
p301
I0
sS'water-DOBJPARG-true'
p302
I2
sS'blend-DOBJPARG-true'
p303
I45
sS'garnish-DOBJ-true'
p304
I1
sS'mix-PARG-true'
p305
I381
sS'set-PARG-true'
p306
I68
sS'crumple-PARG-true'
p307
I0
sS'rub-DOBJPARG-true'
p308
I25
sS'hollow-DOBJPARG-false'
p309
I0
sS'pinch-PARG-false'
p310
I0
sS'debone-DOBJPARG-false'
p311
I0
sS'plunge-PARG-false'
p312
I0
sS'smooth-DOBJ-true'
p313
I2
sS'pick-DOBJ-true'
p314
I2
sS'warm-DOBJ-false'
p315
I0
sS'reduce-DOBJPARG-true'
p316
I385
sS'let--false'
p317
I25
sS'dredge-DOBJ-true'
p318
I0
sS'push--false'
p319
I0
sS'separate-DOBJPARG-true'
p320
I5
sS'plop-DOBJPARG-true'
p321
I1
sS'pass-DOBJ-true'
p322
I2
sS'pierce-PARG-true'
p323
I3
sS'simmer--false'
p324
I72
sS'serve-DOBJPARG-true'
p325
I78
sS'saute--false'
p326
I2
sS'position-DOBJPARG-true'
p327
I1
sS'surround-DOBJ-true'
p328
I0
sS'mound-PARG-false'
p329
I0
sS'set-DOBJ-false'
p330
I0
sS'run-DOBJ-false'
p331
I0
sS'best--false'
p332
I1
sS'shave-PARG-false'
p333
I0
sS'alternate-PARG-false'
p334
I0
sS'cheese-DOBJPARG-true'
p335
I4
sS'blend-DOBJ-true'
p336
I13
sS'thread-DOBJ-true'
p337
I0
sS'whirl-PARG-true'
p338
I1
sS'cut-DOBJ-false'
p339
I0
sS'return-PARG-true'
p340
I149
sS'freezing-DOBJPARG-true'
p341
I0
sS'change-DOBJ-true'
p342
I0
sS'puree--false'
p343
I1
sS'decorate-DOBJPARG-false'
p344
I0
sS'water-DOBJ-true'
p345
I1
sS'saute-DOBJPARG-true'
p346
I89
sS'turn-PARG-true'
p347
I33
sS'shred-DOBJPARG-false'
p348
I0
sS'lock-DOBJ-true'
p349
I2
sS'carve-PARG-false'
p350
I0
sS'braise-DOBJPARG-false'
p351
I0
sS'tuck-PARG-false'
p352
I0
sS'shred-PARG-true'
p353
I14
sS'apply-DOBJPARG-true'
p354
I1
sS'decrease-DOBJPARG-true'
p355
I3
sS'muddle-PARG-false'
p356
I0
sS'distribute-DOBJPARG-true'
p357
I6
sS'push-DOBJ-true'
p358
I1
sS'stretch-PARG-true'
p359
I3
sS'dip-PARG-true'
p360
I4
sS'stack-DOBJPARG-true'
p361
I0
sS'keep-DOBJPARG-true'
p362
I8
sS'discard-DOBJPARG-true'
p363
I3
sS'align-DOBJPARG-false'
p364
I0
sS'bake-DOBJPARG-true'
p365
I101
sS'stir-DOBJPARG-false'
p366
I0
sS'punch-DOBJPARG-true'
p367
I0
sS'preheat-DOBJPARG-false'
p368
I0
sS'insert-DOBJPARG-false'
p369
I0
sS'reduce-PARG-true'
p370
I9
sS'scoop-DOBJ-false'
p371
I0
sS'stream-DOBJ-true'
p372
I0
sS'broil-DOBJ-false'
p373
I0
sS'push-PARG-false'
p374
I0
sS'pound-DOBJPARG-false'
p375
I0
sS'build-DOBJPARG-true'
p376
I1
sS'flute-PARG-true'
p377
I0
sS'dust-DOBJ-true'
p378
I0
sS'stuff-DOBJPARG-false'
p379
I0
sS'crumple--false'
p380
I0
sS'pat-DOBJPARG-true'
p381
I22
sS'toast-DOBJPARG-false'
p382
I0
sS'ensure-PARG-false'
p383
I0
sS'stack--false'
p384
I0
sS'skim-PARG-true'
p385
I2
sS'canned-PARG-false'
p386
I0
sS'simmer-DOBJPARG-false'
p387
I0
sS'sear--false'
p388
I0
sS'clean-PARG-true'
p389
I1
sS'raise--false'
p390
I0
sS'return-DOBJ-true'
p391
I6
sS'make--false'
p392
I0
sS'divide-PARG-false'
p393
I0
sS'season-PARG-false'
p394
I0
sS'rinse-DOBJ-false'
p395
I0
sS'combine-PARG-false'
p396
I0
sS'apply-DOBJPARG-false'
p397
I0
sS'combine-DOBJ-true'
p398
I84
sS'decrease-DOBJPARG-false'
p399
I0
sS'crumple-DOBJPARG-true'
p400
I1
sS'distribute-PARG-false'
p401
I0
sS'select--false'
p402
I0
sS'thaw-PARG-false'
p403
I0
sS'follow-DOBJ-true'
p404
I0
sS'portion-PARG-false'
p405
I0
sS'grind-PARG-false'
p406
I0
sS'served-DOBJPARG-false'
p407
I0
sS'store-DOBJ-true'
p408
I0
sS'crush-PARG-true'
p409
I0
sS'return-DOBJPARG-true'
p410
I105
sS'prepare-PARG-false'
p411
I0
sS'crush-DOBJPARG-false'
p412
I0
sS'combine-PARG-true'
p413
I14
sS'scrub-PARG-false'
p414
I0
sS'butter--false'
p415
I8
sS'pick--false'
p416
I0
sS'crimp--false'
p417
I0
sS'prepare-DOBJ-false'
p418
I0
sS'plop-DOBJPARG-false'
p419
I0
sS'tilt--false'
p420
I0
sS'load-DOBJ-false'
p421
I0
sS'makes-DOBJ-false'
p422
I0
sS'garnish-PARG-true'
p423
I83
sS'leave-DOBJ-false'
p424
I0
sS'leave-DOBJ-true'
p425
I1
sS'cake-DOBJ-false'
p426
I0
sS'halve-DOBJ-true'
p427
I9
sS'ensure-DOBJPARG-true'
p428
I1
sS'snip-DOBJPARG-false'
p429
I0
sS'decorate--false'
p430
I0
sS'squeeze-PARG-true'
p431
I10
sS'whisk-DOBJ-false'
p432
I0
sS'chill-PARG-false'
p433
I0
sS'blanch-PARG-true'
p434
I2
sS'strain-DOBJPARG-false'
p435
I0
sS'dredge-DOBJPARG-false'
p436
I0
sS'note-DOBJPARG-false'
p437
I0
sS'flute-DOBJPARG-true'
p438
I1
sS'score--false'
p439
I0
sS'wash-DOBJPARG-false'
p440
I0
sS'unwrap-DOBJPARG-true'
p441
I0
sS'ease-PARG-true'
p442
I0
sS'slide-PARG-false'
p443
I0
sS'begin-PARG-true'
p444
I10
sS'dissolve-PARG-false'
p445
I0
sS'transfer-DOBJ-true'
p446
I4
sS'whisk-PARG-false'
p447
I0
sS'seal-DOBJ-false'
p448
I0
sS'spread--false'
p449
I6
sS'drizzle-DOBJ-false'
p450
I0
sS'knead-DOBJPARG-false'
p451
I0
sS'roast--false'
p452
I0
sS'process-DOBJ-false'
p453
I0
sS'invert-PARG-true'
p454
I1
sS'baste--false'
p455
I0
sS'chop-DOBJPARG-false'
p456
I0
sS'plop-DOBJ-false'
p457
I0
sS'adjust-PARG-true'
p458
I6
sS'scrape--false'
p459
I1
sS'divide-DOBJPARG-true'
p460
I60
sS'knife--false'
p461
I0
sS'uncover-DOBJPARG-true'
p462
I1
sS'steam-DOBJPARG-true'
p463
I5
sS'lie--false'
p464
I0
sS'refrigerate-DOBJPARG-false'
p465
I0
sS'unroll-PARG-true'
p466
I0
sS'sauce-PARG-false'
p467
I0
sS'invert-DOBJ-false'
p468
I0
sS'crumple-DOBJ-false'
p469
I0
sS'cover-DOBJ-false'
p470
I0
sS'build-DOBJ-false'
p471
I0
sS'snip-DOBJ-false'
p472
I0
sS'microwave-PARG-false'
p473
I0
sS'seat-PARG-true'
p474
I0
sS'dice--false'
p475
I17
sS'clean--false'
p476
I1
sS'stretch-DOBJPARG-false'
p477
I0
sS'can-DOBJ-false'
p478
I0
sS'cook--false'
p479
I61
sS'boil-DOBJ-false'
p480
I0
sS'freeze-DOBJPARG-false'
p481
I0
sS'steep-PARG-false'
p482
I0
sS'separate--false'
p483
I0
sS'alternate-DOBJ-true'
p484
I0
sS'prepare--false'
p485
I0
sS'skim--false'
p486
I0
sS'let-PARG-false'
p487
I0
sS'replace-DOBJ-true'
p488
I0
sS'repeat-DOBJPARG-false'
p489
I0
sS'cake--false'
p490
I3
sS'poke-DOBJ-false'
p491
I0
sS'pack-DOBJ-true'
p492
I0
sS'dump-DOBJPARG-true'
p493
I1
sS'portion-DOBJPARG-false'
p494
I0
sS'crumble-DOBJPARG-false'
p495
I0
sS'drizzle-PARG-false'
p496
I0
sS'return-DOBJ-false'
p497
I0
sS'crack-DOBJ-true'
p498
I1
sS'assemble-PARG-true'
p499
I0
sS'coat-PARG-false'
p500
I0
sS'drop-PARG-false'
p501
I0
sS'cool--false'
p502
I183
sS'chill-DOBJPARG-false'
p503
I0
sS'handle-PARG-false'
p504
I0
sS'pulse-DOBJ-true'
p505
I1
sS'lock-DOBJPARG-true'
p506
I0
sS'soak-DOBJ-false'
p507
I0
sS'tuck-DOBJ-true'
p508
I0
sS'toast-DOBJ-true'
p509
I2
sS'split-DOBJPARG-true'
p510
I1
sS'taste--false'
p511
I4
sS'mince--false'
p512
I2
sS'remove-DOBJPARG-false'
p513
I0
sS'keep-DOBJ-false'
p514
I0
sS'dunk--false'
p515
I0
sS'dip-DOBJ-true'
p516
I1
sS'prick-DOBJPARG-false'
p517
I0
sS'sear-DOBJPARG-false'
p518
I0
sS'churn-DOBJ-false'
p519
I0
sS'arrange-DOBJ-false'
p520
I0
sS'ease-DOBJPARG-true'
p521
I1
sS'butter-DOBJ-false'
p522
I0
sS'measure-PARG-false'
p523
I0
sS'knead-PARG-true'
p524
I8
sS'shake-DOBJPARG-true'
p525
I1
sS'muddle--false'
p526
I0
sS'spray-DOBJ-true'
p527
I1
sS'blend-PARG-true'
p528
I73
sS'hold-DOBJPARG-false'
p529
I0
sS'pack-PARG-true'
p530
I3
sS'fry-PARG-false'
p531
I0
sS'slice-DOBJ-true'
p532
I29
sS'begin-DOBJ-true'
p533
I0
sS'smoke-DOBJPARG-false'
p534
I0
sS'coat--false'
p535
I3
sS'mix-DOBJPARG-true'
p536
I635
sS'stuff-DOBJ-false'
p537
I0
sS'form--false'
p538
I3
sS'whip-DOBJPARG-false'
p539
I0
sS'test-DOBJPARG-false'
p540
I0
sS'tap-DOBJPARG-false'
p541
I0
sS'steep--false'
p542
I0
sS'icing-DOBJ-true'
p543
I0
sS'tilt-PARG-false'
p544
I0
sS'coating-DOBJPARG-false'
p545
I0
sS'whirl-DOBJPARG-false'
p546
I0
sS'ladle-DOBJ-false'
p547
I0
sS'combine-DOBJPARG-false'
p548
I0
sS'refrigerate-DOBJ-false'
p549
I0
sS'grease-DOBJPARG-false'
p550
I0
sS'pull--false'
p551
I2
sS'fluff-DOBJPARG-true'
p552
I3
sS'poach-DOBJPARG-false'
p553
I0
sS'dunk-DOBJPARG-true'
p554
I2
sS'line-DOBJPARG-true'
p555
I44
sS'sort-PARG-false'
p556
I0
sS'icing-DOBJPARG-true'
p557
I0
sS'set-DOBJ-true'
p558
I52
sS'uncover-DOBJPARG-false'
p559
I0
sS'warm-DOBJ-true'
p560
I2
sS'freeze-DOBJ-true'
p561
I2
sS'align-PARG-false'
p562
I0
sS'roast-DOBJPARG-false'
p563
I0
sS'rest-DOBJPARG-false'
p564
I0
sS'lift-DOBJPARG-false'
p565
I0
sS'best-DOBJ-false'
p566
I0
sS'thread--false'
p567
I0
sS'drizzle-DOBJPARG-true'
p568
I37
sS'soak-DOBJ-true'
p569
I0
sS'reshape-DOBJ-false'
p570
I0
sS'dab-DOBJPARG-true'
p571
I1
sS'salt-PARG-false'
p572
I0
sS'cake-DOBJ-true'
p573
I5
sS'quarter-DOBJPARG-false'
p574
I0
sS'dust-PARG-true'
p575
I12
sS'marinate-DOBJ-true'
p576
I0
sS'taste-DOBJPARG-false'
p577
I0
sS'mince-DOBJPARG-false'
p578
I0
sS'trim-DOBJ-true'
p579
I4
sS'plunge-DOBJ-false'
p580
I0
sS'dunk-PARG-false'
p581
I0
sS'rest--false'
p582
I1
sS'drop-DOBJ-false'
p583
I0
sS'julienne-PARG-true'
p584
I0
sS'melt-DOBJ-true'
p585
I7
sS'handle-DOBJ-false'
p586
I0
sS'stir-PARG-true'
p587
I1735
sS'spoon-PARG-true'
p588
I62
sS'load--false'
p589
I0
sS'squeeze-DOBJ-false'
p590
I0
sS'fit--false'
p591
I0
sS'prepare-DOBJ-true'
p592
I11
sS'dry-PARG-true'
p593
I2
sS'prepare-PARG-true'
p594
I1
sS'debone-DOBJ-false'
p595
I0
sS'pound-DOBJPARG-true'
p596
I0
sS'assemble-DOBJ-false'
p597
I0
sS'moisten-PARG-true'
p598
I0
sS'set-PARG-false'
p599
I0
sS'ensure-DOBJ-true'
p600
I0
sS'freezing-PARG-false'
p601
I0
sS'best-PARG-false'
p602
I0
sS'invert-DOBJ-true'
p603
I0
sS'run-DOBJPARG-false'
p604
I0
sS'mince-DOBJ-false'
p605
I0
sS'dump-DOBJ-false'
p606
I0
sS'move--false'
p607
I0
sS'cube-DOBJ-false'
p608
I0
sS'cut-PARG-true'
p609
I102
sS'pick-DOBJPARG-true'
p610
I2
sS'put-PARG-false'
p611
I0
sS'dredge--false'
p612
I0
sS'julienne--false'
p613
I0
sS'scrape-DOBJ-false'
p614
I0
sS'run-PARG-true'
p615
I7
sS'shake-PARG-true'
p616
I25
sS'continue-PARG-false'
p617
I0
sS'stir--false'
p618
I244
sS'lower-DOBJ-false'
p619
I0
sS'marinate-DOBJPARG-false'
p620
I0
sS'chill-PARG-true'
p621
I132
sS'stream-DOBJ-false'
p622
I0
sS'puree-PARG-false'
p623
I0
sS'portion-DOBJ-true'
p624
I0
sS'oil-DOBJ-true'
p625
I36
sS'sprinkle-PARG-true'
p626
I329
sS'puree-DOBJ-true'
p627
I1
sS'season-DOBJPARG-false'
p628
I0
sS'arrange-DOBJPARG-true'
p629
I138
sS'fill-PARG-true'
p630
I56
sS'poach-DOBJ-false'
p631
I0
sS'knife-DOBJPARG-false'
p632
I0
sS'start-DOBJPARG-true'
p633
I5
sS'saute-DOBJ-false'
p634
I0
sS'freezing-DOBJPARG-false'
p635
I0
sS'thread-DOBJ-false'
p636
I0
sS'spoon-PARG-false'
p637
I0
sS'place-DOBJPARG-true'
p638
I1149
sS'separate-PARG-true'
p639
I3
sS'brown-DOBJ-false'
p640
I0
sS'increase-PARG-true'
p641
I0
sS'flute-DOBJ-true'
p642
I2
sS'pile-DOBJ-true'
p643
I0
sS'dredge-DOBJ-false'
p644
I0
sS'cover-DOBJPARG-true'
p645
I135
sS'take--false'
p646
I0
sS'thread-PARG-false'
p647
I0
sS'reduce-DOBJPARG-false'
p648
I0
sS'flour-PARG-false'
p649
I0
sS'mix-PARG-false'
p650
I0
sS'raise-DOBJ-false'
p651
I0
sS'build-DOBJPARG-false'
p652
I0
sS'churn-DOBJPARG-false'
p653
I0
sS'cool-DOBJ-false'
p654
I0
sS'cut-DOBJPARG-false'
p655
I0
sS'preheat-PARG-true'
p656
I1
sS'best-DOBJ-true'
p657
I0
sS'soak-PARG-false'
p658
I0
sS'frost-PARG-true'
p659
I7
sS'cube-DOBJPARG-true'
p660
I3
sS'unroll-PARG-false'
p661
I0
sS'ready--false'
p662
I0
sS'alternate-DOBJPARG-false'
p663
I0
sS'spray-DOBJPARG-true'
p664
I67
sS'reserve-DOBJPARG-true'
p665
I20
sS'toss-DOBJ-false'
p666
I0
sS'store-PARG-true'
p667
I13
sS'braise-DOBJ-true'
p668
I0
sS'thaw--false'
p669
I0
sS'pinch-DOBJ-true'
p670
I3
sS'allow-DOBJPARG-true'
p671
I52
sS'grill-DOBJPARG-true'
p672
I14
sS'surround-DOBJPARG-true'
p673
I1
sS'chop-DOBJPARG-true'
p674
I21
sS'wash-DOBJPARG-true'
p675
I0
sS'align-DOBJ-true'
p676
I0
sS'sort-DOBJ-true'
p677
I1
sS'pack-DOBJPARG-true'
p678
I7
sS'pour-DOBJPARG-true'
p679
I578
sS'serve-PARG-true'
p680
I131
sS'remove-PARG-true'
p681
I419
sS'smoke-PARG-false'
p682
I0
sS'reserve-DOBJPARG-false'
p683
I0
sS'core--false'
p684
I0
sS'salt-DOBJ-true'
p685
I0
sS'grease-DOBJ-true'
p686
I218
sS'icing-DOBJ-false'
p687
I0
sS'tap-DOBJ-true'
p688
I1
sS'freeze-PARG-true'
p689
I8
sS'check-DOBJPARG-false'
p690
I0
sS'cut-DOBJPARG-true'
p691
I174
sS'pick-PARG-true'
p692
I1
sS'pipe-PARG-false'
p693
I0
sS'press-DOBJPARG-true'
p694
I62
sS'smother-DOBJ-true'
p695
I0
sS'cool-PARG-true'
p696
I159
sS'round-DOBJPARG-true'
p697
I0
sS'freeze-PARG-false'
p698
I0
sS'scrape-PARG-true'
p699
I1
sS'whipped-DOBJ-true'
p700
I1
sS'spread-DOBJ-true'
p701
I7
sS'put-DOBJPARG-false'
p702
I0
sS'gather-DOBJPARG-true'
p703
I0
sS'butter-DOBJPARG-true'
p704
I4
sS'serve-DOBJPARG-false'
p705
I0
sS'flatten-DOBJPARG-false'
p706
I0
sS'score-PARG-true'
p707
I0
sS'grill-DOBJPARG-false'
p708
I0
sS'stop-DOBJ-false'
p709
I0
sS'run-DOBJ-true'
p710
I0
sS'cube-PARG-true'
p711
I0
sS'plop-PARG-true'
p712
I0
sS'toss-PARG-true'
p713
I246
sS'slide-PARG-true'
p714
I2
sS'shave-DOBJ-false'
p715
I0
sS'punch-DOBJ-false'
p716
I0
sS'heat--false'
p717
I7
sS'crack-PARG-true'
p718
I0
sS'taste-DOBJ-true'
p719
I8
sS'note-DOBJ-true'
p720
I0
sS'can--false'
p721
I0
sS'grease-PARG-false'
p722
I0
sS'separate-DOBJPARG-false'
p723
I0
sS'flip-PARG-true'
p724
I0
sS'halve--false'
p725
I0
sS'store-DOBJPARG-false'
p726
I0
sS'grind-PARG-true'
p727
I1
sS'icing-DOBJPARG-false'
p728
I0
sS'lower-PARG-false'
p729
I0
sS'make-DOBJPARG-true'
p730
I41
sS'enjoy-PARG-true'
p731
I0
sS'ease--false'
p732
I0
sS'prick--false'
p733
I0
sS'open-PARG-false'
p734
I0
sS'simmer-PARG-false'
p735
I0
sS'shake-PARG-false'
p736
I0
sS'halve-DOBJPARG-false'
p737
I0
sS'drain-DOBJPARG-false'
p738
I0
sS'build-DOBJ-true'
p739
I1
sS'wear-PARG-false'
p740
I0
sS'sprinkle-DOBJPARG-false'
p741
I0
sS'heat-DOBJPARG-false'
p742
I0
sS'continue-DOBJPARG-false'
p743
I0
sS'thaw-PARG-true'
p744
I1
sS'tent-DOBJ-true'
p745
I0
sS'quarter-DOBJPARG-true'
p746
I0
sS'divide-DOBJ-false'
p747
I0
sS'clean-PARG-false'
p748
I0
sS'thaw-DOBJPARG-false'
p749
I0
sS'shred--false'
p750
I6
sS'steam-PARG-true'
p751
I5
sS'baste-DOBJPARG-true'
p752
I2
sS'have-DOBJPARG-true'
p753
I1
sS'coat-DOBJ-false'
p754
I0
sS'scrub-DOBJPARG-false'
p755
I0
sS'wear-DOBJPARG-true'
p756
I0
sS'create-DOBJPARG-true'
p757
I2
sS'rest-DOBJ-true'
p758
I0
sS'chop-PARG-false'
p759
I0
sS'puree-DOBJPARG-false'
p760
I0
sS'check-PARG-true'
p761
I4
sS'end-DOBJ-true'
p762
I0
sS'quarter-DOBJ-true'
p763
I0
sS'end-PARG-true'
p764
I2
sS'load-PARG-true'
p765
I0
sS'scramble-DOBJ-false'
p766
I0
sS'let-DOBJ-true'
p767
I66
sS'bake-PARG-true'
p768
I1002
sS'freeze--false'
p769
I3
sS'mound-DOBJ-false'
p770
I0
sS'smother-PARG-true'
p771
I2
sS'rinse-DOBJPARG-false'
p772
I0
sS'lay-PARG-false'
p773
I0
sS'sift--false'
p774
I0
sS'plop-PARG-false'
p775
I0
sS'flip-DOBJPARG-false'
p776
I0
sS'dump-DOBJ-true'
p777
I0
sS'pile-DOBJPARG-true'
p778
I2
sS'increase-DOBJPARG-true'
p779
I29
sS'gather-DOBJ-true'
p780
I2
sS'smoke-DOBJ-false'
p781
I0
sS'freezing-DOBJ-false'
p782
I0
sS'round-DOBJPARG-false'
p783
I0
sS'unwrap-DOBJ-true'
p784
I1
sS'boil-DOBJPARG-true'
p785
I26
sS'muddle-DOBJPARG-true'
p786
I1
sS'portion-DOBJPARG-true'
p787
I2
sS'watch-DOBJ-true'
p788
I2
sS'fill-DOBJPARG-true'
p789
I123
sS'throw-DOBJPARG-true'
p790
I1
sS'ease-DOBJPARG-false'
p791
I0
sS'sauce-DOBJ-true'
p792
I1
sS'layer-PARG-true'
p793
I20
sS'place-DOBJ-false'
p794
I0
sS'ensure-DOBJ-false'
p795
I0
sS'decorate-DOBJ-false'
p796
I0
sS'seat-DOBJPARG-true'
p797
I0
sS'coating-DOBJ-true'
p798
I3
sS'grill--false'
p799
I1
sS'lift-DOBJ-true'
p800
I3
sS'turn-DOBJ-false'
p801
I0
sS'loosen-PARG-true'
p802
I1
sS'skim-DOBJ-false'
p803
I0
sS'move-DOBJPARG-false'
p804
I0
sS'crimp-DOBJ-true'
p805
I3
sS'tent-DOBJ-false'
p806
I0
sS'drain-PARG-false'
p807
I0
sS'whip-DOBJPARG-true'
p808
I5
sS'crack-DOBJPARG-false'
p809
I0
sS'bring--false'
p810
I2
sS'makes--false'
p811
I0
sS'line-DOBJ-true'
p812
I0
sS'broil-DOBJ-true'
p813
I1
sS'process-PARG-true'
p814
I18
sS'chill--false'
p815
I48
sS'blend-PARG-false'
p816
I0
sS'pulse-DOBJPARG-false'
p817
I0
sS'prick-DOBJ-true'
p818
I1
sS'turn-DOBJ-true'
p819
I10
sS'cube-DOBJ-true'
p820
I3
sS'baste-PARG-false'
p821
I0
sS'crumble-PARG-false'
p822
I0
sS'align--false'
p823
I0
sS'adjust-DOBJPARG-false'
p824
I0
sS'pour-DOBJ-false'
p825
I0
sS'flavor-DOBJPARG-false'
p826
I0
sS'rest-PARG-true'
p827
I1
sS'oil--false'
p828
I4
sS'tap-PARG-false'
p829
I0
sS'pare-PARG-false'
p830
I0
sS'assemble--false'
p831
I0
sS'core-PARG-false'
p832
I0
sS'top-PARG-true'
p833
I319
sS'split-DOBJ-false'
p834
I0
sS'arrange-DOBJPARG-false'
p835
I0
sS'lock-PARG-true'
p836
I0
sS'poke-PARG-false'
p837
I0
sS'tear-DOBJPARG-false'
p838
I0
sS'muddle-DOBJ-true'
p839
I0
sS'sort-PARG-true'
p840
I0
sS'tilt-PARG-true'
p841
I1
sS'transfer--false'
p842
I13
sS'refrigerate-DOBJ-true'
p843
I14
sS'plop--false'
p844
I0
sS'cream-DOBJ-true'
p845
I4
sS'grease-DOBJPARG-true'
p846
I18
sS'flavor--false'
p847
I1
sS'dump--false'
p848
I0
sS'tear-DOBJ-true'
p849
I0
sS'scrape-DOBJPARG-true'
p850
I13
sS'replace-PARG-false'
p851
I0
sS'make-DOBJ-true'
p852
I5
sS'wear-DOBJ-true'
p853
I1
sS'continue-DOBJ-false'
p854
I0
sS'flip-DOBJ-false'
p855
I0
sS'grill-PARG-false'
p856
I0
sS'punch-PARG-false'
p857
I0
sS'hollow-PARG-true'
p858
I1
sS'split-DOBJ-true'
p859
I2
sS'select-PARG-false'
p860
I0
sS'taste-DOBJPARG-true'
p861
I0
sS'move-PARG-false'
p862
I0
sS'set-DOBJPARG-false'
p863
I0
sS'knife-DOBJ-true'
p864
I1
sS'position-DOBJPARG-false'
p865
I0
sS'hold-DOBJ-false'
p866
I0
sS'fluff--false'
p867
I0
sS'drop-PARG-true'
p868
I7
sS'pare-PARG-true'
p869
I0
sS'allow-PARG-false'
p870
I0
sS'poach-DOBJ-true'
p871
I0
sS'julienne-DOBJ-false'
p872
I0
sS'cook-PARG-true'
p873
I1146
sS'finish-DOBJ-true'
p874
I0
sS'chop-PARG-true'
p875
I9
sS'marinate-PARG-false'
p876
I0
sS'hold--false'
p877
I2
sS'unwrap-PARG-true'
p878
I0
sS'assemble-DOBJPARG-false'
p879
I0
sS'pinch-PARG-true'
p880
I2
sS'reheat-DOBJ-false'
p881
I0
sS'add-DOBJPARG-false'
p882
I0
sS'create-DOBJPARG-false'
p883
I0
sS'makes-DOBJ-true'
p884
I3
sS'push-PARG-true'
p885
I1
sS'frost-DOBJPARG-true'
p886
I1
sS'start-PARG-true'
p887
I5
sS'melt--false'
p888
I0
sS'dice-PARG-true'
p889
I5
sS'scatter-DOBJPARG-false'
p890
I0
sS'tear-PARG-false'
p891
I0
sS'adjust-DOBJ-true'
p892
I3
sS'prick-PARG-true'
p893
I0
sS'use-DOBJPARG-false'
p894
I0
sS'cool-DOBJPARG-false'
p895
I0
sS'dab-DOBJ-true'
p896
I0
sS'repeat-DOBJPARG-true'
p897
I33
sS'lift--false'
p898
I0
sS'unwrap-DOBJPARG-false'
p899
I0
sS'empty--false'
p900
I0
sS'peel-DOBJ-true'
p901
I62
sS'let-DOBJPARG-true'
p902
I215
sS'garnish-DOBJPARG-true'
p903
I17
sS'coat-PARG-true'
p904
I13
sS'stretch-DOBJ-false'
p905
I0
sS'pass-PARG-false'
p906
I0
sS'steam-PARG-false'
p907
I0
sS'smother-DOBJ-false'
p908
I0
sS'chop-DOBJ-true'
p909
I28
sS'lie-PARG-true'
p910
I0
sS'spread-PARG-true'
p911
I100
sS'water-PARG-true'
p912
I2
sS'scramble-PARG-false'
p913
I0
sS'cook-DOBJPARG-true'
p914
I640
sS'top--false'
p915
I1
sS'boil--false'
p916
I4
sS'seal-DOBJPARG-true'
p917
I5
sS'line-DOBJ-false'
p918
I0
sS'sprinkle-DOBJ-true'
p919
I8
sS'dot-DOBJPARG-false'
p920
I0
sS'replace--false'
p921
I0
sS'create-PARG-true'
p922
I0
sS'stuff-DOBJ-true'
p923
I1
sS'discard--false'
p924
I60
sS'tip-PARG-false'
p925
I0
sS'use-DOBJ-false'
p926
I0
sS'tap-DOBJ-false'
p927
I0
sS'core-DOBJ-true'
p928
I2
sS'halve-DOBJ-false'
p929
I0
sS'whipped-PARG-true'
p930
I0
sS'reshape-DOBJPARG-false'
p931
I0
sS'layer-DOBJ-true'
p932
I6
sS'smooth-DOBJ-false'
p933
I0
sS'adjust--false'
p934
I3
sS'hold-PARG-false'
p935
I0
sS'whip--false'
p936
I0
sS'ask-DOBJ-true'
p937
I0
sS'pipe--false'
p938
I0
sS'roast-DOBJPARG-true'
p939
I10
sS'prick-DOBJPARG-true'
p940
I3
sS'whirl-DOBJ-true'
p941
I0
sS'melt-PARG-false'
p942
I0
sS'press-DOBJPARG-false'
p943
I0
sS'handle--false'
p944
I0
sS'shape--false'
p945
I2
sS'let-DOBJPARG-false'
p946
I0
sS'stop-DOBJPARG-false'
p947
I0
sS'turn-PARG-false'
p948
I0
sS'pull-DOBJPARG-false'
p949
I0
sS'quarter-DOBJ-false'
p950
I0
sS'sprinkle-DOBJ-false'
p951
I0
sS'smother-PARG-false'
p952
I0
sS'crumble-DOBJPARG-true'
p953
I49
sS'flavor-DOBJPARG-true'
p954
I0
sS'divide-DOBJPARG-false'
p955
I0
sS'carve-DOBJPARG-true'
p956
I1
sS'scatter-PARG-false'
p957
I0
sS'let-DOBJ-false'
p958
I0
sS'sort--false'
p959
I1
sS'place--false'
p960
I11
sS'grind-DOBJPARG-false'
p961
I0
sS'slice-PARG-false'
p962
I0
sS'water-DOBJ-false'
p963
I0
sS'rub-PARG-true'
p964
I7
sS'scrub--false'
p965
I1
sS'separate-PARG-false'
p966
I0
sS'grease-DOBJ-false'
p967
I0
sS'boil-PARG-false'
p968
I0
sS'fit-PARG-true'
p969
I2
sS'measure-DOBJPARG-false'
p970
I0
sS'lie-DOBJ-false'
p971
I0
sS'enjoy-PARG-false'
p972
I0
sS'shred-DOBJ-false'
p973
I0
sS'pipe-DOBJPARG-true'
p974
I13
sS'surround-PARG-false'
p975
I0
sS'grease-PARG-true'
p976
I9
sS'mound-PARG-true'
p977
I1
sS'shape-PARG-false'
p978
I0
sS'toss--false'
p979
I62
sS'fit-DOBJPARG-false'
p980
I0
sS'mince-PARG-true'
p981
I0
sS'dice-DOBJ-false'
p982
I0
sS'snip-DOBJPARG-true'
p983
I6
sS'spread-DOBJ-false'
p984
I0
sS'mince-DOBJPARG-true'
p985
I0
sS'remove-PARG-false'
p986
I0
sS'note--false'
p987
I10
sS'round-PARG-true'
p988
I0
sS'repeat-DOBJ-true'
p989
I32
sS'saute-DOBJPARG-false'
p990
I0
sS'pound--false'
p991
I0
sS'puree-PARG-true'
p992
I19
sS'reheat--false'
p993
I0
sS'break-DOBJ-false'
p994
I0
sS'broil-PARG-true'
p995
I15
sS'cake-DOBJPARG-false'
p996
I0
sS'dissolve-DOBJPARG-false'
p997
I0
sS'replace-DOBJPARG-false'
p998
I0
sS'tent-DOBJPARG-true'
p999
I0
sS'preheat-DOBJ-true'
p1000
I8
sS'sauce--false'
p1001
I5
sS'watch-DOBJ-false'
p1002
I0
sS'measure-DOBJ-false'
p1003
I0
sS'dot-PARG-false'
p1004
I0
sS'twist-DOBJPARG-false'
p1005
I0
sS'churn-DOBJPARG-true'
p1006
I0
sS'refrigerate-PARG-false'
p1007
I0
sS'cake-PARG-false'
p1008
I0
sS'carve--false'
p1009
I0
sS'twist-DOBJ-false'
p1010
I0
sS'dry--false'
p1011
I1
sS'steep-DOBJPARG-true'
p1012
I1
sS'rinse--false'
p1013
I24
sS'process-PARG-false'
p1014
I0
sS'press-DOBJ-true'
p1015
I2
sS'pare-DOBJ-true'
p1016
I0
sS'toast-DOBJPARG-true'
p1017
I9
sS'split-DOBJPARG-false'
p1018
I0
sS'transfer-DOBJPARG-false'
p1019
I0
sS'sear-DOBJ-true'
p1020
I0
sS'sauce-PARG-true'
p1021
I12
sS'moisten-PARG-false'
p1022
I0
sS'stir-DOBJ-false'
p1023
I0
sS'fold-PARG-true'
p1024
I79
sS'slide-DOBJ-false'
p1025
I0
sS'begin-DOBJPARG-false'
p1026
I0
sS'continue-DOBJ-true'
p1027
I0
sS'season-DOBJ-false'
p1028
I0
sS'hollow-PARG-false'
p1029
I0
sS'form-PARG-false'
p1030
I0
sS'uncover-PARG-false'
p1031
I0
sS'pile-PARG-false'
p1032
I0
sS'punch-DOBJ-true'
p1033
I5
sS'icing--false'
p1034
I3
sS'cube--false'
p1035
I6
sS'fold--false'
p1036
I0
sS'pulse-PARG-false'
p1037
I0
sS'follow--false'
p1038
I0
sS'heat-PARG-false'
p1039
I0
sS'icing-PARG-true'
p1040
I0
sS'snip--false'
p1041
I0
sS'use-DOBJ-true'
p1042
I8
sS'watch-PARG-false'
p1043
I0
sS'dust-DOBJ-false'
p1044
I0
sS'stream-DOBJPARG-true'
p1045
I3
sS'make-DOBJ-false'
p1046
I0
sS'leave-DOBJPARG-true'
p1047
I6
sS'seat-DOBJPARG-false'
p1048
I0
sS'transfer-DOBJ-false'
p1049
I0
sS'scoop-PARG-true'
p1050
I9
sS'ask-DOBJPARG-true'
p1051
I1
sS'start-DOBJ-false'
p1052
I0
sS'lift-DOBJ-false'
p1053
I0
sS'crush-PARG-false'
p1054
I0
sS'run-DOBJPARG-true'
p1055
I6
sS'toss-DOBJPARG-false'
p1056
I0
sS'cut--false'
p1057
I11
sS'alternate--false'
p1058
I0
sS'test-DOBJPARG-true'
p1059
I0
sS'smooth-PARG-true'
p1060
I5
sS'bring-PARG-true'
p1061
I524
sS'follow-DOBJPARG-true'
p1062
I3
sS'scramble-DOBJPARG-false'
p1063
I0
sS'best-PARG-true'
p1064
I2
sS'reserve-PARG-false'
p1065
I0
sS'coat-DOBJPARG-true'
p1066
I31
sS'scrape-DOBJ-true'
p1067
I4
sS'adjust-DOBJ-false'
p1068
I0
sS'separate-DOBJ-true'
p1069
I6
sS'dot-DOBJPARG-true'
p1070
I4
sS'brush-DOBJPARG-false'
p1071
I0
sS'stack-DOBJPARG-false'
p1072
I0
sS'refrigerate-DOBJPARG-true'
p1073
I16
sS'loosen-DOBJPARG-false'
p1074
I0
sS'flavor-PARG-true'
p1075
I1
sS'start-PARG-false'
p1076
I0
sS'fluff-DOBJ-false'
p1077
I0
sS'melt-DOBJ-false'
p1078
I0
sS'saute-PARG-true'
p1079
I51
sS'surround--false'
p1080
I0
sS'tuck-DOBJPARG-true'
p1081
I1
sS'shred-DOBJ-true'
p1082
I15
sS'press--false'
p1083
I5
sS'crack-DOBJ-false'
p1084
I0
sS'unroll--false'
p1085
I0
sS'core-DOBJPARG-true'
p1086
I0
sS'flavor-PARG-false'
p1087
I0
sS'test-PARG-false'
p1088
I0
sS'select-PARG-true'
p1089
I0
sS'create-DOBJ-true'
p1090
I0
sS'flip-DOBJ-true'
p1091
I4
sS'brush-PARG-false'
p1092
I0
sS'sear-DOBJ-false'
p1093
I0
sS'work-DOBJPARG-false'
p1094
I0
sS'season-PARG-true'
p1095
I452
sS'scoop-DOBJ-true'
p1096
I1
sS'decrease--false'
p1097
I0
sS'cake-PARG-true'
p1098
I0
sS'simmer-PARG-true'
p1099
I290
sS'rest-DOBJ-false'
p1100
I0
sS'apply--false'
p1101
I0
sS'test-DOBJ-false'
p1102
I0
sS'broil-DOBJPARG-true'
p1103
I7
sS'pile-DOBJ-false'
p1104
I0
sS'strain--false'
p1105
I1
sS'test--false'
p1106
I0
sS'cream-DOBJPARG-true'
p1107
I19
sS'stretch--false'
p1108
I0
sS'overlap-DOBJ-true'
p1109
I0
sS'cream-DOBJ-false'
p1110
I0
sS'brown-DOBJ-true'
p1111
I11
sS'hollow-DOBJPARG-true'
p1112
I0
sS'slide-DOBJPARG-false'
p1113
I0
sS'spoon-DOBJ-false'
p1114
I0
sS'follow-DOBJ-false'
p1115
I0
sS'scramble-DOBJPARG-true'
p1116
I3
sS'debone-DOBJ-true'
p1117
I1
sS'blend-DOBJPARG-false'
p1118
I0
sS'crumble-DOBJ-true'
p1119
I8
sS'raise-DOBJPARG-true'
p1120
I3
sS'flute-PARG-false'
p1121
I0
sS'pull-DOBJ-true'
p1122
I2
sS'dissolve--false'
p1123
I2
sS'spoon-DOBJPARG-true'
p1124
I174
sS'brown-DOBJPARG-true'
p1125
I113
sS'knife-DOBJPARG-true'
p1126
I1
sS'knife-PARG-true'
p1127
I1
sS'have-DOBJPARG-false'
p1128
I0
sS'place-PARG-true'
p1129
I238
sS'make-PARG-true'
p1130
I0
sS'stuff-PARG-true'
p1131
I1
sS'fry-DOBJPARG-false'
p1132
I0
sS'water--false'
p1133
I1
sS'coat-DOBJ-true'
p1134
I0
sS'muddle-DOBJ-false'
p1135
I0
sS'break-DOBJPARG-true'
p1136
I20
sS'oil-PARG-true'
p1137
I8
sS'wrap-PARG-true'
p1138
I13
sS'ready-DOBJPARG-true'
p1139
I3
sS'toss-DOBJPARG-true'
p1140
I159
sS'empty-DOBJ-false'
p1141
I0
sS'reposition--false'
p1142
I0
sS'punch-PARG-true'
p1143
I0
sS'butter-DOBJ-true'
p1144
I22
sS'tear-DOBJ-false'
p1145
I0
sS'blanch-DOBJPARG-false'
p1146
I0
sS'simmer-DOBJPARG-true'
p1147
I48
sS'fill-PARG-false'
p1148
I0
sS'roast-DOBJ-true'
p1149
I0
sS'rest-PARG-false'
p1150
I0
sS'empty-DOBJ-true'
p1151
I0
sS'julienne-DOBJPARG-true'
p1152
I1
sS'lie-PARG-false'
p1153
I0
sS'pack-DOBJ-false'
p1154
I0
sS'mash-DOBJPARG-true'
p1155
I75
sS'round--false'
p1156
I0
sS'take-DOBJPARG-false'
p1157
I0
sS'cream-PARG-false'
p1158
I0
sS'turn--false'
p1159
I2
sS'load-DOBJ-true'
p1160
I0
sS'store-DOBJPARG-true'
p1161
I9
sS'wash-DOBJ-true'
p1162
I5
sS'salt-DOBJPARG-true'
p1163
I1
sS'bake-DOBJ-true'
p1164
I8
sS'simmer-DOBJ-true'
p1165
I2
sS'create-PARG-false'
p1166
I0
sS'enjoy-DOBJ-true'
p1167
I0
sS'put-DOBJPARG-true'
p1168
I22
sS'twist--false'
p1169
I0
sS'loosen--false'
p1170
I0
sS'whip-DOBJ-false'
p1171
I0
sS'pass-DOBJ-false'
p1172
I0
sS'finish-PARG-true'
p1173
I4
sS'pass-DOBJPARG-true'
p1174
I1
sS'flatten--false'
p1175
I0
sS'taste-PARG-false'
p1176
I0
sS'knife-DOBJ-false'
p1177
I0
sS'tilt-DOBJPARG-true'
p1178
I1
sS'thaw-DOBJ-true'
p1179
I0
sS'thicken-PARG-false'
p1180
I0
sS'serve--false'
p1181
I183
sS'measure--false'
p1182
I0
sS'unroll-DOBJPARG-true'
p1183
I10
sS'microwave-DOBJPARG-false'
p1184
I0
sS'tilt-DOBJ-true'
p1185
I0
sS'loosen-DOBJ-true'
p1186
I0
sS'canned-DOBJPARG-false'
p1187
I0
sS'microwave--false'
p1188
I0
sS'fluff-PARG-false'
p1189
I0
sS'fry-DOBJPARG-true'
p1190
I37
sS'transfer-DOBJPARG-true'
p1191
I159
sS'prepare-DOBJPARG-true'
p1192
I50
sS'warm-DOBJPARG-true'
p1193
I6
sS'beat-PARG-true'
p1194
I76
sS'pound-PARG-true'
p1195
I2
sS'peel-PARG-false'
p1196
I0
sS'shake-DOBJ-false'
p1197
I0
sS'scrape-DOBJPARG-false'
p1198
I0
sS'lay-DOBJ-false'
p1199
I0
sS'sift-PARG-false'
p1200
I0
sS'taste-PARG-true'
p1201
I4
sS'place-DOBJ-true'
p1202
I8
sS'dab-PARG-true'
p1203
I1
sS'form-DOBJPARG-true'
p1204
I33
sS'fold-DOBJ-false'
p1205
I0
sS'trim-DOBJPARG-false'
p1206
I0
sS'enjoy-DOBJ-false'
p1207
I0
sS'hold-DOBJPARG-true'
p1208
I4
sS'pound-PARG-false'
p1209
I0
sS'bake-DOBJPARG-false'
p1210
I0
sS'increase-DOBJ-false'
p1211
I0
sS'reposition-DOBJ-true'
p1212
I1
sS'plunge-DOBJ-true'
p1213
I0
sS'stretch-PARG-false'
p1214
I0
sS'thread-PARG-true'
p1215
I0
sS'smother-DOBJPARG-true'
p1216
I0
sS'remove-DOBJ-false'
p1217
I0
sS'mash-PARG-false'
p1218
I0
sS'reshape-DOBJPARG-true'
p1219
I1
sS'whip-PARG-false'
p1220
I0
sS'saute-PARG-false'
p1221
I0
sS'peel-PARG-true'
p1222
I9
sS'shave-PARG-true'
p1223
I1
sS'dump-PARG-true'
p1224
I1
sS'brush-DOBJ-true'
p1225
I2
sS'wash-PARG-false'
p1226
I0
sS'whipped--false'
p1227
I0
sS'pour-DOBJPARG-false'
p1228
I0
sS'thaw-DOBJPARG-true'
p1229
I0
sS'butter-DOBJPARG-false'
p1230
I0
sS'ladle-DOBJPARG-false'
p1231
I0
sS'distribute-PARG-true'
p1232
I0
sS'adjust-PARG-false'
p1233
I0
sS'scatter-DOBJ-true'
p1234
I1
sS'crust-DOBJ-true'
p1235
I0
sS'crumple-DOBJPARG-false'
p1236
I0
sS'dot-PARG-true'
p1237
I7
sS'watch-PARG-true'
p1238
I2
sS'dry-DOBJ-false'
p1239
I0
sS'moisten--false'
p1240
I0
sS'coating-DOBJ-false'
p1241
I0
sS'dust--false'
p1242
I0
sS'makes-PARG-false'
p1243
I0
sS'cool-DOBJ-true'
p1244
I12
sS'unroll-DOBJ-true'
p1245
I3
sS'cover-PARG-true'
p1246
I388
sS'arrange-PARG-false'
p1247
I0
sS'tip-DOBJ-true'
p1248
I3
sS'carve-PARG-true'
p1249
I0
sS'melt-DOBJPARG-true'
p1250
I212
sS'discard-PARG-false'
p1251
I0
sS'ladle--false'
p1252
I0
sS'dust-PARG-false'
p1253
I0
sS'fill-DOBJ-true'
p1254
I10
sS'run--false'
p1255
I0
sS'have-PARG-false'
p1256
I0
sS'skim-DOBJPARG-false'
p1257
I0
sS'overlap-PARG-false'
p1258
I0
sS'flavor-DOBJ-true'
p1259
I0
sS'use-PARG-false'
p1260
I0
sS'check-DOBJ-false'
p1261
I0
sS'tuck--false'
p1262
I0
sS'decrease-PARG-true'
p1263
I0
sS'layer-DOBJPARG-false'
p1264
I0
sS'keep-DOBJPARG-false'
p1265
I0
sS'coating--false'
p1266
I3
sS'cook-DOBJ-true'
p1267
I244
sS'wrap-PARG-false'
p1268
I0
sS'brown-PARG-true'
p1269
I42
sS'finish-PARG-false'
p1270
I0
sS'steep-DOBJPARG-false'
p1271
I0
sS'moisten-DOBJPARG-true'
p1272
I2
sS'core-DOBJPARG-false'
p1273
I0
sS'pierce--false'
p1274
I0
sS'brown--false'
p1275
I6
sS'stack-DOBJ-false'
p1276
I0
sS'chill-DOBJ-false'
p1277
I0
sS'moisten-DOBJ-false'
p1278
I0
sS'drop-DOBJPARG-false'
p1279
I0
sS'overlap-PARG-true'
p1280
I0
sS'crumb-DOBJPARG-false'
p1281
I0
sS'cook-PARG-false'
p1282
I0
sS'seat-PARG-false'
p1283
I0
sS'work-PARG-false'
p1284
I0
sS'crimp-DOBJ-false'
p1285
I0
sS'fluff-DOBJPARG-false'
p1286
I0
sS'bring-PARG-false'
p1287
I0
sS'whipped-DOBJPARG-false'
p1288
I0
sS'swirl-DOBJ-true'
p1289
I0
sS'alternate-DOBJ-false'
p1290
I0
sS'trim--false'
p1291
I1
sS'follow-PARG-false'
p1292
I0
sS'butter-PARG-false'
p1293
I0
sS'stream-DOBJPARG-false'
p1294
I0
sS'repeat-PARG-true'
p1295
I32
sS'toast-PARG-false'
p1296
I0
sS'rinse-PARG-true'
p1297
I41
sS'pour-PARG-false'
p1298
I0
sS'can-DOBJPARG-false'
p1299
I0
sS'pull-PARG-true'
p1300
I3
sS'grate-DOBJ-false'
p1301
I0
sS'smoke-DOBJ-true'
p1302
I0
sS'brush-PARG-true'
p1303
I8
sS'rinse-DOBJ-true'
p1304
I4
sS'replace-PARG-true'
p1305
I1
sS'mound-DOBJ-true'
p1306
I0
sS'grate-PARG-false'
p1307
I0
sS'check-DOBJ-true'
p1308
I1
sS'round-DOBJ-false'
p1309
I0
sS'scoop-PARG-false'
p1310
I0
sS'steam--false'
p1311
I1
sS'leave-DOBJPARG-false'
p1312
I0
sS'blanch--false'
p1313
I0
sS'serve-DOBJ-false'
p1314
I0
sS'stop-PARG-true'
p1315
I0
sS'wrap-DOBJ-true'
p1316
I0
sS'icing-PARG-false'
p1317
I0
sS'crush-DOBJPARG-true'
p1318
I3
sS'makes-PARG-true'
p1319
I0
sS'stop-DOBJPARG-true'
p1320
I0
sS'hollow-DOBJ-true'
p1321
I0
sS'alternate-PARG-true'
p1322
I1
sS'sort-DOBJ-false'
p1323
I0
sS'sprinkle-DOBJPARG-true'
p1324
I252
sS'pinch-DOBJPARG-true'
p1325
I6
sS'raise-DOBJ-true'
p1326
I0
sS'keep--false'
p1327
I3
sS'wrap-DOBJPARG-true'
p1328
I14
sS'tip--false'
p1329
I2
sS'lay--false'
p1330
I0
sS'watch-DOBJPARG-true'
p1331
I1
sS'wipe-DOBJ-false'
p1332
I0
sS'throw-PARG-true'
p1333
I1
sS'assemble-PARG-false'
p1334
I0
sS'tuck-PARG-true'
p1335
I0
sS'pinch-DOBJPARG-false'
p1336
I0
sS'pulse--false'
p1337
I0
sS'use--false'
p1338
I1
sS'take-DOBJ-false'
p1339
I0
sS'seal--false'
p1340
I13
sS'change-DOBJ-false'
p1341
I0
sS'reshape-DOBJ-true'
p1342
I0
sS'ready-DOBJ-true'
p1343
I0
sS'throw-PARG-false'
p1344
I0
sS'smooth-DOBJPARG-false'
p1345
I0
sS'coating-DOBJPARG-true'
p1346
I0
sS'cheese-PARG-false'
p1347
I0
sS'dunk-DOBJ-false'
p1348
I0
sS'gather-PARG-false'
p1349
I0
sS'add--false'
p1350
I6
sS'continue-PARG-true'
p1351
I75
sS'smother-DOBJPARG-false'
p1352
I0
sS'freezing-DOBJ-true'
p1353
I1
sS'grill-DOBJ-false'
p1354
I0
sS'fit-DOBJ-true'
p1355
I0
sS'seal-DOBJPARG-false'
p1356
I0
sS'serve-PARG-false'
p1357
I0
sS'lock--false'
p1358
I0
sS'melt-DOBJPARG-false'
p1359
I0
sS'put-DOBJ-false'
p1360
I0
sS'follow-DOBJPARG-false'
p1361
I0
sS'tap-PARG-true'
p1362
I4
sS'dab-PARG-false'
p1363
I0
sS'season--false'
p1364
I2
sS'allow-DOBJ-true'
p1365
I17
sS'flavor-DOBJ-false'
p1366
I0
sS'scatter--false'
p1367
I0
sS'boil-DOBJPARG-false'
p1368
I0
sS'tent-PARG-false'
p1369
I0
sS'cube-DOBJPARG-false'
p1370
I0
sS'invert-DOBJPARG-false'
p1371
I0
sS'smother--false'
p1372
I0
sS'cheese-PARG-true'
p1373
I2
sS'churn-DOBJ-true'
p1374
I0
sS'beat-DOBJPARG-true'
p1375
I171
sS'work-DOBJ-false'
p1376
I0
sS'watch-DOBJPARG-false'
p1377
I0
sS'flour--false'
p1378
I33
sS'roll-DOBJ-false'
p1379
I0
sS'gather--false'
p1380
I0
sS'sift-DOBJPARG-false'
p1381
I0
sS'assemble-DOBJ-true'
p1382
I0
sS'lay-PARG-true'
p1383
I2
sS'move-DOBJPARG-true'
p1384
I1
sS'strain-DOBJPARG-true'
p1385
I2
sS'stuff-DOBJPARG-true'
p1386
I3
sS'transfer-PARG-false'
p1387
I0
sS'smoke--false'
p1388
I1
sS'crumble--false'
p1389
I41
sS'can-PARG-false'
p1390
I0
sS'pare-DOBJ-false'
p1391
I0
sS'start--false'
p1392
I1
sS'grind--false'
p1393
I0
sS'change-DOBJPARG-true'
p1394
I2
sS'makes-DOBJPARG-false'
p1395
I0
sS'churn--false'
p1396
I0
sS'blanch-PARG-false'
p1397
I0
sS'wipe-PARG-true'
p1398
I1
sS'mince-PARG-false'
p1399
I0
sS'pound-DOBJ-true'
p1400
I0
sS'portion-DOBJ-false'
p1401
I0
sS'mound--false'
p1402
I0
sS'lift-PARG-false'
p1403
I0
sS'soak-PARG-true'
p1404
I3
sS'salt-DOBJ-false'
p1405
I0
sS'squeeze-DOBJPARG-true'
p1406
I10
sS'crust-PARG-true'
p1407
I7
sS'crack-DOBJPARG-true'
p1408
I2
sS'smooth-PARG-false'
p1409
I0
sS'heat-DOBJ-true'
p1410
I52
sS'marinate-PARG-true'
p1411
I15
sS'peel-DOBJPARG-true'
p1412
I4
sS'dump-PARG-false'
p1413
I0
sS'microwave-DOBJPARG-true'
p1414
I4
sS'rub-PARG-false'
p1415
I0
sS'tap--false'
p1416
I0
sS'change--false'
p1417
I0
sS'tear--false'
p1418
I0
sS'make-DOBJPARG-false'
p1419
I0
sS'ease-DOBJ-false'
p1420
I0
sS'lock-DOBJPARG-false'
p1421
I0
sS'leave--false'
p1422
I0
sS'seat-DOBJ-true'
p1423
I0
sS'lift-DOBJPARG-true'
p1424
I3
sS'soak-DOBJPARG-false'
p1425
I0
sS'build--false'
p1426
I0
sS'apply-DOBJ-true'
p1427
I0
sS'seal-PARG-true'
p1428
I0
sS'pierce-DOBJPARG-false'
p1429
I0
sS'soak-DOBJPARG-true'
p1430
I22
sS'flute--false'
p1431
I1
sS'process-DOBJPARG-false'
p1432
I0
sS'decrease-DOBJ-true'
p1433
I0
sS'have-PARG-true'
p1434
I0
sS'layer-DOBJPARG-true'
p1435
I42
sS'reposition-DOBJPARG-true'
p1436
I0
sS'poach--false'
p1437
I0
sS'load-PARG-false'
p1438
I0
sS'scramble-DOBJ-true'
p1439
I1
sS'wear--false'
p1440
I0
sS'divide--false'
p1441
I1
sS'steam-DOBJ-true'
p1442
I0
sS'begin-PARG-false'
p1443
I0
sS'reserve-PARG-true'
p1444
I10
sS'move-DOBJ-true'
p1445
I1
sS'cheese-DOBJ-false'
p1446
I0
sS'add-PARG-true'
p1447
I89
sS'water-DOBJPARG-false'
p1448
I0
sS'stuff-PARG-false'
p1449
I0
sS'debone-PARG-true'
p1450
I0
sS'marinate-DOBJ-false'
p1451
I0
sS'thicken--false'
p1452
I0
sS'fry-DOBJ-true'
p1453
I3
sS'ask-PARG-true'
p1454
I0
sS'core-PARG-true'
p1455
I0
sS'overlap-DOBJPARG-false'
p1456
I0
sS'throw-DOBJ-false'
p1457
I0
sS'combine--false'
p1458
I4
sS'cut-PARG-false'
p1459
I0
sS'braise-DOBJ-false'
p1460
I0
sS'shape-DOBJ-false'
p1461
I0
sS'fill-DOBJ-false'
p1462
I0
sS'spoon-DOBJ-true'
p1463
I6
sS'score-DOBJ-false'
p1464
I0
sS'roast-DOBJ-false'
p1465
I0
sS'crumb--false'
p1466
I0
sS'slide-DOBJPARG-true'
p1467
I4
sS'pare--false'
p1468
I0
sS'heat-DOBJ-false'
p1469
I0
sS'create--false'
p1470
I0
sS'julienne-DOBJ-true'
p1471
I0
sS'heat-PARG-true'
p1472
I49
sS'load-DOBJPARG-false'
p1473
I0
sS'sprinkle--false'
p1474
I1
sS'tuck-DOBJ-false'
p1475
I0
sS'finish--false'
p1476
I0
sS'whipped-DOBJPARG-true'
p1477
I0
sS'can-PARG-true'
p1478
I2
sS'dust-DOBJPARG-false'
p1479
I0
sS'dissolve-PARG-true'
p1480
I1
sS'have-DOBJ-true'
p1481
I1
sS'crimp-PARG-false'
p1482
I0
sS'oil-DOBJPARG-false'
p1483
I0
sS'sauce-DOBJPARG-true'
p1484
I11
sS'pull-PARG-false'
p1485
I0
sS'knead-DOBJ-true'
p1486
I2
sS'dice-DOBJPARG-true'
p1487
I2
sS'unwrap-DOBJ-false'
p1488
I0
sS'pat-DOBJ-true'
p1489
I2
sS'reheat-DOBJ-true'
p1490
I2
sS'pare-DOBJPARG-false'
p1491
I0
sS'pat-PARG-true'
p1492
I14
sS'unroll-DOBJPARG-false'
p1493
I0
sS'stop--false'
p1494
I0
sS'ensure--false'
p1495
I0
sS'lower-DOBJPARG-false'
p1496
I0
sS'crumb-DOBJ-false'
p1497
I0
sS'press-PARG-true'
p1498
I30
sS'pick-DOBJPARG-false'
p1499
I0
sS'repeat-DOBJ-false'
p1500
I0
sS'poach-DOBJPARG-true'
p1501
I2
sS'crumple-DOBJ-true'
p1502
I1
sS'sear-PARG-true'
p1503
I0
sS'plunge-PARG-true'
p1504
I1
sS'trim-DOBJPARG-true'
p1505
I5
sS'discard-DOBJ-true'
p1506
I42
sS'tip-DOBJ-false'
p1507
I0
sS'cheese-DOBJ-true'
p1508
I2
sS'stretch-DOBJPARG-true'
p1509
I1
sS'squeeze-DOBJPARG-false'
p1510
I0
sS'dot-DOBJ-true'
p1511
I0
sS'freezing-PARG-true'
p1512
I0
sS'whip-DOBJ-true'
p1513
I0
sS'roast-PARG-true'
p1514
I9
sS'chill-DOBJPARG-true'
p1515
I18
sS'store--false'
p1516
I1
sS'render-PARG-true'
p1517
I0
sS'finish-DOBJ-false'
p1518
I0
sS'slide--false'
p1519
I0
sS'increase-DOBJPARG-false'
p1520
I0
sS'season-DOBJ-true'
p1521
I1
sS'beat-DOBJ-true'
p1522
I25
sS'decorate-DOBJPARG-true'
p1523
I3
sS'spread-DOBJPARG-true'
p1524
I317
sS'quarter-PARG-false'
p1525
I0
sS'form-DOBJPARG-false'
p1526
I0
sS'select-DOBJPARG-true'
p1527
I0
sS'allow--false'
p1528
I51
sS'beat-DOBJPARG-false'
p1529
I0
sS'steep-DOBJ-true'
p1530
I0
sS'loosen-PARG-false'
p1531
I0
sS'bring-DOBJ-true'
p1532
I2
sS'cheese-DOBJPARG-false'
p1533
I0
sS'cake-DOBJPARG-true'
p1534
I0
sS'wipe-PARG-false'
p1535
I0
sS'plop-DOBJ-true'
p1536
I0
sS'align-PARG-true'
p1537
I0
sS'butter-PARG-true'
p1538
I12
sS'fill-DOBJPARG-false'
p1539
I0
sS'poke-DOBJPARG-true'
p1540
I3
sS'adjust-DOBJPARG-true'
p1541
I17
sS'broil--false'
p1542
I1
sS'swirl-DOBJPARG-true'
p1543
I1
sS'throw--false'
p1544
I0
sS'poke-DOBJPARG-false'
p1545
I0
sS'served-DOBJPARG-true'
p1546
I3
sS'add-DOBJ-false'
p1547
I0
sS'overlap-DOBJ-false'
p1548
I0
sS'spray--false'
p1549
I2
sS'microwave-DOBJ-true'
p1550
I1
sS'work--false'
p1551
I0
sS'top-DOBJPARG-false'
p1552
I0
sS'poke--false'
p1553
I0
sS'salt--false'
p1554
I4
sS'sort-DOBJPARG-false'
p1555
I0
sS'frost-DOBJPARG-false'
p1556
I0
sS'pierce-DOBJPARG-true'
p1557
I4
sS'wrap-DOBJ-false'
p1558
I0
sS'reposition-DOBJPARG-false'
p1559
I0
sS'layer-PARG-false'
p1560
I0
sS'scoop--false'
p1561
I0
sS'clean-DOBJPARG-false'
p1562
I0
sS'microwave-PARG-true'
p1563
I12
sS'cream-PARG-true'
p1564
I4
sS'shave-DOBJPARG-false'
p1565
I0
sS'remove-DOBJPARG-true'
p1566
I316
sS'shake--false'
p1567
I5
sS'grate-DOBJ-true'
p1568
I3
sS'transfer-PARG-true'
p1569
I108
sS'rinse-DOBJPARG-true'
p1570
I10
sS'seat--false'
p1571
I1
sS'render--false'
p1572
I0
sS'halve-PARG-false'
p1573
I0
sS'reshape-PARG-false'
p1574
I0
sS'pulse-DOBJ-false'
p1575
I0
sS'work-DOBJ-true'
p1576
I0
sS'ensure-DOBJPARG-false'
p1577
I0
sS'refrigerate-PARG-true'
p1578
I234
sS'portion--false'
p1579
I0
sS'wear-PARG-true'
p1580
I0
sS'prick-DOBJ-false'
p1581
I0
sS'take-PARG-false'
p1582
I0
sS'pack-PARG-false'
p1583
I0
sS'pierce-PARG-false'
p1584
I0
sS'punch--false'
p1585
I0
sS'brush-DOBJ-false'
p1586
I0
sS'scatter-DOBJPARG-true'
p1587
I5
sS'hollow--false'
p1588
I0
sS'frost-DOBJ-true'
p1589
I4
sS'spray-PARG-true'
p1590
I8
sS'smoke-DOBJPARG-true'
p1591
I1
sS'scatter-DOBJ-false'
p1592
I0
sS'oil-PARG-false'
p1593
I0
sS'return-PARG-false'
p1594
I0
sS'crush-DOBJ-true'
p1595
I2
sS'slice-PARG-true'
p1596
I25
sS'spoon-DOBJPARG-false'
p1597
I0
sS'drain-DOBJPARG-true'
p1598
I88
sS'process-DOBJPARG-true'
p1599
I3
sS'beat-DOBJ-false'
p1600
I0
sS'slice-DOBJ-false'
p1601
I0
sS'swirl-DOBJ-false'
p1602
I0
sS'julienne-PARG-false'
p1603
I0
sS'have--false'
p1604
I0
sS'load-DOBJPARG-true'
p1605
I1
sS'twist-PARG-false'
p1606
I0
sS'gather-DOBJ-false'
p1607
I0
sS'end-DOBJPARG-true'
p1608
I1
sS'swirl-PARG-false'
p1609
I0
sS'dissolve-DOBJPARG-true'
p1610
I19
sS'set--false'
p1611
I391
sS'steep-DOBJ-false'
p1612
I0
sS'assemble-DOBJPARG-true'
p1613
I3
sS'press-DOBJ-false'
p1614
I0
sS'dab-DOBJ-false'
p1615
I0
sS'plunge-DOBJPARG-false'
p1616
I0
sS'press-PARG-false'
p1617
I0
sS'cover-DOBJ-true'
p1618
I144
sS'scramble--false'
p1619
I0
sS'separate-DOBJ-false'
p1620
I0
sS'pour-DOBJ-true'
p1621
I12
sS'braise--false'
p1622
I0
sS'reshape-PARG-true'
p1623
I0
sS'thread-DOBJPARG-false'
p1624
I0
sS'warm-PARG-true'
p1625
I3
sS'enjoy-DOBJPARG-true'
p1626
I0
sS'wipe--false'
p1627
I0
sS'tear-PARG-true'
p1628
I2
sS'sift-DOBJ-false'
p1629
I0
sS'grate-DOBJPARG-false'
p1630
I0
sS'clean-DOBJPARG-true'
p1631
I1
sS'melt-PARG-true'
p1632
I3
sS'dry-DOBJPARG-false'
p1633
I0
sS'stack-DOBJ-true'
p1634
I1
sS'garnish--false'
p1635
I2
sS'crush--false'
p1636
I1
sS'poach-PARG-false'
p1637
I0
sS'bake-PARG-false'
p1638
I0
sS'swirl-DOBJPARG-false'
p1639
I0
sS'flatten-PARG-true'
p1640
I8
sS'strain-PARG-false'
p1641
I0
sS'scrub-PARG-true'
p1642
I0
sS'uncover-DOBJ-false'
p1643
I0
sS'apply-PARG-true'
p1644
I0
sS'pinch-DOBJ-false'
p1645
I0
sS'repeat-PARG-false'
p1646
I0
sS'drain-DOBJ-true'
p1647
I247
sS'dump-DOBJPARG-false'
p1648
I0
sS'decrease-PARG-false'
p1649
I0
sS'apply-PARG-false'
p1650
I0
sS'julienne-DOBJPARG-false'
p1651
I0
sS'blanch-DOBJPARG-true'
p1652
I0
sS'reposition-DOBJ-false'
p1653
I0
sS'stack-PARG-true'
p1654
I0
sS'end-DOBJ-false'
p1655
I0
sS'select-DOBJ-true'
p1656
I1
sS'score-DOBJPARG-true'
p1657
I0
sS'reduce--false'
p1658
I2
sS'crust-DOBJ-false'
p1659
I0
sS'pile--false'
p1660
I0
sS'round-PARG-false'
p1661
I0
sS'preheat-DOBJ-false'
p1662
I0
sS'invert-PARG-false'
p1663
I0
sS'shave-DOBJ-true'
p1664
I0
sS'place-PARG-false'
p1665
I0
sS'toss-PARG-false'
p1666
I0
sS'arrange-PARG-true'
p1667
I12
sS'shape-DOBJPARG-true'
p1668
I21
sS'ask-PARG-false'
p1669
I0
sS'trim-PARG-false'
p1670
I0
sS'break-DOBJ-true'
p1671
I3
sS'tip-DOBJPARG-false'
p1672
I0
sS'start-DOBJ-true'
p1673
I0
sS'saute-DOBJ-true'
p1674
I0
sS'dip-DOBJ-false'
p1675
I0
sS'layer-DOBJ-false'
p1676
I0
sS'cream-DOBJPARG-false'
p1677
I0
sS'drizzle-DOBJ-true'
p1678
I0
sS'insert-PARG-true'
p1679
I0
sS'ask-DOBJ-false'
p1680
I0
sS'dab-DOBJPARG-false'
p1681
I0
sS'drizzle-PARG-true'
p1682
I47
sS'smoke-PARG-true'
p1683
I1
sS'flip-DOBJPARG-true'
p1684
I3
sS'pour-PARG-true'
p1685
I404
sS'sort-DOBJPARG-true'
p1686
I0
sS'poke-DOBJ-true'
p1687
I0
sS'flatten-DOBJ-true'
p1688
I1
sS'poke-PARG-true'
p1689
I0
sS'score-DOBJ-true'
p1690
I1
sS'pass-PARG-true'
p1691
I0
sS'strain-PARG-true'
p1692
I4
sS'put--false'
p1693
I1
sS'scrub-DOBJPARG-true'
p1694
I0
sS'begin--false'
p1695
I2
sS'split-PARG-false'
p1696
I0
sS'render-DOBJ-true'
p1697
I0
sS'check-DOBJPARG-true'
p1698
I4
sS'allow-DOBJPARG-false'
p1699
I0
sS'mound-DOBJPARG-false'
p1700
I0
sS'throw-DOBJ-true'
p1701
I0
sS'pulse-PARG-true'
p1702
I13
sS'mash-DOBJPARG-false'
p1703
I0
sS'ladle-PARG-true'
p1704
I11
sS'cheese--false'
p1705
I7
sS'crumb-DOBJPARG-true'
p1706
I1
sS'stir-DOBJPARG-true'
p1707
I681
sS'freeze-DOBJ-false'
p1708
I0
sS'hold-DOBJ-true'
p1709
I1
sS'crush-DOBJ-false'
p1710
I0
sS'round-DOBJ-true'
p1711
I2
sS'fry-PARG-true'
p1712
I21
sS'cook-DOBJPARG-false'
p1713
I0
sS'break--false'
p1714
I1
sS'slice-DOBJPARG-false'
p1715
I0
sS'unwrap-PARG-false'
p1716
I0
sS'cover-PARG-false'
p1717
I0
sS'brush--false'
p1718
I0
sS'core-DOBJ-false'
p1719
I0
sS'empty-PARG-false'
p1720
I0
sS'open-PARG-true'
p1721
I1
sS'served-PARG-true'
p1722
I0
sS'pull-DOBJPARG-true'
p1723
I6
sS'canned-DOBJ-false'
p1724
I0
sS'ready-DOBJPARG-false'
p1725
I0
sS'spray-PARG-false'
p1726
I0
sS'shave--false'
p1727
I0
sS'pipe-DOBJ-false'
p1728
I0
sS'steep-PARG-true'
p1729
I0
sS'have-DOBJ-false'
p1730
I0
sS'roll-PARG-false'
p1731
I0
sS'pick-DOBJ-false'
p1732
I0
sS'ladle-PARG-false'
p1733
I0
sS'leave-PARG-false'
p1734
I0
sS'lie-DOBJPARG-true'
p1735
I1
sS'remove--false'
p1736
I16
sS'dry-DOBJ-true'
p1737
I2
sS'position-PARG-false'
p1738
I0
sS'season-DOBJPARG-true'
p1739
I51
sS'rub-DOBJPARG-false'
p1740
I0
sS'insert--false'
p1741
I0
sS'dice-DOBJ-true'
p1742
I16
sS'thicken-DOBJPARG-true'
p1743
I3
sS'remove-DOBJ-true'
p1744
I156
sS'reduce-PARG-false'
p1745
I0
sS'thaw-DOBJ-false'
p1746
I0
sS'end-DOBJPARG-false'
p1747
I0
sS'grill-DOBJ-true'
p1748
I6
sS'unroll-DOBJ-false'
p1749
I0
sS'push-DOBJ-false'
p1750
I0
sS'allow-PARG-true'
p1751
I107
sS'drop--false'
p1752
I0
sS'knife-PARG-false'
p1753
I0
sS'flip--false'
p1754
I2
sS'end--false'
p1755
I0
sS'frost-PARG-false'
p1756
I0
sS'ladle-DOBJ-true'
p1757
I0
sS'reduce-DOBJ-true'
p1758
I85
sS'canned-DOBJPARG-true'
p1759
I1
sS'lower-DOBJPARG-true'
p1760
I12
sS'steam-DOBJ-false'
p1761
I0
sS'begin-DOBJ-false'
p1762
I0
sS'cool-DOBJPARG-true'
p1763
I42
sS'dredge-PARG-true'
p1764
I2
sS'mash--false'
p1765
I6
sS'ladle-DOBJPARG-true'
p1766
I12
sS'store-DOBJ-false'
p1767
I0
sS'cook-DOBJ-false'
p1768
I0
sS'measure-PARG-true'
p1769
I2
sS'grate--false'
p1770
I1
sS'divide-PARG-true'
p1771
I12
sS'stuff--false'
p1772
I0
sS'crack--false'
p1773
I0
sS'dissolve-DOBJ-false'
p1774
I0
sS'keep-PARG-false'
p1775
I0
sS'raise-PARG-false'
p1776
I0
sS'pile-PARG-true'
p1777
I0
sS'roll--false'
p1778
I3
sS'empty-PARG-true'
p1779
I0
sS'wipe-DOBJ-true'
p1780
I3
sS'swirl-PARG-true'
p1781
I3
sS'chop-DOBJ-false'
p1782
I0
sS'render-DOBJ-false'
p1783
I0
sS'heat-DOBJPARG-true'
p1784
I502
sS'score-PARG-false'
p1785
I0
sS'stir-PARG-false'
p1786
I0
sS'insert-DOBJ-true'
p1787
I0
sS'warm-DOBJPARG-false'
p1788
I0
sS'swirl--false'
p1789
I0
sS'increase--false'
p1790
I0
sS'take-DOBJ-true'
p1791
I3
sS'place-DOBJPARG-false'
p1792
I0
sS'work-PARG-true'
p1793
I3
sS'broil-DOBJPARG-false'
p1794
I0
sS'whisk-PARG-true'
p1795
I92
sS'replace-DOBJPARG-true'
p1796
I3
sS'debone--false'
p1797
I0
sS'served-DOBJ-false'
p1798
I0
sS'prick-PARG-false'
p1799
I0
sS'crumple-PARG-false'
p1800
I0
sS'whirl-DOBJPARG-true'
p1801
I0
sS'pour--false'
p1802
I5
sS'fold-PARG-false'
p1803
I0
sS'warm-PARG-false'
p1804
I0
sS'snip-PARG-true'
p1805
I5
sS'use-DOBJPARG-true'
p1806
I35
sS'add-PARG-false'
p1807
I0
sS'split--false'
p1808
I0
sS'oil-DOBJ-false'
p1809
I0
sS'carve-DOBJPARG-false'
p1810
I0
sS'start-DOBJPARG-false'
p1811
I0
sS'score-DOBJPARG-false'
p1812
I0
sS'sprinkle-PARG-false'
p1813
I0
sS'position-PARG-true'
p1814
I0
sS'whipped-DOBJ-false'
p1815
I0
sS'scrape-PARG-false'
p1816
I0
sS'flatten-PARG-false'
p1817
I0
sS'check-PARG-false'
p1818
I0
sS'tear-DOBJPARG-true'
p1819
I6
sS'quarter-PARG-true'
p1820
I0
sS'whisk--false'
p1821
I3
sS'render-DOBJPARG-false'
p1822
I0
sS'overlap--false'
p1823
I0
sS'thicken-DOBJPARG-false'
p1824
I0
sS'push-DOBJPARG-true'
p1825
I7
sS'snip-DOBJ-true'
p1826
I0
sS'freeze-DOBJPARG-true'
p1827
I1
sS'form-DOBJ-false'
p1828
I0
sS'shape-DOBJ-true'
p1829
I0
sS'select-DOBJ-false'
p1830
I0
sS'combine-DOBJ-false'
p1831
I0
sS'divide-DOBJ-true'
p1832
I5
sS'thicken-PARG-true'
p1833
I0
sS'brown-PARG-false'
p1834
I0
sS'moisten-DOBJPARG-false'
p1835
I0
sS'slice-DOBJPARG-true'
p1836
I51
sS'crust-DOBJPARG-false'
p1837
I0
sS'cover--false'
p1838
I200
sS'push-DOBJPARG-false'
p1839
I0
sS'baste-PARG-true'
p1840
I2
sS'snip-PARG-false'
p1841
I0
sS'seat-DOBJ-false'
p1842
I0
sS'scrub-DOBJ-false'
p1843
I0
sS'clean-DOBJ-true'
p1844
I2
sS'pack--false'
p1845
I1
sS'twist-PARG-true'
p1846
I0
sS'top-PARG-false'
p1847
I0
sS'position-DOBJ-false'
p1848
I0
sS'let-PARG-true'
p1849
I87
sS'check--false'
p1850
I1
sS'frost--false'
p1851
I2
sS'alternate-DOBJPARG-true'
p1852
I3
sS'roll-DOBJPARG-false'
p1853
I0
sS'baste-DOBJ-false'
p1854
I0
sS'scoop-DOBJPARG-true'
p1855
I40
sS'cover-DOBJPARG-false'
p1856
I0
sS'crack-PARG-false'
p1857
I0
sS'twist-DOBJPARG-true'
p1858
I1
sS'pile-DOBJPARG-false'
p1859
I0
sS'carve-DOBJ-true'
p1860
I0
sS'repeat--false'
p1861
I8
sS'discard-DOBJ-false'
p1862
I0
sS'watch--false'
p1863
I2
sS'whirl-PARG-false'
p1864
I0
sS'combine-DOBJPARG-true'
p1865
I675
sS'rub-DOBJ-true'
p1866
I0
sS'plunge-DOBJPARG-true'
p1867
I1
sS'roll-DOBJ-true'
p1868
I14
sS'begin-DOBJPARG-true'
p1869
I3
sS'crust-PARG-false'
p1870
I0
sS'baste-DOBJ-true'
p1871
I0
sS'dot-DOBJ-false'
p1872
I0
sS'align-DOBJ-false'
p1873
I0
sS'brown-DOBJPARG-false'
p1874
I0
sS'reshape--false'
p1875
I0
sS'build-PARG-true'
p1876
I1
sS'served-DOBJ-true'
p1877
I2
sS'slice--false'
p1878
I22
sS'hold-PARG-true'
p1879
I0
sS'cream--false'
p1880
I4
sS'puree-DOBJ-false'
p1881
I0
sS'lift-PARG-true'
p1882
I0
sS'cool-PARG-false'
p1883
I0
sS'dip-PARG-false'
p1884
I0
sS'bake--false'
p1885
I26
sS'broil-PARG-false'
p1886
I0
sS'cut-DOBJ-true'
p1887
I8
sS'cube-PARG-false'
p1888
I0
sS'tuck-DOBJPARG-false'
p1889
I0
sS'position-DOBJ-true'
p1890
I0
sS'lower--false'
p1891
I0
sS'canned--false'
p1892
I0
sS'fit-DOBJPARG-true'
p1893
I10
sS'drain--false'
p1894
I588
sS'lower-PARG-true'
p1895
I0
sS'render-DOBJPARG-true'
p1896
I1
sS'add-DOBJPARG-true'
p1897
I401
sS'canned-PARG-true'
p1898
I0
sS'shape-DOBJPARG-false'
p1899
I0
sS'toast-DOBJ-false'
p1900
I0
sS'crumb-PARG-true'
p1901
I0
sS'grind-DOBJ-false'
p1902
I0
sS'pat-DOBJ-false'
p1903
I0
sS'crust-DOBJPARG-true'
p1904
I3
sS'top-DOBJ-true'
p1905
I25
sS'frost-DOBJ-false'
p1906
I0
sS'line-PARG-false'
p1907
I0
sS'tilt-DOBJPARG-false'
p1908
I0
sS'decorate-PARG-false'
p1909
I0
sS'whisk-DOBJPARG-false'
p1910
I0
sS'stir-DOBJ-true'
p1911
I57
sS'reserve-DOBJ-false'
p1912
I0
sS'surround-DOBJPARG-false'
p1913
I0
sS'puree-DOBJPARG-true'
p1914
I10
sS'note-PARG-true'
p1915
I0
sS'halve-DOBJPARG-true'
p1916
I1
sS'best-DOBJPARG-true'
p1917
I1
sS'fit-PARG-false'
p1918
I0
sS'stop-PARG-false'
p1919
I0
sS'distribute-DOBJ-false'
p1920
I0
sS'wash-DOBJ-false'
p1921
I0
sS'stop-DOBJ-true'
p1922
I1
sS'reheat-DOBJPARG-false'
p1923
I0
sS'leave-PARG-true'
p1924
I2
sS'grease--false'
p1925
I11
sS'fit-DOBJ-false'
p1926
I0
sS'tip-DOBJPARG-true'
p1927
I1
sS'ease-PARG-false'
p1928
I0
sS'mash-DOBJ-false'
p1929
I0
sS'smooth--false'
p1930
I14
sS'shred-PARG-false'
p1931
I0
sS'pinch--false'
p1932
I0
sS'apply-DOBJ-false'
p1933
I0
sS'wash-PARG-true'
p1934
I0
sS'decrease-DOBJ-false'
p1935
I0
sS'whirl-DOBJ-false'
p1936
I0
sS'end-PARG-false'
p1937
I0
sS'muddle-PARG-true'
p1938
I0
sS'lie-DOBJPARG-false'
p1939
I0
sS'crumb-DOBJ-true'
p1940
I0
sS'whip-PARG-true'
p1941
I3
sS'soak--false'
p1942
I0
sS'pare-DOBJPARG-true'
p1943
I1
sS'create-DOBJ-false'
p1944
I0
sS'wear-DOBJPARG-false'
p1945
I0
sS'uncover-PARG-true'
p1946
I3
sS'toast--false'
p1947
I0
sS'test-DOBJ-true'
p1948
I0
sS'line--false'
p1949
I0
sS'lay-DOBJPARG-false'
p1950
I0
sS'handle-PARG-true'
p1951
I1
sS'change-PARG-true'
p1952
I0
sS'mix-DOBJ-false'
p1953
I0
sS'insert-DOBJ-false'
p1954
I0
sS'dissolve-DOBJ-true'
p1955
I0
sS'dice-DOBJPARG-false'
p1956
I0
sS'turn-DOBJPARG-true'
p1957
I30
sS'grind-DOBJ-true'
p1958
I0
sS'raise-DOBJPARG-false'
p1959
I0
sS'blend-DOBJ-false'
p1960
I0
sS'salt-PARG-true'
p1961
I1
sS'preheat-PARG-false'
p1962
I0
sS'crumble-PARG-true'
p1963
I11
sS'whisk-DOBJ-true'
p1964
I42
sS'spoon--false'
p1965
I0
sS'reposition-PARG-true'
p1966
I0
sS'blanch-DOBJ-true'
p1967
I0
sS'dip--false'
p1968
I1
sS'wipe-DOBJPARG-true'
p1969
I4
sS'shake-DOBJ-true'
p1970
I2
sS'align-DOBJPARG-true'
p1971
I1
sS'increase-DOBJ-true'
p1972
I0
sS'measure-DOBJPARG-true'
p1973
I5
sS'follow-PARG-true'
p1974
I2
sS'coating-PARG-false'
p1975
I0
sS'invert--false'
p1976
I1
sS'handle-DOBJPARG-false'
p1977
I0
sS'tap-DOBJPARG-true'
p1978
I2
sS'continue--false'
p1979
I5
sS'drop-DOBJ-true'
p1980
I0
sS'increase-PARG-false'
p1981
I0
s.(dp0
.(dp0
.