(dp0
S'preheat-2'
p1
I1
sS'preheat-1'
p2
I0
sS'preheat-0'
p3
I0
sS'spoon-2'
p4
I1
sS'spoon-1'
p5
I1
sS'spoon-0'
p6
I0
sS'bake-2'
p7
I1
sS'blend-0'
p8
I0
sS'bake-0'
p9
I0
sS'bake-1'
p10
I0
sS'beat-1'
p11
I1
sS'beat-0'
p12
I0
sS'beat-2'
p13
I0
sS'mix-0'
p14
I0
sS'mix-1'
p15
I0
sS'mix-2'
p16
I1
sS'add-2'
p17
I1
sS'add-1'
p18
I0
sS'add-0'
p19
I0
sS'line-2'
p20
I0
sS'line-1'
p21
I1
sS'line-0'
p22
I0
sS'blend-1'
p23
I1
sS'grease-2'
p24
I0
sS'grease-0'
p25
I0
sS'grease-1'
p26
I1
sS'blend-2'
p27
I0
sS'stir-1'
p28
I0
sS'stir-0'
p29
I0
sS'stir-2'
p30
I1
s.(dp0
S'preheat-1-food'
p1
I0
sS'grease-1-location'
p2
I1
sS'spoon-2-food-location'
p3
I0
sS'bake-1-location'
p4
I0
sS'add-1-food'
p5
I0
sS'beat-2-location'
p6
I0
sS'stir-1-food'
p7
I0
sS'beat-1-food'
p8
I1
sS'line-2-location'
p9
I0
sS'beat-2-food'
p10
I0
sS'bake-2-location'
p11
I0
sS'mix-2-food'
p12
I0
sS'spoon-2-food'
p13
I0
sS'line-2-food-location'
p14
I0
sS'blend-2-food'
p15
I0
sS'blend-2-food-location'
p16
I0
sS'mix-2-location'
p17
I0
sS'bake-2-food'
p18
I0
sS'beat-2-food-location'
p19
I0
sS'blend-2-location'
p20
I0
sS'bake-2-food-location'
p21
I0
sS'spoon-2-location'
p22
I0
sS'grease-1-food'
p23
I0
sS'line-2-food'
p24
I0
sS'mix-2-food-location'
p25
I0
sS'preheat-2-food-location'
p26
I0
sS'bake-1-food'
p27
I0
sS'add-2-food'
p28
I1
sS'beat-1-location'
p29
I0
sS'grease-2-location'
p30
I0
sS'mix-1-location'
p31
I0
sS'mix-1-food'
p32
I0
sS'stir-2-food'
p33
I0
sS'line-1-location'
p34
I0
sS'preheat-2-location'
p35
I0
sS'blend-1-location'
p36
I0
sS'add-1-location'
p37
I0
sS'stir-1-location'
p38
I0
sS'preheat-2-food'
p39
I0
sS'stir-2-food-location'
p40
I0
sS'add-2-food-location'
p41
I0
sS'stir-2-location'
p42
I0
sS'spoon-1-location'
p43
I1
sS'preheat-1-location'
p44
I0
sS'line-1-food'
p45
I0
sS'grease-2-food'
p46
I0
sS'add-2-location'
p47
I0
sS'spoon-1-food'
p48
I0
sS'blend-1-food'
p49
I1
sS'grease-2-food-location'
p50
I0
s.(dp0
S'grease--false'
p1
I0
sS'spoon-DOBJ-false'
p2
I0
sS'preheat-DOBJPARG-true'
p3
I1
sS'stir-PARG-false'
p4
I0
sS'blend-PARG-false'
p5
I0
sS'bake-DOBJPARG-false'
p6
I0
sS'blend-DOBJ-false'
p7
I0
sS'grease-PARG-false'
p8
I0
sS'grease-DOBJ-true'
p9
I1
sS'stir-DOBJ-false'
p10
I0
sS'preheat-PARG-true'
p11
I0
sS'mix--false'
p12
I0
sS'add-DOBJ-false'
p13
I0
sS'preheat-PARG-false'
p14
I0
sS'blend-DOBJPARG-false'
p15
I0
sS'preheat--false'
p16
I0
sS'grease-DOBJPARG-true'
p17
I0
sS'line-DOBJPARG-true'
p18
I0
sS'mix-DOBJ-false'
p19
I0
sS'grease-DOBJPARG-false'
p20
I0
sS'add-DOBJ-true'
p21
I1
sS'line-DOBJPARG-false'
p22
I0
sS'add--false'
p23
I0
sS'bake-DOBJ-false'
p24
I0
sS'add-DOBJPARG-false'
p25
I0
sS'spoon-DOBJPARG-true'
p26
I1
sS'beat-PARG-false'
p27
I0
sS'grease-DOBJ-false'
p28
I0
sS'preheat-DOBJ-true'
p29
I0
sS'beat-PARG-true'
p30
I1
sS'spoon-PARG-false'
p31
I0
sS'line-DOBJ-false'
p32
I0
sS'mix-DOBJ-true'
p33
I0
sS'beat-DOBJPARG-true'
p34
I0
sS'bake-DOBJ-true'
p35
I0
sS'stir-DOBJPARG-false'
p36
I0
sS'spoon-DOBJPARG-false'
p37
I0
sS'blend-PARG-true'
p38
I1
sS'bake-PARG-true'
p39
I1
sS'add-DOBJPARG-true'
p40
I0
sS'stir-DOBJ-true'
p41
I0
sS'mix-PARG-true'
p42
I0
sS'preheat-DOBJPARG-false'
p43
I0
sS'stir-PARG-true'
p44
I1
sS'beat-DOBJ-true'
p45
I0
sS'spoon-PARG-true'
p46
I1
sS'grease-PARG-true'
p47
I0
sS'add-PARG-true'
p48
I0
sS'bake--false'
p49
I0
sS'add-PARG-false'
p50
I0
sS'beat-DOBJPARG-false'
p51
I0
sS'mix-DOBJPARG-true'
p52
I1
sS'blend-DOBJ-true'
p53
I0
sS'line--false'
p54
I0
sS'line-PARG-true'
p55
I1
sS'mix-DOBJPARG-false'
p56
I0
sS'blend-DOBJPARG-true'
p57
I0
sS'beat-DOBJ-false'
p58
I0
sS'spoon-DOBJ-true'
p59
I0
sS'bake-DOBJPARG-true'
p60
I0
sS'mix-PARG-false'
p61
I0
sS'stir--false'
p62
I0
sS'line-PARG-false'
p63
I0
sS'spoon--false'
p64
I0
sS'beat--false'
p65
I0
sS'bake-PARG-false'
p66
I0
sS'preheat-DOBJ-false'
p67
I0
sS'blend--false'
p68
I0
sS'stir-DOBJPARG-true'
p69
I0
sS'line-DOBJ-true'
p70
I0
s.