(dp0
S'decorate-1'
p1
I1
sS'invert-1'
p2
I1
sS'invert-0'
p3
I1
sS'open-0'
p4
I0
sS'plop-0'
p5
I0
sS'use-2'
p6
I27
sS'use-1'
p7
I7
sS'use-0'
p8
I0
sS'flute-2'
p9
I0
sS'flute-0'
p10
I1
sS'flute-1'
p11
I1
sS'decorate-2'
p12
I3
sS'icing-0'
p13
I3
sS'garnish-2'
p14
I31
sS'icing-1'
p15
I0
sS'garnish-0'
p16
I0
sS'garnish-1'
p17
I49
sS'form-2'
p18
I33
sS'form-1'
p19
I33
sS'form-0'
p20
I3
sS'smooth-1'
p21
I9
sS'smooth-0'
p22
I10
sS'tap-2'
p23
I3
sS'smooth-2'
p24
I4
sS'pound-2'
p25
I1
sS'pound-0'
p26
I0
sS'pound-1'
p27
I1
sS'whisk-0'
p28
I0
sS'whisk-1'
p29
I53
sS'whisk-2'
p30
I334
sS'flip-2'
p31
I2
sS'icing-2'
p32
I0
sS'baste-2'
p33
I3
sS'baste-1'
p34
I1
sS'baste-0'
p35
I0
sS'pull-0'
p36
I1
sS'pull-1'
p37
I2
sS'pull-2'
p38
I4
sS'cake-1'
p39
I4
sS'cake-0'
p40
I2
sS'cake-2'
p41
I2
sS'build-1'
p42
I1
sS'spoon-2'
p43
I162
sS'spoon-1'
p44
I45
sS'spoon-0'
p45
I0
sS'arrange-2'
p46
I112
sS'arrange-0'
p47
I1
sS'arrange-1'
p48
I3
sS'shred-2'
p49
I8
sS'shred-0'
p50
I3
sS'shred-1'
p51
I6
sS'crimp-2'
p52
I0
sS'shake-2'
p53
I5
sS'crimp-1'
p54
I1
sS'shake-0'
p55
I1
sS'shake-1'
p56
I21
sS'plop-1'
p57
I0
sS'reserve-2'
p58
I19
sS'flip-1'
p59
I2
sS'reserve-0'
p60
I10
sS'reserve-1'
p61
I24
sS'salt-1'
p62
I1
sS'decorate-0'
p63
I0
sS'salt-2'
p64
I1
sS'prick-1'
p65
I1
sS'prick-0'
p66
I0
sS'prick-2'
p67
I2
sS'cool-2'
p68
I91
sS'split-1'
p69
I2
sS'cool-0'
p70
I76
sS'cool-1'
p71
I80
sS'refrigerate-0'
p72
I32
sS'refrigerate-1'
p73
I127
sS'refrigerate-2'
p74
I96
sS'halve-0'
p75
I0
sS'cheese-0'
p76
I5
sS'line-2'
p77
I38
sS'line-1'
p78
I29
sS'line-0'
p79
I0
sS'sort-1'
p80
I1
sS'sort-0'
p81
I1
sS'sort-2'
p82
I0
sS'grate-1'
p83
I1
sS'grate-0'
p84
I1
sS'grate-2'
p85
I9
sS'cook-1'
p86
I694
sS'cook-0'
p87
I10
sS'cook-2'
p88
I1102
sS'pierce-0'
p89
I0
sS'surround-0'
p90
I0
sS'microwave-2'
p91
I7
sS'microwave-1'
p92
I5
sS'microwave-0'
p93
I0
sS'halve-2'
p94
I1
sS'tuck-2'
p95
I1
sS'heat-2'
p96
I464
sS'heat-1'
p97
I76
sS'heat-0'
p98
I2
sS'render-2'
p99
I1
sS'render-1'
p100
I0
sS'render-0'
p101
I0
sS'loosen-2'
p102
I1
sS'dip-1'
p103
I1
sS'dip-0'
p104
I1
sS'dip-2'
p105
I56
sS'place-1'
p106
I144
sS'place-0'
p107
I8
sS'spray-1'
p108
I6
sS'spray-0'
p109
I2
sS'trim-1'
p110
I3
sS'trim-0'
p111
I0
sS'trim-2'
p112
I4
sS'ready-1'
p113
I2
sS'ready-0'
p114
I0
sS'ready-2'
p115
I3
sS'scrape-2'
p116
I10
sS'turn-0'
p117
I1
sS'turn-1'
p118
I21
sS'turn-2'
p119
I16
sS'pipe-1'
p120
I8
sS'scrape-1'
p121
I3
sS'pipe-2'
p122
I14
sS'flatten-0'
p123
I0
sS'flatten-1'
p124
I3
sS'flatten-2'
p125
I3
sS'clean-0'
p126
I1
sS'keep-0'
p127
I3
sS'coating-0'
p128
I0
sS'fit-2'
p129
I4
sS'fit-1'
p130
I1
sS'keep-1'
p131
I15
sS'cover-1'
p132
I381
sS'cover-0'
p133
I125
sS'ladle-0'
p134
I0
sS'cover-2'
p135
I137
sS'round-0'
p136
I0
sS'round-1'
p137
I1
sS'round-2'
p138
I0
sS'thread-0'
p139
I0
sS'wash-0'
p140
I1
sS'wash-1'
p141
I3
sS'wash-2'
p142
I0
sS'bring-0'
p143
I2
sS'bring-1'
p144
I266
sS'bring-2'
p145
I581
sS'warm-2'
p146
I8
sS'pinch-0'
p147
I0
sS'pinch-1'
p148
I1
sS'pinch-2'
p149
I3
sS'tear-2'
p150
I8
sS'lie-0'
p151
I0
sS'reshape-2'
p152
I1
sS'open-1'
p153
I2
sS'replace-2'
p154
I2
sS'open-2'
p155
I1
sS'broil-0'
p156
I1
sS'broil-1'
p157
I7
sS'broil-2'
p158
I9
sS'blanch-0'
p159
I0
sS'crumble-2'
p160
I47
sS'crumble-0'
p161
I10
sS'crumble-1'
p162
I28
sS'note-2'
p163
I0
sS'wear-0'
p164
I0
sS'wear-1'
p165
I0
sS'wear-2'
p166
I1
sS'lie-1'
p167
I0
sS'grill-0'
p168
I1
sS'grill-1'
p169
I5
sS'grill-2'
p170
I27
sS'make-2'
p171
I36
sS'make-1'
p172
I1
sS'make-0'
p173
I0
sS'wipe-0'
p174
I0
sS'wipe-1'
p175
I1
sS'wipe-2'
p176
I4
sS'scrape-0'
p177
I0
sS'drain-0'
p178
I403
sS'reshape-0'
p179
I0
sS'reshape-1'
p180
I0
sS'lie-2'
p181
I1
sS'warm-1'
p182
I3
sS'muddle-0'
p183
I0
sS'muddle-1'
p184
I0
sS'muddle-2'
p185
I1
sS'knife-2'
p186
I3
sS'knife-1'
p187
I0
sS'knife-0'
p188
I0
sS'blend-1'
p189
I43
sS'blend-0'
p190
I1
sS'blend-2'
p191
I61
sS'flour-0'
p192
I29
sS'flour-1'
p193
I11
sS'flour-2'
p194
I12
sS'oil-2'
p195
I28
sS'oil-0'
p196
I1
sS'oil-1'
p197
I15
sS'warm-0'
p198
I3
sS'twist-1'
p199
I0
sS'twist-0'
p200
I0
sS'twist-2'
p201
I1
sS'gather-2'
p202
I2
sS'gather-0'
p203
I0
sS'gather-1'
p204
I0
sS'pass-2'
p205
I1
sS'pass-0'
p206
I0
sS'pass-1'
p207
I1
sS'drizzle-0'
p208
I1
sS'pulse-2'
p209
I13
sS'pulse-1'
p210
I7
sS'pulse-0'
p211
I0
sS'check-0'
p212
I0
sS'check-1'
p213
I3
sS'check-2'
p214
I4
sS'simmer-0'
p215
I20
sS'simmer-1'
p216
I208
sS'simmer-2'
p217
I155
sS'sauce-2'
p218
I9
sS'taste-1'
p219
I10
sS'taste-0'
p220
I4
sS'toss-2'
p221
I195
sS'taste-2'
p222
I1
sS'reheat-2'
p223
I5
sS'poke-0'
p224
I0
sS'reheat-0'
p225
I0
sS'reheat-1'
p226
I0
sS'overlap-2'
p227
I1
sS'overlap-1'
p228
I0
sS'poke-1'
p229
I0
sS'surround-2'
p230
I1
sS'fill-2'
p231
I139
sS'fill-0'
p232
I0
sS'fill-1'
p233
I11
sS'invert-2'
p234
I3
sS'knead-1'
p235
I0
sS'can-1'
p236
I0
sS'rub-1'
p237
I1
sS'rub-0'
p238
I0
sS'rub-2'
p239
I11
sS'stack-0'
p240
I0
sS'stack-1'
p241
I1
sS'stack-2'
p242
I0
sS'store-2'
p243
I7
sS'store-1'
p244
I4
sS'store-0'
p245
I1
sS'can-2'
p246
I7
sS'canned-0'
p247
I0
sS'canned-1'
p248
I0
sS'canned-2'
p249
I1
sS'braise-1'
p250
I0
sS'lower-2'
p251
I9
sS'lower-1'
p252
I7
sS'lower-0'
p253
I0
sS'pour-2'
p254
I479
sS'pour-1'
p255
I274
sS'pour-0'
p256
I4
sS'work-2'
p257
I4
sS'work-0'
p258
I0
sS'work-1'
p259
I0
sS'shave-0'
p260
I0
sS'scatter-1'
p261
I0
sS'finish-0'
p262
I0
sS'finish-1'
p263
I2
sS'raise-0'
p264
I0
sS'raise-1'
p265
I0
sS'shave-1'
p266
I1
sS'assemble-1'
p267
I0
sS'assemble-0'
p268
I0
sS'assemble-2'
p269
I3
sS'load-1'
p270
I0
sS'shave-2'
p271
I0
sS'top-2'
p272
I113
sS'top-1'
p273
I226
sS'top-0'
p274
I1
sS'break-1'
p275
I4
sS'break-0'
p276
I0
sS'break-2'
p277
I22
sS'preheat-2'
p278
I728
sS'preheat-1'
p279
I9
sS'preheat-0'
p280
I0
sS'load-0'
p281
I0
sS'can-0'
p282
I0
sS'tip-1'
p283
I3
sS'tip-0'
p284
I2
sS'tip-2'
p285
I1
sS'run-1'
p286
I0
sS'loosen-1'
p287
I0
sS'run-2'
p288
I7
sS'leave-1'
p289
I0
sS'leave-0'
p290
I0
sS'leave-2'
p291
I8
sS'stream-2'
p292
I3
sS'adjust-2'
p293
I16
sS'adjust-0'
p294
I3
sS'adjust-1'
p295
I4
sS'season-0'
p296
I2
sS'season-1'
p297
I258
sS'season-2'
p298
I152
sS'test-1'
p299
I0
sS'test-0'
p300
I0
sS'test-2'
p301
I1
sS'fold-0'
p302
I0
sS'fold-1'
p303
I53
sS'fold-2'
p304
I57
sS'thicken-0'
p305
I0
sS'thicken-1'
p306
I0
sS'thicken-2'
p307
I3
sS'crimp-0'
p308
I0
sS'grind-2'
p309
I4
sS'halve-1'
p310
I9
sS'grind-0'
p311
I0
sS'grind-1'
p312
I1
sS'dab-2'
p313
I1
sS'dab-1'
p314
I1
sS'dab-0'
p315
I0
sS'stir-0'
p316
I174
sS'bake-2'
p317
I750
sS'cream-2'
p318
I23
sS'cream-0'
p319
I2
sS'cream-1'
p320
I2
sS'stir-2'
p321
I1072
sS'drizzle-1'
p322
I25
sS'bake-1'
p323
I112
sS'drizzle-2'
p324
I38
sS'seat-1'
p325
I1
sS'process-1'
p326
I14
sS'process-0'
p327
I0
sS'process-2'
p328
I6
sS'poke-2'
p329
I1
sS'boil-2'
p330
I26
sS'boil-1'
p331
I16
sS'boil-0'
p332
I0
sS'drain-1'
p333
I388
sS'enjoy-1'
p334
I1
sS'enjoy-0'
p335
I8
sS'raise-2'
p336
I3
sS'enjoy-2'
p337
I0
sS'throw-0'
p338
I0
sS'throw-1'
p339
I0
sS'throw-2'
p340
I1
sS'loosen-0'
p341
I0
sS'dice-0'
p342
I3
sS'dice-1'
p343
I6
sS'dice-2'
p344
I5
sS'scatter-0'
p345
I0
sS'butter-1'
p346
I17
sS'butter-0'
p347
I6
sS'bake-0'
p348
I3
sS'butter-2'
p349
I16
sS'drain-2'
p350
I143
sS'puree-2'
p351
I12
sS'puree-1'
p352
I10
sS'puree-0'
p353
I1
sS'slide-2'
p354
I2
sS'slide-1'
p355
I1
sS'slide-0'
p356
I0
sS'toast-1'
p357
I3
sS'toast-0'
p358
I0
sS'scatter-2'
p359
I5
sS'toast-2'
p360
I12
sS'return-1'
p361
I116
sS'return-0'
p362
I5
sS'separate-0'
p363
I0
sS'return-2'
p364
I105
sS'mince-1'
p365
I1
sS'mound-2'
p366
I6
sS'moisten-2'
p367
I2
sS'core-0'
p368
I0
sS'separate-2'
p369
I7
sS'core-2'
p370
I0
sS'drop-2'
p371
I6
sS'drop-0'
p372
I0
sS'drop-1'
p373
I4
sS'sauce-1'
p374
I11
sS'tap-1'
p375
I2
sS'tap-0'
p376
I0
sS'sauce-0'
p377
I5
sS'separate-1'
p378
I5
sS'roll-0'
p379
I1
sS'roll-1'
p380
I17
sS'roll-2'
p381
I43
sS'hold-1'
p382
I2
sS'quarter-2'
p383
I0
sS'toss-0'
p384
I13
sS'quarter-0'
p385
I1
sS'quarter-1'
p386
I0
sS'toss-1'
p387
I177
sS'slice-0'
p388
I11
sS'stream-1'
p389
I0
sS'stream-0'
p390
I1
sS'ask-1'
p391
I0
sS'slice-1'
p392
I29
sS'ask-0'
p393
I0
sS'melt-2'
p394
I203
sS'melt-1'
p395
I7
sS'melt-0'
p396
I0
sS'ask-2'
p397
I1
sS'roast-2'
p398
I9
sS'roast-1'
p399
I0
sS'roast-0'
p400
I0
sS'beat-1'
p401
I41
sS'beat-0'
p402
I2
sS'dissolve-2'
p403
I15
sS'beat-2'
p404
I185
sS'peel-2'
p405
I19
sS'peel-1'
p406
I25
sS'peel-0'
p407
I46
sS'swirl-1'
p408
I2
sS'swirl-0'
p409
I0
sS'swirl-2'
p410
I2
sS'dot-0'
p411
I0
sS'dot-2'
p412
I4
sS'hollow-2'
p413
I1
sS'freezing-0'
p414
I0
sS'hollow-0'
p415
I0
sS'hollow-1'
p416
I0
sS'dot-1'
p417
I5
sS'smother-0'
p418
I0
sS'smother-1'
p419
I2
sS'smother-2'
p420
I0
sS'overlap-0'
p421
I0
sS'core-1'
p422
I1
sS'lock-0'
p423
I0
sS'lock-1'
p424
I2
sS'lock-2'
p425
I0
sS'julienne-1'
p426
I0
sS'julienne-0'
p427
I0
sS'julienne-2'
p428
I1
sS'crust-1'
p429
I6
sS'crust-0'
p430
I1
sS'crust-2'
p431
I2
sS'end-1'
p432
I1
sS'end-0'
p433
I0
sS'thaw-1'
p434
I1
sS'position-0'
p435
I0
sS'create-2'
p436
I2
sS'create-1'
p437
I0
sS'create-0'
p438
I0
sS'mince-0'
p439
I2
sS'pare-2'
p440
I1
sS'pare-1'
p441
I0
sS'pare-0'
p442
I0
sS'hold-2'
p443
I5
sS'cut-2'
p444
I154
sS'cut-0'
p445
I6
sS'cut-1'
p446
I44
sS'serve-1'
p447
I204
sS'serve-0'
p448
I114
sS'serve-2'
p449
I95
sS'cube-2'
p450
I2
sS'thaw-0'
p451
I0
sS'cube-0'
p452
I4
sS'cube-1'
p453
I2
sS'empty-2'
p454
I1
sS'empty-1'
p455
I0
sS'empty-0'
p456
I0
sS'chop-1'
p457
I16
sS'chop-0'
p458
I16
sS'surround-1'
p459
I0
sS'chop-2'
p460
I24
sS'measure-2'
p461
I8
sS'measure-0'
p462
I0
sS'measure-1'
p463
I3
sS'layer-1'
p464
I14
sS'flip-0'
p465
I1
sS'layer-0'
p466
I0
sS'mince-2'
p467
I0
sS'remove-2'
p468
I284
sS'remove-1'
p469
I422
sS'remove-0'
p470
I4
sS'hold-0'
p471
I0
sS'shape-2'
p472
I20
sS'shape-1'
p473
I27
sS'shape-0'
p474
I1
sS'dredge-2'
p475
I3
sS'dredge-0'
p476
I0
sS'dredge-1'
p477
I2
sS'salt-0'
p478
I2
sS'thaw-2'
p479
I0
sS'repeat-2'
p480
I41
sS'repeat-0'
p481
I6
sS'repeat-1'
p482
I47
sS'transfer-1'
p483
I77
sS'poach-1'
p484
I1
sS'poach-0'
p485
I0
sS'poach-2'
p486
I2
sS'transfer-2'
p487
I120
sS'scrub-0'
p488
I0
sS'rest-2'
p489
I1
sS'stir-1'
p490
I1147
sS'sift-2'
p491
I27
sS'sift-1'
p492
I0
sS'sift-0'
p493
I0
sS'whip-2'
p494
I4
sS'split-0'
p495
I0
sS'cheese-1'
p496
I1
sS'split-2'
p497
I0
sS'flavor-2'
p498
I1
sS'flavor-1'
p499
I0
sS'flavor-0'
p500
I1
sS'brush-0'
p501
I0
sS'brush-1'
p502
I7
sS'brush-2'
p503
I26
sS'cheese-2'
p504
I5
sS'blanch-1'
p505
I1
sS'scrub-1'
p506
I1
sS'fluff-2'
p507
I3
sS'fluff-1'
p508
I2
sS'fluff-0'
p509
I0
sS'dump-1'
p510
I1
sS'dump-0'
p511
I0
sS'crush-1'
p512
I1
sS'crush-0'
p513
I1
sS'rinse-1'
p514
I26
sS'crush-2'
p515
I4
sS'fry-2'
p516
I34
sS'fry-1'
p517
I16
sS'fry-0'
p518
I0
sS'saute-0'
p519
I1
sS'saute-1'
p520
I29
sS'saute-2'
p521
I103
sS'rest-0'
p522
I1
sS'distribute-2'
p523
I4
sS'distribute-0'
p524
I0
sS'distribute-1'
p525
I0
sS'dry-1'
p526
I2
sS'dry-0'
p527
I1
sS'dry-2'
p528
I2
sS'push-1'
p529
I0
sS'push-0'
p530
I0
sS'discard-2'
p531
I5
sS'push-2'
p532
I9
sS'water-1'
p533
I1
sS'water-0'
p534
I1
sS'water-2'
p535
I3
sS'ensure-1'
p536
I0
sS'ensure-0'
p537
I0
sS'ensure-2'
p538
I1
sS'let-1'
p539
I43
sS'let-0'
p540
I4
sS'let-2'
p541
I238
sS'watch-1'
p542
I1
sS'watch-0'
p543
I0
sS'change-1'
p544
I0
sS'watch-2'
p545
I4
sS'alternate-2'
p546
I3
sS'alternate-0'
p547
I0
sS'alternate-1'
p548
I0
sS'steep-1'
p549
I0
sS'steep-0'
p550
I0
sS'steep-2'
p551
I1
sS'mash-2'
p552
I75
sS'mash-0'
p553
I3
sS'mash-1'
p554
I10
sS'steam-0'
p555
I1
sS'steam-1'
p556
I2
sS'steam-2'
p557
I5
sS'handle-2'
p558
I1
sS'snip-1'
p559
I5
sS'snip-0'
p560
I0
sS'rinse-2'
p561
I19
sS'rinse-0'
p562
I20
sS'reduce-1'
p563
I84
sS'reduce-0'
p564
I1
sS'reduce-2'
p565
I278
sS'combine-1'
p566
I15
sS'combine-0'
p567
I2
sS'combine-2'
p568
I591
sS'braise-0'
p569
I0
sS'knead-2'
p570
I7
sS'increase-1'
p571
I0
sS'increase-0'
p572
I0
sS'increase-2'
p573
I22
sS'tear-1'
p574
I0
sS'pierce-2'
p575
I3
sS'pierce-1'
p576
I1
sS'braise-2'
p577
I1
sS'tilt-0'
p578
I0
sS'tilt-1'
p579
I0
sS'tilt-2'
p580
I2
sS'lift-2'
p581
I4
sS'lift-0'
p582
I0
sS'lift-1'
p583
I1
sS'rest-1'
p584
I0
sS'wrap-1'
p585
I6
sS'wrap-0'
p586
I0
sS'wrap-2'
p587
I14
sS'skim-1'
p588
I0
sS'skim-0'
p589
I0
sS'skim-2'
p590
I6
sS'knead-0'
p591
I0
sS'unwrap-0'
p592
I0
sS'tent-2'
p593
I0
sS'position-1'
p594
I0
sS'seal-2'
p595
I5
sS'seal-0'
p596
I7
sS'seal-1'
p597
I10
sS'tent-0'
p598
I0
sS'seat-2'
p599
I0
sS'seat-0'
p600
I0
sS'tent-1'
p601
I1
sS'add-0'
p602
I5
sS'tuck-0'
p603
I0
sS'whip-1'
p604
I2
sS'whip-0'
p605
I0
sS'position-2'
p606
I1
sS'tuck-1'
p607
I0
sS'discard-0'
p608
I53
sS'discard-1'
p609
I29
sS'align-2'
p610
I1
sS'slice-2'
p611
I50
sS'mound-1'
p612
I1
sS'mound-0'
p613
I0
sS'dissolve-0'
p614
I2
sS'align-0'
p615
I0
sS'dissolve-1'
p616
I1
sS'transfer-0'
p617
I11
sS'prepare-2'
p618
I48
sS'prepare-1'
p619
I7
sS'prepare-0'
p620
I0
sS'scramble-2'
p621
I3
sS'stuff-2'
p622
I4
sS'stuff-0'
p623
I0
sS'stuff-1'
p624
I1
sS'scrub-2'
p625
I0
sS'have-2'
p626
I0
sS'have-1'
p627
I1
sS'have-0'
p628
I0
sS'pick-2'
p629
I5
sS'finish-2'
p630
I5
sS'pick-0'
p631
I0
sS'pick-1'
p632
I0
sS'portion-2'
p633
I1
sS'portion-1'
p634
I0
sS'portion-0'
p635
I0
sS'moisten-0'
p636
I0
sS'crack-2'
p637
I1
sS'crack-0'
p638
I0
sS'crack-1'
p639
I1
sS'scramble-0'
p640
I0
sS'add-2'
p641
I761
sS'add-1'
p642
I501
sS'spray-2'
p643
I57
sS'dunk-1'
p644
I0
sS'dunk-0'
p645
I0
sS'align-1'
p646
I0
sS'dunk-2'
p647
I2
sS'place-2'
p648
I853
sS'crumb-1'
p649
I0
sS'crumb-0'
p650
I0
sS'moisten-1'
p651
I0
sS'crumb-2'
p652
I1
sS'pack-2'
p653
I7
sS'pack-0'
p654
I0
sS'pack-1'
p655
I3
sS'start-0'
p656
I0
sS'start-1'
p657
I2
sS'start-2'
p658
I4
sS'unwrap-2'
p659
I0
sS'scramble-1'
p660
I0
sS'spread-2'
p661
I256
sS'spread-0'
p662
I3
sS'spread-1'
p663
I56
sS'set-2'
p664
I134
sS'set-0'
p665
I43
sS'set-1'
p666
I278
sS'blanch-2'
p667
I1
sS'uncover-0'
p668
I5
sS'uncover-1'
p669
I14
sS'uncover-2'
p670
I1
sS'change-2'
p671
I1
sS'change-0'
p672
I0
sS'divide-0'
p673
I1
sS'divide-1'
p674
I8
sS'divide-2'
p675
I55
sS'soak-0'
p676
I0
sS'chill-2'
p677
I55
sS'chill-0'
p678
I26
sS'chill-1'
p679
I51
sS'dust-1'
p680
I4
sS'sprinkle-2'
p681
I250
sS'sprinkle-1'
p682
I213
sS'sprinkle-0'
p683
I0
sS'makes-1'
p684
I1
sS'makes-0'
p685
I0
sS'makes-2'
p686
I0
sS'follow-0'
p687
I0
sS'follow-1'
p688
I1
sS'follow-2'
p689
I3
sS'insert-0'
p690
I0
sS'insert-1'
p691
I0
sS'insert-2'
p692
I3
sS'dust-0'
p693
I0
sS'build-0'
p694
I0
sS'unwrap-1'
p695
I1
sS'build-2'
p696
I1
sS'reposition-1'
p697
I1
sS'reposition-0'
p698
I0
sS'reposition-2'
p699
I0
sS'coating-1'
p700
I5
sS'thread-2'
p701
I1
sS'thread-1'
p702
I0
sS'pipe-0'
p703
I0
sS'note-1'
p704
I2
sS'note-0'
p705
I6
sS'replace-0'
p706
I0
sS'replace-1'
p707
I1
sS'clean-2'
p708
I1
sS'dust-2'
p709
I8
sS'clean-1'
p710
I0
sS'served-0'
p711
I0
sS'served-1'
p712
I0
sS'served-2'
p713
I5
sS'freezing-1'
p714
I1
sS'plop-2'
p715
I1
sS'freezing-2'
p716
I0
sS'scoop-0'
p717
I0
sS'scoop-1'
p718
I8
sS'scoop-2'
p719
I38
sS'allow-2'
p720
I120
sS'allow-1'
p721
I36
sS'allow-0'
p722
I3
sS'fit-0'
p723
I0
sS'plunge-0'
p724
I0
sS'ladle-2'
p725
I19
sS'plunge-1'
p726
I0
sS'put-1'
p727
I3
sS'put-0'
p728
I0
sS'put-2'
p729
I22
sS'ladle-1'
p730
I4
sS'handle-1'
p731
I0
sS'handle-0'
p732
I0
sS'freeze-2'
p733
I0
sS'freeze-0'
p734
I3
sS'freeze-1'
p735
I2
sS'grease-2'
p736
I86
sS'layer-2'
p737
I48
sS'grease-0'
p738
I6
sS'grease-1'
p739
I136
sS'unroll-2'
p740
I2
sS'unroll-1'
p741
I1
sS'unroll-0'
p742
I0
sS'continue-2'
p743
I96
sS'continue-0'
p744
I0
sS'continue-1'
p745
I18
sS'move-2'
p746
I1
sS'dump-2'
p747
I1
sS'move-0'
p748
I0
sS'move-1'
p749
I2
sS'lay-0'
p750
I0
sS'lay-1'
p751
I2
sS'lay-2'
p752
I29
sS'soak-2'
p753
I22
sS'soak-1'
p754
I1
sS'load-2'
p755
I1
sS'decrease-1'
p756
I0
sS'decrease-0'
p757
I0
sS'decrease-2'
p758
I1
sS'marinate-2'
p759
I17
sS'marinate-0'
p760
I0
sS'marinate-1'
p761
I2
sS'begin-2'
p762
I10
sS'begin-1'
p763
I3
sS'begin-0'
p764
I0
sS'frost-2'
p765
I6
sS'frost-0'
p766
I2
sS'frost-1'
p767
I6
sS'coating-2'
p768
I1
sS'snip-2'
p769
I5
sS'run-0'
p770
I0
sS'crumple-0'
p771
I0
sS'crumple-1'
p772
I1
sS'crumple-2'
p773
I1
sS'whirl-0'
p774
I0
sS'whirl-1'
p775
I1
sS'whirl-2'
p776
I0
sS'strain-0'
p777
I1
sS'strain-1'
p778
I2
sS'strain-2'
p779
I3
sS'mix-0'
p780
I14
sS'mix-1'
p781
I334
sS'mix-2'
p782
I764
sS'coat-0'
p783
I2
sS'coat-1'
p784
I10
sS'coat-2'
p785
I26
sS'take-0'
p786
I0
sS'take-1'
p787
I2
sS'take-2'
p788
I4
sS'tear-0'
p789
I0
sS'squeeze-2'
p790
I11
sS'squeeze-0'
p791
I1
sS'squeeze-1'
p792
I7
sS'brown-0'
p793
I3
sS'brown-1'
p794
I37
sS'brown-2'
p795
I122
sS'press-1'
p796
I18
sS'press-0'
p797
I1
sS'press-2'
p798
I49
sS'plunge-2'
p799
I2
sS'best-2'
p800
I1
sS'best-1'
p801
I1
sS'best-0'
p802
I0
sS'keep-2'
p803
I7
sS'end-2'
p804
I1
sS'pat-1'
p805
I7
sS'pat-0'
p806
I0
sS'pat-2'
p807
I22
s.(dp0
S'dip-2-location'
p1
I0
sS'dump-2-food-location'
p2
I1
sS'crumb-1-food'
p3
I0
sS'use-2-location'
p4
I2
sS'moisten-1-location'
p5
I0
sS'spoon-2-food-location'
p6
I8
sS'toast-2-location'
p7
I0
sS'braise-2-food-location'
p8
I0
sS'flour-2-location'
p9
I0
sS'icing-2-location'
p10
I0
sS'dip-2-food'
p11
I9
sS'cream-1-location'
p12
I0
sS'thicken-2-food-location'
p13
I0
sS'cover-2-food'
p14
I3
sS'slide-1-food'
p15
I0
sS'have-1-food'
p16
I0
sS'finish-1-location'
p17
I1
sS'separate-1-location'
p18
I1
sS'chop-1-location'
p19
I0
sS'sprinkle-1-food'
p20
I130
sS'muddle-1-food'
p21
I0
sS'ask-2-food'
p22
I0
sS'allow-1-food'
p23
I1
sS'position-2-food-location'
p24
I0
sS'decorate-2-food'
p25
I0
sS'dunk-2-location'
p26
I0
sS'layer-1-food'
p27
I7
sS'pinch-2-location'
p28
I0
sS'cover-1-food'
p29
I52
sS'brush-2-food'
p30
I1
sS'knife-1-location'
p31
I0
sS'taste-1-location'
p32
I0
sS'cut-1-location'
p33
I1
sS'measure-1-food'
p34
I1
sS'whip-1-food'
p35
I0
sS'hollow-2-location'
p36
I0
sS'open-2-food-location'
p37
I0
sS'peel-2-food-location'
p38
I0
sS'crust-2-food-location'
p39
I0
sS'sift-1-location'
p40
I0
sS'sauce-1-food'
p41
I2
sS'lie-2-food'
p42
I0
sS'enjoy-2-food-location'
p43
I0
sS'whisk-2-location'
p44
I0
sS'increase-1-location'
p45
I0
sS'shave-2-food'
p46
I0
sS'enjoy-1-location'
p47
I0
sS'cut-2-location'
p48
I0
sS'drop-2-location'
p49
I0
sS'icing-1-location'
p50
I0
sS'pare-1-location'
p51
I0
sS'distribute-2-food'
p52
I1
sS'drizzle-2-food'
p53
I1
sS'add-1-location'
p54
I14
sS'snip-2-food-location'
p55
I0
sS'fit-2-food'
p56
I0
sS'cube-1-location'
p57
I0
sS'keep-2-location'
p58
I0
sS'slide-2-location'
p59
I0
sS'finish-1-food'
p60
I0
sS'salt-1-food'
p61
I0
sS'crust-2-food'
p62
I0
sS'can-1-location'
p63
I0
sS'repeat-2-food-location'
p64
I0
sS'shape-2-food-location'
p65
I0
sS'reserve-1-food'
p66
I6
sS'lie-1-location'
p67
I0
sS'soak-1-location'
p68
I0
sS'cake-2-location'
p69
I0
sS'fill-2-location'
p70
I0
sS'trim-2-food-location'
p71
I0
sS'fry-1-location'
p72
I0
sS'smooth-1-location'
p73
I0
sS'heat-1-food'
p74
I6
sS'assemble-2-location'
p75
I0
sS'seal-2-location'
p76
I0
sS'increase-2-food-location'
p77
I0
sS'microwave-2-food'
p78
I0
sS'sprinkle-2-food-location'
p79
I11
sS'scatter-1-food'
p80
I0
sS'use-2-food-location'
p81
I0
sS'wear-2-food-location'
p82
I0
sS'can-2-food'
p83
I0
sS'moisten-2-food'
p84
I0
sS'open-1-food'
p85
I1
sS'crimp-2-location'
p86
I0
sS'moisten-2-food-location'
p87
I0
sS'throw-1-location'
p88
I0
sS'test-2-food-location'
p89
I0
sS'have-1-location'
p90
I0
sS'test-1-location'
p91
I0
sS'ready-2-food'
p92
I0
sS'grate-2-location'
p93
I0
sS'cool-2-food-location'
p94
I0
sS'move-2-food-location'
p95
I0
sS'lower-1-food'
p96
I0
sS'throw-2-location'
p97
I0
sS'scoop-2-food'
p98
I1
sS'let-2-food-location'
p99
I0
sS'fold-1-food'
p100
I31
sS'combine-2-location'
p101
I2
sS'reserve-2-food-location'
p102
I4
sS'prick-2-food-location'
p103
I0
sS'pour-2-food'
p104
I43
sS'reserve-2-food'
p105
I0
sS'water-1-location'
p106
I0
sS'freeze-2-food-location'
p107
I0
sS'end-2-location'
p108
I0
sS'hollow-2-food-location'
p109
I1
sS'wash-2-food-location'
p110
I0
sS'steep-2-food'
p111
I0
sS'tap-2-food-location'
p112
I0
sS'broil-2-food-location'
p113
I2
sS'seat-1-location'
p114
I0
sS'set-1-food'
p115
I0
sS'dip-1-food'
p116
I0
sS'cool-2-location'
p117
I0
sS'dunk-2-food-location'
p118
I0
sS'discard-2-location'
p119
I0
sS'salt-2-location'
p120
I0
sS'reshape-1-food'
p121
I0
sS'beat-2-food-location'
p122
I102
sS'fit-2-location'
p123
I1
sS'whirl-2-food'
p124
I0
sS'reserve-2-location'
p125
I1
sS'portion-1-location'
p126
I0
sS'repeat-1-food'
p127
I7
sS'split-1-location'
p128
I0
sS'align-2-food-location'
p129
I0
sS'blanch-1-food'
p130
I0
sS'end-2-food'
p131
I0
sS'serve-2-location'
p132
I0
sS'grind-1-food'
p133
I0
sS'tilt-2-location'
p134
I0
sS'flour-1-food'
p135
I1
sS'cook-2-location'
p136
I2
sS'pipe-2-food'
p137
I0
sS'scramble-1-location'
p138
I0
sS'discard-2-food-location'
p139
I0
sS'snip-1-food'
p140
I0
sS'invert-1-food'
p141
I0
sS'change-1-location'
p142
I0
sS'poke-1-food'
p143
I0
sS'mound-1-location'
p144
I0
sS'bring-2-location'
p145
I0
sS'dust-1-food'
p146
I4
sS'twist-1-location'
p147
I0
sS'microwave-1-food'
p148
I2
sS'quarter-2-location'
p149
I0
sS'crack-2-location'
p150
I0
sS'serve-2-food-location'
p151
I2
sS'sort-2-location'
p152
I0
sS'mash-2-food'
p153
I2
sS'pinch-1-food'
p154
I0
sS'adjust-2-food'
p155
I1
sS'leave-2-food'
p156
I0
sS'round-2-food'
p157
I0
sS'whisk-2-food-location'
p158
I218
sS'scrub-1-location'
p159
I0
sS'pick-2-food-location'
p160
I0
sS'reduce-2-location'
p161
I0
sS'divide-1-food'
p162
I1
sS'assemble-2-food-location'
p163
I0
sS'end-2-food-location'
p164
I0
sS'rub-1-food'
p165
I0
sS'create-2-food'
p166
I0
sS'swirl-1-location'
p167
I1
sS'soak-1-food'
p168
I0
sS'lie-1-food'
p169
I0
sS'season-2-food-location'
p170
I2
sS'coating-2-food'
p171
I1
sS'thread-1-food'
p172
I0
sS'dice-2-location'
p173
I0
sS'ladle-2-food'
p174
I0
sS'smother-2-food-location'
p175
I0
sS'handle-2-food'
p176
I0
sS'sort-1-location'
p177
I0
sS'take-1-food'
p178
I0
sS'cube-2-food'
p179
I0
sS'break-1-location'
p180
I0
sS'rest-1-location'
p181
I0
sS'toast-1-food'
p182
I1
sS'press-2-location'
p183
I1
sS'flavor-2-location'
p184
I0
sS'rinse-2-location'
p185
I0
sS'best-2-location'
p186
I0
sS'stack-1-location'
p187
I0
sS'invert-1-location'
p188
I1
sS'best-2-food-location'
p189
I0
sS'tent-1-food'
p190
I0
sS'whisk-1-food'
p191
I32
sS'chop-2-location'
p192
I0
sS'dust-2-food'
p193
I1
sS'brush-2-location'
p194
I0
sS'mince-2-food-location'
p195
I0
sS'slice-2-food-location'
p196
I1
sS'coat-1-location'
p197
I0
sS'season-1-food'
p198
I215
sS'prick-1-food'
p199
I0
sS'note-2-food-location'
p200
I0
sS'tear-2-location'
p201
I0
sS'lay-1-location'
p202
I0
sS'fluff-1-location'
p203
I2
sS'poach-2-food'
p204
I0
sS'scoop-1-location'
p205
I4
sS'ladle-2-food-location'
p206
I0
sS'smooth-1-food'
p207
I0
sS'thicken-2-food'
p208
I0
sS'follow-1-food'
p209
I0
sS'preheat-2-food-location'
p210
I1
sS'handle-2-food-location'
p211
I0
sS'moisten-1-food'
p212
I0
sS'put-1-food'
p213
I1
sS'thaw-2-food-location'
p214
I0
sS'sprinkle-1-location'
p215
I17
sS'marinate-2-location'
p216
I0
sS'halve-2-food-location'
p217
I1
sS'dry-1-food'
p218
I0
sS'squeeze-1-food'
p219
I4
sS'thaw-1-location'
p220
I0
sS'unwrap-1-location'
p221
I0
sS'unwrap-2-location'
p222
I0
sS'wrap-1-location'
p223
I0
sS'season-2-food'
p224
I18
sS'freezing-1-location'
p225
I0
sS'toast-2-food-location'
p226
I2
sS'end-1-location'
p227
I0
sS'reduce-1-food'
p228
I0
sS'prick-1-location'
p229
I0
sS'flatten-2-location'
p230
I0
sS'braise-2-location'
p231
I0
sS'snip-2-food'
p232
I0
sS'marinate-1-food'
p233
I0
sS'coating-2-location'
p234
I0
sS'thread-1-location'
p235
I0
sS'continue-1-food'
p236
I0
sS'assemble-1-location'
p237
I0
sS'turn-1-food'
p238
I0
sS'stuff-2-food'
p239
I0
sS'pick-2-location'
p240
I0
sS'pierce-2-food'
p241
I0
sS'boil-2-location'
p242
I0
sS'pipe-2-food-location'
p243
I0
sS'tear-1-location'
p244
I0
sS'serve-2-food'
p245
I1
sS'cover-2-food-location'
p246
I6
sS'dump-1-location'
p247
I1
sS'grease-2-food-location'
p248
I8
sS'position-2-food'
p249
I0
sS'chill-2-location'
p250
I0
sS'salt-2-food'
p251
I0
sS'increase-2-location'
p252
I0
sS'align-2-location'
p253
I0
sS'chill-2-food-location'
p254
I0
sS'crumble-2-food-location'
p255
I25
sS'dry-2-food-location'
p256
I0
sS'crumple-1-food'
p257
I1
sS'hold-1-food'
p258
I0
sS'gather-2-location'
p259
I0
sS'dip-2-food-location'
p260
I0
sS'oil-1-food'
p261
I0
sS'pierce-2-food-location'
p262
I1
sS'grill-2-food-location'
p263
I0
sS'allow-2-food'
p264
I1
sS'pour-2-food-location'
p265
I67
sS'beat-2-food'
p266
I22
sS'dust-2-food-location'
p267
I0
sS'pull-2-food-location'
p268
I0
sS'crust-2-location'
p269
I0
sS'prepare-2-location'
p270
I0
sS'spoon-2-food'
p271
I3
sS'flavor-1-location'
p272
I0
sS'squeeze-2-food'
p273
I0
sS'trim-2-location'
p274
I0
sS'turn-1-location'
p275
I2
sS'coat-1-food'
p276
I3
sS'crumble-1-food'
p277
I8
sS'store-1-location'
p278
I0
sS'shake-1-location'
p279
I0
sS'crumb-2-food'
p280
I0
sS'insert-2-food'
p281
I0
sS'enjoy-2-food'
p282
I0
sS'smother-2-food'
p283
I0
sS'brush-1-food'
p284
I4
sS'prick-2-location'
p285
I0
sS'grease-1-food'
p286
I1
sS'toss-2-food'
p287
I15
sS'lower-1-location'
p288
I0
sS'crush-2-location'
p289
I0
sS'taste-2-food'
p290
I0
sS'combine-2-food-location'
p291
I450
sS'stack-1-food'
p292
I0
sS'pound-2-food'
p293
I0
sS'drizzle-1-food'
p294
I15
sS'chop-2-food'
p295
I3
sS'fluff-2-location'
p296
I0
sS'shred-2-food-location'
p297
I2
sS'dissolve-2-food'
p298
I8
sS'beat-1-location'
p299
I0
sS'reshape-2-food'
p300
I0
sS'sprinkle-2-food'
p301
I27
sS'end-1-food'
p302
I0
sS'baste-2-food'
p303
I0
sS'make-2-food'
p304
I2
sS'crack-1-location'
p305
I0
sS'seal-1-location'
p306
I0
sS'decrease-2-food-location'
p307
I0
sS'boil-2-food'
p308
I2
sS'reposition-2-location'
p309
I0
sS'press-2-food-location'
p310
I6
sS'heat-2-food'
p311
I3
sS'dredge-2-location'
p312
I0
sS'watch-2-food-location'
p313
I0
sS'loosen-1-food'
p314
I0
sS'distribute-2-food-location'
p315
I0
sS'run-2-food-location'
p316
I0
sS'round-1-food'
p317
I0
sS'keep-2-food'
p318
I0
sS'crimp-1-food'
p319
I0
sS'divide-2-location'
p320
I1
sS'store-2-food-location'
p321
I0
sS'tip-2-food-location'
p322
I0
sS'icing-1-food'
p323
I0
sS'work-2-food'
p324
I0
sS'canned-2-location'
p325
I0
sS'cheese-2-food'
p326
I2
sS'discard-1-location'
p327
I3
sS'roll-2-location'
p328
I0
sS'process-1-food'
p329
I1
sS'slide-2-food-location'
p330
I0
sS'grind-2-location'
p331
I0
sS'decorate-1-location'
p332
I0
sS'continue-2-food'
p333
I0
sS'reheat-2-food-location'
p334
I0
sS'stack-2-food'
p335
I0
sS'ladle-2-location'
p336
I0
sS'tap-2-location'
p337
I0
sS'clean-1-location'
p338
I0
sS'scramble-2-location'
p339
I0
sS'move-1-location'
p340
I1
sS'garnish-2-food-location'
p341
I1
sS'microwave-1-location'
p342
I0
sS'cheese-2-food-location'
p343
I1
sS'cream-2-location'
p344
I0
sS'wash-2-food'
p345
I0
sS'knead-1-location'
p346
I0
sS'repeat-1-location'
p347
I2
sS'crumble-2-location'
p348
I1
sS'ensure-2-food-location'
p349
I0
sS'pulse-2-food'
p350
I0
sS'served-2-food'
p351
I0
sS'can-1-food'
p352
I0
sS'test-2-food'
p353
I0
sS'remove-1-food'
p354
I23
sS'swirl-1-food'
p355
I0
sS'pull-2-food'
p356
I0
sS'drizzle-2-location'
p357
I0
sS'soak-2-food-location'
p358
I5
sS'baste-2-location'
p359
I0
sS'tuck-2-food'
p360
I0
sS'seat-2-location'
p361
I0
sS'mix-2-food'
p362
I98
sS'transfer-2-location'
p363
I2
sS'render-2-food-location'
p364
I1
sS'skim-1-location'
p365
I0
sS'crust-1-location'
p366
I0
sS'poach-2-food-location'
p367
I1
sS'dredge-2-food-location'
p368
I0
sS'let-2-location'
p369
I0
sS'drop-1-location'
p370
I0
sS'freezing-2-food-location'
p371
I0
sS'position-1-food'
p372
I0
sS'chop-1-food'
p373
I5
sS'cream-2-food-location'
p374
I14
sS'thicken-2-location'
p375
I0
sS'tent-1-location'
p376
I0
sS'scoop-2-location'
p377
I0
sS'microwave-2-food-location'
p378
I0
sS'cube-2-location'
p379
I0
sS'return-2-food-location'
p380
I31
sS'store-2-food'
p381
I0
sS'crumple-2-food-location'
p382
I0
sS'unroll-2-food-location'
p383
I0
sS'strain-1-food'
p384
I1
sS'reduce-2-food-location'
p385
I0
sS'simmer-2-food-location'
p386
I2
sS'muddle-2-food-location'
p387
I0
sS'crust-1-food'
p388
I0
sS'mound-2-food'
p389
I1
sS'ready-2-location'
p390
I0
sS'poach-2-location'
p391
I0
sS'lower-2-location'
p392
I0
sS'remove-2-food'
p393
I10
sS'hollow-1-location'
p394
I0
sS'shave-2-location'
p395
I0
sS'tilt-1-food'
p396
I0
sS'shave-2-food-location'
p397
I0
sS'boil-2-food-location'
p398
I7
sS'strain-2-food'
p399
I0
sS'pare-2-food'
p400
I0
sS'stuff-1-food'
p401
I0
sS'cool-2-food'
p402
I2
sS'load-1-location'
p403
I0
sS'dab-2-location'
p404
I0
sS'muddle-2-location'
p405
I0
sS'boil-1-food'
p406
I1
sS'frost-2-food-location'
p407
I0
sS'discard-2-food'
p408
I0
sS'broil-2-location'
p409
I0
sS'frost-2-food'
p410
I1
sS'alternate-1-food'
p411
I0
sS'loosen-2-food'
p412
I0
sS'unwrap-2-food'
p413
I0
sS'tilt-2-food-location'
p414
I0
sS'crumple-2-location'
p415
I0
sS'loosen-2-food-location'
p416
I0
sS'mince-2-food'
p417
I0
sS'remove-2-location'
p418
I12
sS'cheese-2-location'
p419
I0
sS'tuck-1-location'
p420
I0
sS'grind-1-location'
p421
I0
sS'pulse-2-location'
p422
I0
sS'spray-1-location'
p423
I0
sS'dredge-1-food'
p424
I1
sS'assemble-2-food'
p425
I2
sS'slice-1-food'
p426
I12
sS'ready-1-food'
p427
I0
sS'drain-2-food-location'
p428
I17
sS'butter-2-food-location'
p429
I2
sS'repeat-2-food'
p430
I1
sS'whisk-2-food'
p431
I42
sS'add-2-location'
p432
I5
sS'rinse-2-food'
p433
I1
sS'lower-2-food-location'
p434
I1
sS'cook-1-location'
p435
I0
sS'core-1-food'
p436
I0
sS'allow-2-food-location'
p437
I1
sS'portion-1-food'
p438
I0
sS'portion-2-location'
p439
I0
sS'raise-2-location'
p440
I0
sS'oil-2-location'
p441
I0
sS'fold-2-location'
p442
I0
sS'replace-2-location'
p443
I0
sS'wipe-1-location'
p444
I1
sS'crumple-1-location'
p445
I0
sS'garnish-2-food'
p446
I1
sS'reduce-1-location'
p447
I0
sS'dice-1-food'
p448
I4
sS'spread-2-food-location'
p449
I28
sS'wipe-2-food'
p450
I0
sS'wipe-2-location'
p451
I0
sS'flavor-1-food'
p452
I0
sS'dissolve-2-food-location'
p453
I2
sS'pulse-2-food-location'
p454
I0
sS'smooth-2-food'
p455
I0
sS'align-2-food'
p456
I0
sS'measure-1-location'
p457
I0
sS'empty-2-location'
p458
I0
sS'roast-2-food'
p459
I0
sS'move-2-food'
p460
I0
sS'overlap-1-food'
p461
I0
sS'fill-2-food-location'
p462
I30
sS'work-2-food-location'
p463
I0
sS'served-1-food'
p464
I0
sS'dry-2-food'
p465
I0
sS'decrease-1-location'
p466
I0
sS'begin-2-location'
p467
I0
sS'crush-1-food'
p468
I0
sS'raise-2-food-location'
p469
I0
sS'pare-2-location'
p470
I0
sS'pound-2-location'
p471
I0
sS'press-1-food'
p472
I0
sS'separate-1-food'
p473
I3
sS'makes-1-location'
p474
I0
sS'plop-2-food-location'
p475
I0
sS'whip-2-location'
p476
I0
sS'form-2-location'
p477
I0
sS'season-1-location'
p478
I1
sS'shake-2-location'
p479
I0
sS'build-1-location'
p480
I0
sS'top-2-food-location'
p481
I6
sS'change-1-food'
p482
I0
sS'plop-1-location'
p483
I0
sS'pass-1-food'
p484
I1
sS'make-1-food'
p485
I0
sS'mix-2-food-location'
p486
I393
sS'dump-2-location'
p487
I0
sS'raise-1-food'
p488
I0
sS'pass-2-food'
p489
I0
sS'hold-2-food'
p490
I0
sS'split-2-location'
p491
I0
sS'cool-1-location'
p492
I0
sS'lock-1-location'
p493
I1
sS'increase-2-food'
p494
I0
sS'grate-2-food-location'
p495
I3
sS'separate-2-food'
p496
I0
sS'unroll-2-food'
p497
I0
sS'boil-1-location'
p498
I0
sS'tuck-2-location'
p499
I0
sS'dump-1-food'
p500
I0
sS'refrigerate-1-food'
p501
I2
sS'thaw-1-food'
p502
I0
sS'dissolve-1-location'
p503
I1
sS'crumble-2-food'
p504
I0
sS'sort-2-food-location'
p505
I0
sS'pipe-2-location'
p506
I0
sS'trim-1-location'
p507
I0
sS'dust-2-location'
p508
I0
sS'shake-2-food'
p509
I1
sS'sift-1-food'
p510
I0
sS'poach-1-food'
p511
I0
sS'whirl-1-location'
p512
I0
sS'fold-2-food-location'
p513
I0
sS'ask-1-location'
p514
I0
sS'cake-1-location'
p515
I0
sS'start-2-location'
p516
I0
sS'assemble-1-food'
p517
I0
sS'pinch-1-location'
p518
I0
sS'use-2-food'
p519
I0
sS'pass-1-location'
p520
I0
sS'empty-2-food'
p521
I0
sS'insert-2-food-location'
p522
I0
sS'roast-2-food-location'
p523
I3
sS'dissolve-2-location'
p524
I0
sS'sift-2-food-location'
p525
I12
sS'hollow-1-food'
p526
I0
sS'put-2-food-location'
p527
I6
sS'grease-1-location'
p528
I127
sS'run-1-location'
p529
I0
sS'gather-1-location'
p530
I0
sS'whip-1-location'
p531
I0
sS'stream-1-location'
p532
I0
sS'dip-1-location'
p533
I0
sS'lie-2-food-location'
p534
I0
sS'replace-2-food-location'
p535
I0
sS'flute-1-location'
p536
I0
sS'grill-1-location'
p537
I0
sS'clean-2-food-location'
p538
I0
sS'layer-2-food-location'
p539
I12
sS'oil-2-food'
p540
I1
sS'shape-1-location'
p541
I1
sS'decorate-1-food'
p542
I0
sS'mince-1-food'
p543
I0
sS'gather-2-food'
p544
I0
sS'squeeze-2-food-location'
p545
I0
sS'fit-1-food'
p546
I0
sS'spray-2-food'
p547
I0
sS'test-2-location'
p548
I0
sS'shake-2-food-location'
p549
I1
sS'have-2-location'
p550
I0
sS'skim-2-food'
p551
I0
sS'scoop-1-food'
p552
I0
sS'simmer-2-food'
p553
I1
sS'ensure-2-food'
p554
I0
sS'flatten-1-location'
p555
I0
sS'follow-2-food-location'
p556
I0
sS'tap-2-food'
p557
I0
sS'form-2-food-location'
p558
I0
sS'pull-1-location'
p559
I0
sS'trim-1-food'
p560
I0
sS'check-2-food-location'
p561
I0
sS'pack-2-location'
p562
I1
sS'add-2-food'
p563
I252
sS'butter-2-location'
p564
I0
sS'baste-1-location'
p565
I1
sS'freeze-1-food'
p566
I0
sS'shape-2-food'
p567
I0
sS'braise-1-food'
p568
I0
sS'plunge-1-food'
p569
I0
sS'pick-1-location'
p570
I0
sS'swirl-2-location'
p571
I0
sS'wipe-1-food'
p572
I0
sS'saute-2-location'
p573
I0
sS'shave-1-location'
p574
I0
sS'handle-1-location'
p575
I0
sS'turn-2-location'
p576
I0
sS'replace-2-food'
p577
I0
sS'load-2-food-location'
p578
I0
sS'portion-2-food'
p579
I0
sS'thread-2-food-location'
p580
I0
sS'sauce-2-food'
p581
I1
sS'sauce-2-food-location'
p582
I0
sS'strain-2-location'
p583
I0
sS'reheat-2-food'
p584
I0
sS'cube-1-food'
p585
I1
sS'cube-2-food-location'
p586
I0
sS'reposition-2-food-location'
p587
I0
sS'dice-2-food-location'
p588
I0
sS'grease-2-food'
p589
I0
sS'mash-2-food-location'
p590
I9
sS'decrease-2-food'
p591
I0
sS'flatten-1-food'
p592
I0
sS'brown-1-food'
p593
I2
sS'surround-2-food-location'
p594
I0
sS'begin-1-food'
p595
I1
sS'round-1-location'
p596
I0
sS'run-2-food'
p597
I1
sS'heat-2-food-location'
p598
I178
sS'preheat-1-food'
p599
I0
sS'saute-1-food'
p600
I9
sS'twist-2-food'
p601
I0
sS'simmer-1-location'
p602
I1
sS'mince-2-location'
p603
I0
sS'stream-2-food-location'
p604
I0
sS'bring-2-food-location'
p605
I32
sS'create-2-food-location'
p606
I0
sS'decrease-1-food'
p607
I0
sS'pat-2-location'
p608
I0
sS'begin-2-food'
p609
I0
sS'refrigerate-1-location'
p610
I0
sS'dissolve-1-food'
p611
I0
sS'alternate-2-food-location'
p612
I1
sS'tap-1-location'
p613
I0
sS'push-1-location'
p614
I0
sS'flour-2-food'
p615
I4
sS'pierce-1-food'
p616
I0
sS'drop-2-food-location'
p617
I0
sS'heat-2-location'
p618
I8
sS'grill-1-food'
p619
I2
sS'taste-2-food-location'
p620
I0
sS'toss-2-food-location'
p621
I72
sS'return-2-location'
p622
I5
sS'shake-1-food'
p623
I1
sS'strain-1-location'
p624
I1
sS'knife-2-location'
p625
I0
sS'cut-2-food-location'
p626
I2
sS'dredge-2-food'
p627
I2
sS'bake-2-food-location'
p628
I25
sS'crumb-2-food-location'
p629
I0
sS'scrape-1-location'
p630
I1
sS'swirl-2-food-location'
p631
I1
sS'hollow-2-food'
p632
I0
sS'garnish-2-location'
p633
I0
sS'knead-2-food'
p634
I0
sS'coating-1-location'
p635
I0
sS'thread-2-location'
p636
I0
sS'watch-2-location'
p637
I0
sS'snip-1-location'
p638
I0
sS'icing-2-food-location'
p639
I0
sS'pound-2-food-location'
p640
I0
sS'alternate-1-location'
p641
I0
sS'flavor-2-food'
p642
I0
sS'roast-1-location'
p643
I0
sS'can-2-location'
p644
I0
sS'fold-1-location'
p645
I0
sS'blanch-1-location'
p646
I0
sS'blanch-2-location'
p647
I0
sS'oil-2-food-location'
p648
I4
sS'tear-2-food-location'
p649
I0
sS'pinch-2-food-location'
p650
I0
sS'shave-1-food'
p651
I0
sS'puree-2-location'
p652
I0
sS'core-2-location'
p653
I0
sS'work-1-food'
p654
I0
sS'flour-1-location'
p655
I6
sS'lift-2-food'
p656
I0
sS'turn-2-food-location'
p657
I2
sS'dab-2-food-location'
p658
I0
sS'top-2-food'
p659
I12
sS'invert-2-location'
p660
I0
sS'pierce-2-location'
p661
I0
sS'empty-2-food-location'
p662
I1
sS'broil-1-location'
p663
I0
sS'split-1-food'
p664
I1
sS'steep-1-food'
p665
I0
sS'align-1-location'
p666
I0
sS'lay-1-food'
p667
I0
sS'reposition-1-location'
p668
I0
sS'season-2-location'
p669
I0
sS'seat-2-food-location'
p670
I0
sS'dab-1-food'
p671
I0
sS'remove-1-location'
p672
I69
sS'warm-1-location'
p673
I0
sS'muddle-1-location'
p674
I0
sS'shape-2-location'
p675
I0
sS'check-1-food'
p676
I0
sS'let-1-food'
p677
I6
sS'raise-2-food'
p678
I0
sS'sort-2-food'
p679
I0
sS'keep-1-location'
p680
I1
sS'halve-2-location'
p681
I0
sS'wrap-2-location'
p682
I0
sS'smother-1-food'
p683
I0
sS'refrigerate-2-food'
p684
I0
sS'soak-2-food'
p685
I4
sS'create-2-location'
p686
I0
sS'wash-1-food'
p687
I2
sS'unwrap-2-food-location'
p688
I0
sS'refrigerate-2-food-location'
p689
I0
sS'set-1-location'
p690
I1
sS'store-1-food'
p691
I0
sS'ready-2-food-location'
p692
I0
sS'uncover-1-food'
p693
I0
sS'handle-1-food'
p694
I0
sS'brush-1-location'
p695
I0
sS'salt-1-location'
p696
I0
sS'tilt-2-food'
p697
I0
sS'cook-2-food-location'
p698
I116
sS'note-2-food'
p699
I0
sS'poke-2-location'
p700
I0
sS'skim-1-food'
p701
I0
sS'create-1-food'
p702
I0
sS'build-2-food-location'
p703
I0
sS'put-2-location'
p704
I0
sS'pack-2-food-location'
p705
I0
sS'puree-1-food'
p706
I1
sS'can-2-food-location'
p707
I0
sS'makes-2-food-location'
p708
I0
sS'scrape-2-food'
p709
I0
sS'tap-1-food'
p710
I1
sS'follow-1-location'
p711
I0
sS'water-2-food-location'
p712
I0
sS'ready-1-location'
p713
I0
sS'skim-2-location'
p714
I0
sS'canned-2-food'
p715
I0
sS'lower-2-food'
p716
I1
sS'dot-2-food-location'
p717
I2
sS'flip-1-location'
p718
I0
sS'melt-1-location'
p719
I2
sS'poke-2-food-location'
p720
I0
sS'brush-2-food-location'
p721
I0
sS'smother-1-location'
p722
I0
sS'cake-2-food-location'
p723
I0
sS'overlap-2-food-location'
p724
I0
sS'build-1-food'
p725
I0
sS'ladle-1-location'
p726
I4
sS'use-1-food'
p727
I0
sS'plop-1-food'
p728
I0
sS'garnish-1-location'
p729
I1
sS'best-1-location'
p730
I0
sS'water-1-food'
p731
I0
sS'strain-2-food-location'
p732
I0
sS'portion-2-food-location'
p733
I0
sS'press-2-food'
p734
I2
sS'pour-2-location'
p735
I5
sS'mix-1-food'
p736
I105
sS'pare-2-food-location'
p737
I0
sS'brown-2-food'
p738
I2
sS'line-1-location'
p739
I1
sS'cook-1-food'
p740
I183
sS'sift-2-food'
p741
I13
sS'squeeze-1-location'
p742
I0
sS'poach-1-location'
p743
I0
sS'layer-1-location'
p744
I1
sS'dot-2-location'
p745
I0
sS'canned-1-location'
p746
I0
sS'tent-2-food-location'
p747
I0
sS'process-1-location'
p748
I0
sS'turn-2-food'
p749
I0
sS'roll-1-food'
p750
I3
sS'toast-1-location'
p751
I0
sS'decrease-2-location'
p752
I0
sS'simmer-1-food'
p753
I34
sS'note-2-location'
p754
I0
sS'pass-2-location'
p755
I0
sS'fry-2-food'
p756
I2
sS'pack-1-location'
p757
I3
sS'plop-2-food'
p758
I0
sS'pull-2-location'
p759
I0
sS'push-1-food'
p760
I0
sS'chop-2-food-location'
p761
I1
sS'watch-2-food'
p762
I0
sS'flavor-2-food-location'
p763
I0
sS'throw-1-food'
p764
I0
sS'butter-1-food'
p765
I2
sS'drain-1-food'
p766
I35
sS'form-1-location'
p767
I0
sS'crumb-1-location'
p768
I0
sS'start-2-food'
p769
I0
sS'best-2-food'
p770
I0
sS'plunge-1-location'
p771
I0
sS'slice-2-food'
p772
I1
sS'dry-1-location'
p773
I0
sS'spray-2-food-location'
p774
I1
sS'fill-1-food'
p775
I0
sS'slide-2-food'
p776
I0
sS'slide-1-location'
p777
I0
sS'serve-1-food'
p778
I38
sS'drain-2-location'
p779
I2
sS'render-2-food'
p780
I0
sS'crumble-1-location'
p781
I0
sS'prick-2-food'
p782
I0
sS'add-1-food'
p783
I283
sS'arrange-2-location'
p784
I0
sS'thicken-1-location'
p785
I0
sS'roll-2-food-location'
p786
I0
sS'stir-1-food'
p787
I630
sS'shred-1-location'
p788
I1
sS'store-2-location'
p789
I0
sS'open-2-location'
p790
I0
sS'press-1-location'
p791
I10
sS'begin-1-location'
p792
I0
sS'warm-2-food'
p793
I0
sS'scrub-1-food'
p794
I1
sS'canned-1-food'
p795
I0
sS'place-2-location'
p796
I16
sS'smother-2-location'
p797
I0
sS'cheese-1-food'
p798
I1
sS'cook-2-food'
p799
I92
sS'grind-2-food-location'
p800
I0
sS'blend-2-location'
p801
I1
sS'break-1-food'
p802
I0
sS'sprinkle-2-location'
p803
I1
sS'rest-2-food'
p804
I0
sS'spoon-2-location'
p805
I7
sS'start-2-food-location'
p806
I0
sS'scramble-1-food'
p807
I0
sS'spread-1-location'
p808
I16
sS'served-2-location'
p809
I0
sS'thaw-2-food'
p810
I0
sS'run-2-location'
p811
I0
sS'push-2-food-location'
p812
I2
sS'pulse-1-location'
p813
I0
sS'makes-1-food'
p814
I0
sS'make-1-location'
p815
I0
sS'open-2-food'
p816
I0
sS'cake-2-food'
p817
I0
sS'freeze-1-location'
p818
I0
sS'bring-1-food'
p819
I0
sS'snip-2-location'
p820
I0
sS'sift-2-location'
p821
I0
sS'take-1-location'
p822
I1
sS'adjust-2-food-location'
p823
I0
sS'reheat-1-food'
p824
I0
sS'toss-1-location'
p825
I1
sS'render-1-location'
p826
I0
sS'oil-1-location'
p827
I3
sS'moisten-2-location'
p828
I0
sS'dot-1-food'
p829
I5
sS'sauce-1-location'
p830
I3
sS'split-2-food'
p831
I0
sS'build-2-location'
p832
I0
sS'reposition-1-food'
p833
I0
sS'lift-1-location'
p834
I0
sS'reshape-1-location'
p835
I0
sS'use-1-location'
p836
I1
sS'take-2-food-location'
p837
I0
sS'fluff-1-food'
p838
I0
sS'dunk-1-food'
p839
I0
sS'stir-2-location'
p840
I4
sS'start-1-food'
p841
I0
sS'julienne-2-location'
p842
I0
sS'rub-2-food-location'
p843
I0
sS'wear-1-location'
p844
I0
sS'saute-2-food-location'
p845
I34
sS'transfer-2-food'
p846
I0
sS'prepare-2-food'
p847
I2
sS'plunge-2-food'
p848
I0
sS'throw-2-food'
p849
I0
sS'flip-2-food-location'
p850
I1
sS'start-1-location'
p851
I0
sS'mash-1-location'
p852
I5
sS'arrange-2-food-location'
p853
I23
sS'tent-2-location'
p854
I0
sS'ensure-1-food'
p855
I0
sS'lift-2-food-location'
p856
I0
sS'twist-2-location'
p857
I0
sS'steam-1-location'
p858
I0
sS'crush-2-food-location'
p859
I0
sS'replace-1-food'
p860
I0
sS'reheat-2-location'
p861
I0
sS'ensure-1-location'
p862
I0
sS'served-1-location'
p863
I0
sS'throw-2-food-location'
p864
I0
sS'pound-1-location'
p865
I0
sS'position-2-location'
p866
I0
sS'ensure-2-location'
p867
I0
sS'process-2-food'
p868
I0
sS'coat-2-food'
p869
I1
sS'scatter-1-location'
p870
I0
sS'cheese-1-location'
p871
I0
sS'form-1-food'
p872
I1
sS'bake-2-location'
p873
I22
sS'blanch-2-food'
p874
I0
sS'spread-2-food'
p875
I22
sS'uncover-2-location'
p876
I0
sS'reshape-2-location'
p877
I0
sS'continue-2-food-location'
p878
I0
sS'raise-1-location'
p879
I0
sS'lock-2-location'
p880
I0
sS'whip-2-food-location'
p881
I2
sS'blanch-2-food-location'
p882
I1
sS'scrape-2-food-location'
p883
I3
sS'move-2-location'
p884
I0
sS'wear-1-food'
p885
I0
sS'frost-2-location'
p886
I0
sS'check-2-food'
p887
I0
sS'rub-2-location'
p888
I0
sS'skim-2-food-location'
p889
I0
sS'pull-1-food'
p890
I0
sS'coating-1-food'
p891
I1
sS'arrange-1-food'
p892
I0
sS'top-2-location'
p893
I1
sS'leave-1-location'
p894
I0
sS'coat-2-location'
p895
I0
sS'dry-2-location'
p896
I0
sS'water-2-food'
p897
I0
sS'mix-2-location'
p898
I3
sS'invert-2-food-location'
p899
I0
sS'steam-2-location'
p900
I0
sS'scramble-2-food-location'
p901
I0
sS'tuck-1-food'
p902
I0
sS'roast-2-location'
p903
I0
sS'scatter-2-location'
p904
I0
sS'lay-2-food'
p905
I1
sS'seat-1-food'
p906
I0
sS'set-2-food'
p907
I1
sS'tear-1-food'
p908
I0
sS'saute-2-food'
p909
I14
sS'split-2-food-location'
p910
I0
sS'work-1-location'
p911
I0
sS'stir-1-location'
p912
I28
sS'return-1-location'
p913
I36
sS'bring-2-food'
p914
I0
sS'halve-1-food'
p915
I9
sS'knife-2-food-location'
p916
I0
sS'unwrap-1-food'
p917
I1
sS'wear-2-food'
p918
I0
sS'hold-1-location'
p919
I0
sS'separate-2-location'
p920
I0
sS'have-2-food'
p921
I0
sS'preheat-1-location'
p922
I7
sS'sauce-2-location'
p923
I0
sS'distribute-1-food'
p924
I0
sS'grill-2-food'
p925
I2
sS'arrange-2-food'
p926
I5
sS'pat-2-food'
p927
I0
sS'top-1-location'
p928
I6
sS'twist-2-food-location'
p929
I0
sS'decorate-2-food-location'
p930
I0
sS'lift-1-food'
p931
I0
sS'core-2-food-location'
p932
I0
sS'change-2-food-location'
p933
I0
sS'spoon-1-location'
p934
I19
sS'cream-2-food'
p935
I4
sS'coating-2-food-location'
p936
I0
sS'whirl-1-food'
p937
I0
sS'coat-2-food-location'
p938
I7
sS'twist-1-food'
p939
I0
sS'best-1-food'
p940
I0
sS'separate-2-food-location'
p941
I1
sS'scatter-2-food-location'
p942
I1
sS'fill-1-location'
p943
I6
sS'work-2-location'
p944
I0
sS'wrap-1-food'
p945
I0
sS'soak-2-location'
p946
I0
sS'lie-2-location'
p947
I0
sS'plop-2-location'
p948
I0
sS'mash-1-food'
p949
I2
sS'dab-1-location'
p950
I0
sS'crack-2-food'
p951
I0
sS'pass-2-food-location'
p952
I0
sS'align-1-food'
p953
I0
sS'shred-2-food'
p954
I1
sS'salt-2-food-location'
p955
I0
sS'whirl-2-location'
p956
I0
sS'muddle-2-food'
p957
I0
sS'roast-1-food'
p958
I0
sS'lock-2-food-location'
p959
I0
sS'cover-1-location'
p960
I74
sS'fluff-2-food-location'
p961
I1
sS'puree-1-location'
p962
I0
sS'combine-2-food'
p963
I39
sS'break-2-food-location'
p964
I8
sS'grate-1-food'
p965
I0
sS'push-2-food'
p966
I0
sS'julienne-1-location'
p967
I0
sS'test-1-food'
p968
I0
sS'peel-1-food'
p969
I20
sS'scrub-2-location'
p970
I0
sS'blend-1-location'
p971
I1
sS'heat-1-location'
p972
I0
sS'rest-2-food-location'
p973
I0
sS'knife-2-food'
p974
I0
sS'loosen-2-location'
p975
I1
sS'follow-2-food'
p976
I2
sS'cut-1-food'
p977
I2
sS'brown-2-location'
p978
I2
sS'break-2-food'
p979
I0
sS'change-2-location'
p980
I0
sS'freezing-2-location'
p981
I0
sS'cool-1-food'
p982
I5
sS'pat-1-food'
p983
I0
sS'overlap-2-location'
p984
I0
sS'scrape-1-food'
p985
I0
sS'put-2-food'
p986
I1
sS'clean-2-location'
p987
I0
sS'broil-1-food'
p988
I0
sS'knead-2-location'
p989
I0
sS'halve-2-food'
p990
I0
sS'squeeze-2-location'
p991
I0
sS'shred-2-location'
p992
I0
sS'dice-1-location'
p993
I0
sS'steam-1-food'
p994
I0
sS'knead-2-food-location'
p995
I0
sS'tip-2-location'
p996
I0
sS'invert-2-food'
p997
I0
sS'push-2-location'
p998
I0
sS'makes-2-food'
p999
I0
sS'layer-2-location'
p1000
I2
sS'lock-1-food'
p1001
I0
sS'leave-1-food'
p1002
I0
sS'adjust-1-food'
p1003
I0
sS'whisk-1-location'
p1004
I1
sS'overlap-2-food'
p1005
I0
sS'remove-2-food-location'
p1006
I40
sS'round-2-food-location'
p1007
I0
sS'unroll-2-location'
p1008
I0
sS'dab-2-food'
p1009
I0
sS'lift-2-location'
p1010
I0
sS'enjoy-1-food'
p1011
I0
sS'rinse-1-food'
p1012
I5
sS'warm-1-food'
p1013
I0
sS'drop-2-food'
p1014
I1
sS'plunge-2-food-location'
p1015
I0
sS'flatten-2-food'
p1016
I0
sS'flip-2-location'
p1017
I0
sS'reserve-1-location'
p1018
I4
sS'marinate-1-location'
p1019
I0
sS'wash-2-location'
p1020
I0
sS'combine-1-location'
p1021
I1
sS'melt-1-food'
p1022
I4
sS'lay-2-food-location'
p1023
I4
sS'dot-2-food'
p1024
I0
sS'serve-1-location'
p1025
I4
sS'make-2-location'
p1026
I0
sS'insert-1-food'
p1027
I0
sS'break-2-location'
p1028
I0
sS'brown-1-location'
p1029
I0
sS'braise-1-location'
p1030
I0
sS'mince-1-location'
p1031
I0
sS'simmer-2-location'
p1032
I0
sS'beat-2-location'
p1033
I0
sS'trim-2-food'
p1034
I0
sS'steam-2-food'
p1035
I0
sS'move-1-food'
p1036
I0
sS'return-1-food'
p1037
I0
sS'braise-2-food'
p1038
I0
sS'empty-1-location'
p1039
I0
sS'load-2-location'
p1040
I0
sS'tip-1-location'
p1041
I0
sS'thicken-1-food'
p1042
I0
sS'makes-2-location'
p1043
I0
sS'place-2-food-location'
p1044
I373
sS'steam-2-food-location'
p1045
I1
sS'distribute-1-location'
p1046
I0
sS'clean-1-food'
p1047
I0
sS'brown-2-food-location'
p1048
I59
sS'broil-2-food'
p1049
I1
sS'bake-1-location'
p1050
I11
sS'return-2-food'
p1051
I0
sS'stuff-2-location'
p1052
I0
sS'garnish-1-food'
p1053
I34
sS'chill-1-location'
p1054
I0
sS'fluff-2-food'
p1055
I0
sS'adjust-1-location'
p1056
I0
sS'reduce-2-food'
p1057
I0
sS'spray-2-location'
p1058
I2
sS'watch-1-location'
p1059
I0
sS'freeze-2-food'
p1060
I0
sS'flute-2-food-location'
p1061
I0
sS'spread-2-location'
p1062
I11
sS'pulse-1-food'
p1063
I0
sS'line-2-food'
p1064
I0
sS'gather-1-food'
p1065
I0
sS'process-2-food-location'
p1066
I1
sS'handle-2-location'
p1067
I0
sS'prepare-1-food'
p1068
I0
sS'transfer-1-food'
p1069
I2
sS'uncover-2-food-location'
p1070
I0
sS'pipe-1-location'
p1071
I0
sS'mix-1-location'
p1072
I8
sS'clean-2-food'
p1073
I0
sS'smooth-2-location'
p1074
I0
sS'put-1-location'
p1075
I1
sS'finish-2-location'
p1076
I0
sS'melt-2-food'
p1077
I2
sS'toast-2-food'
p1078
I0
sS'check-2-location'
p1079
I0
sS'continue-2-location'
p1080
I0
sS'shape-1-food'
p1081
I1
sS'preheat-2-food'
p1082
I0
sS'steep-1-location'
p1083
I0
sS'note-1-location'
p1084
I0
sS'core-2-food'
p1085
I0
sS'scatter-2-food'
p1086
I2
sS'surround-1-location'
p1087
I0
sS'flute-2-food'
p1088
I0
sS'pack-1-food'
p1089
I0
sS'note-1-food'
p1090
I0
sS'fry-2-location'
p1091
I0
sS'prepare-2-food-location'
p1092
I6
sS'hold-2-food-location'
p1093
I0
sS'tilt-1-location'
p1094
I0
sS'poke-2-food'
p1095
I0
sS'let-1-location'
p1096
I0
sS'julienne-2-food-location'
p1097
I0
sS'pour-1-location'
p1098
I67
sS'spoon-1-food'
p1099
I5
sS'fit-1-location'
p1100
I1
sS'puree-2-food-location'
p1101
I6
sS'distribute-2-location'
p1102
I0
sS'transfer-2-food-location'
p1103
I28
sS'dredge-1-location'
p1104
I0
sS'place-2-food'
p1105
I31
sS'fold-2-food'
p1106
I11
sS'whip-2-food'
p1107
I0
sS'flute-1-food'
p1108
I0
sS'rub-2-food'
p1109
I6
sS'seal-2-food'
p1110
I0
sS'fry-2-food-location'
p1111
I11
sS'stack-2-location'
p1112
I0
sS'set-2-food-location'
p1113
I3
sS'mound-2-food-location'
p1114
I0
sS'knead-1-food'
p1115
I0
sS'uncover-1-location'
p1116
I5
sS'divide-1-location'
p1117
I4
sS'wear-2-location'
p1118
I0
sS'keep-1-food'
p1119
I0
sS'pound-1-food'
p1120
I1
sS'flip-2-food'
p1121
I0
sS'drain-2-food'
p1122
I1
sS'butter-2-food'
p1123
I4
sS'check-1-location'
p1124
I0
sS'dot-1-location'
p1125
I0
sS'rinse-2-food-location'
p1126
I0
sS'julienne-2-food'
p1127
I0
sS'chill-1-food'
p1128
I1
sS'pare-1-food'
p1129
I0
sS'blend-2-food'
p1130
I11
sS'steep-2-food-location'
p1131
I0
sS'flip-1-food'
p1132
I1
sS'measure-2-food'
p1133
I0
sS'empty-1-food'
p1134
I0
sS'flour-2-food-location'
p1135
I0
sS'slice-2-location'
p1136
I0
sS'ladle-1-food'
p1137
I0
sS'flute-2-location'
p1138
I0
sS'seat-2-food'
p1139
I0
sS'marinate-2-food'
p1140
I3
sS'pinch-2-food'
p1141
I0
sS'tent-2-food'
p1142
I0
sS'reheat-1-location'
p1143
I0
sS'tear-2-food'
p1144
I0
sS'keep-2-food-location'
p1145
I0
sS'allow-1-location'
p1146
I0
sS'seal-1-food'
p1147
I0
sS'transfer-1-location'
p1148
I71
sS'prepare-1-location'
p1149
I0
sS'beat-1-food'
p1150
I11
sS'bake-1-food'
p1151
I12
sS'scrub-2-food-location'
p1152
I0
sS'pick-1-food'
p1153
I0
sS'stream-2-food'
p1154
I2
sS'replace-1-location'
p1155
I0
sS'repeat-2-location'
p1156
I1
sS'change-2-food'
p1157
I0
sS'place-1-food'
p1158
I5
sS'drop-1-food'
p1159
I2
sS'begin-2-food-location'
p1160
I1
sS'uncover-2-food'
p1161
I0
sS'loosen-1-location'
p1162
I0
sS'warm-2-food-location'
p1163
I2
sS'stream-2-location'
p1164
I0
sS'rub-1-location'
p1165
I0
sS'crush-2-food'
p1166
I0
sS'canned-2-food-location'
p1167
I0
sS'combine-1-food'
p1168
I6
sS'pat-1-location'
p1169
I4
sS'sort-1-food'
p1170
I1
sS'dump-2-food'
p1171
I0
sS'run-1-food'
p1172
I0
sS'marinate-2-food-location'
p1173
I0
sS'grind-2-food'
p1174
I0
sS'puree-2-food'
p1175
I1
sS'pack-2-food'
p1176
I0
sS'cake-1-food'
p1177
I2
sS'crush-1-location'
p1178
I0
sS'take-2-location'
p1179
I1
sS'cut-2-food'
p1180
I5
sS'dust-1-location'
p1181
I0
sS'position-1-location'
p1182
I0
sS'render-1-food'
p1183
I0
sS'frost-1-location'
p1184
I0
sS'peel-1-location'
p1185
I0
sS'thaw-2-location'
p1186
I0
sS'form-2-food'
p1187
I0
sS'quarter-1-location'
p1188
I0
sS'preheat-2-location'
p1189
I7
sS'freeze-2-location'
p1190
I0
sS'pipe-1-food'
p1191
I0
sS'wipe-2-food-location'
p1192
I1
sS'enjoy-2-location'
p1193
I0
sS'melt-2-location'
p1194
I0
sS'finish-2-food-location'
p1195
I1
sS'fill-2-food'
p1196
I0
sS'stack-2-food-location'
p1197
I0
sS'slice-1-location'
p1198
I0
sS'core-1-location'
p1199
I0
sS'drizzle-2-food-location'
p1200
I3
sS'mound-2-location'
p1201
I0
sS'stuff-2-food-location'
p1202
I0
sS'lay-2-location'
p1203
I0
sS'let-2-food'
p1204
I4
sS'scrape-2-location'
p1205
I0
sS'decorate-2-location'
p1206
I0
sS'spread-1-food'
p1207
I13
sS'blend-2-food-location'
p1208
I14
sS'toss-2-location'
p1209
I0
sS'bake-2-food'
p1210
I0
sS'knife-1-food'
p1211
I0
sS'pierce-1-location'
p1212
I0
sS'steep-2-location'
p1213
I0
sS'cream-1-food'
p1214
I0
sS'leave-2-food-location'
p1215
I1
sS'taste-2-location'
p1216
I0
sS'wrap-2-food-location'
p1217
I0
sS'create-1-location'
p1218
I0
sS'seal-2-food-location'
p1219
I0
sS'insert-1-location'
p1220
I0
sS'quarter-2-food-location'
p1221
I0
sS'divide-2-food'
p1222
I3
sS'arrange-1-location'
p1223
I1
sS'tuck-2-food-location'
p1224
I0
sS'peel-2-location'
p1225
I0
sS'pour-1-food'
p1226
I97
sS'swirl-2-food'
p1227
I0
sS'wash-1-location'
p1228
I0
sS'grate-2-food'
p1229
I1
sS'scrub-2-food'
p1230
I0
sS'shred-1-food'
p1231
I3
sS'crimp-2-food-location'
p1232
I0
sS'mash-2-location'
p1233
I4
sS'fit-2-food-location'
p1234
I0
sS'poke-1-location'
p1235
I0
sS'ask-2-food-location'
p1236
I0
sS'water-2-location'
p1237
I0
sS'fry-1-food'
p1238
I3
sS'render-2-location'
p1239
I0
sS'ask-2-location'
p1240
I0
sS'cover-2-location'
p1241
I2
sS'hold-2-location'
p1242
I0
sS'stir-2-food-location'
p1243
I192
sS'add-2-food-location'
p1244
I72
sS'roll-1-location'
p1245
I3
sS'have-2-food-location'
p1246
I0
sS'continue-1-location'
p1247
I0
sS'surround-2-food'
p1248
I0
sS'rest-2-location'
p1249
I0
sS'open-1-location'
p1250
I0
sS'baste-2-food-location'
p1251
I0
sS'scramble-2-food'
p1252
I0
sS'julienne-1-food'
p1253
I0
sS'pat-2-food-location'
p1254
I0
sS'halve-1-location'
p1255
I0
sS'scoop-2-food-location'
p1256
I0
sS'freezing-1-food'
p1257
I1
sS'tip-1-food'
p1258
I1
sS'thread-2-food'
p1259
I0
sS'blend-1-food'
p1260
I6
sS'unroll-1-food'
p1261
I1
sS'surround-1-food'
p1262
I0
sS'load-2-food'
p1263
I1
sS'microwave-2-location'
p1264
I0
sS'overlap-1-location'
p1265
I0
sS'reposition-2-food'
p1266
I0
sS'gather-2-food-location'
p1267
I0
sS'finish-2-food'
p1268
I0
sS'watch-1-food'
p1269
I0
sS'whirl-2-food-location'
p1270
I0
sS'surround-2-location'
p1271
I0
sS'alternate-2-food'
p1272
I0
sS'place-1-location'
p1273
I105
sS'served-2-food-location'
p1274
I0
sS'saute-1-location'
p1275
I2
sS'discard-1-food'
p1276
I0
sS'make-2-food-location'
p1277
I6
sS'stuff-1-location'
p1278
I0
sS'line-2-location'
p1279
I2
sS'reshape-2-food-location'
p1280
I0
sS'increase-1-food'
p1281
I0
sS'grate-1-location'
p1282
I1
sS'smooth-2-food-location'
p1283
I1
sS'crack-2-food-location'
p1284
I1
sS'mound-1-food'
p1285
I0
sS'stream-1-food'
p1286
I0
sS'flatten-2-food-location'
p1287
I0
sS'line-2-food-location'
p1288
I5
sS'warm-2-location'
p1289
I0
sS'peel-2-food'
p1290
I1
sS'process-2-location'
p1291
I0
sS'measure-2-location'
p1292
I0
sS'divide-2-food-location'
p1293
I6
sS'ask-1-food'
p1294
I0
sS'round-2-location'
p1295
I0
sS'icing-2-food'
p1296
I0
sS'measure-2-food-location'
p1297
I2
sS'lock-2-food'
p1298
I0
sS'load-1-food'
p1299
I0
sS'tip-2-food'
p1300
I0
sS'follow-2-location'
p1301
I0
sS'set-2-location'
p1302
I3
sS'crimp-2-food'
p1303
I0
sS'chill-2-food'
p1304
I1
sS'dice-2-food'
p1305
I1
sS'take-2-food'
p1306
I0
sS'insert-2-location'
p1307
I0
sS'crack-1-food'
p1308
I1
sS'grease-2-location'
p1309
I3
sS'build-2-food'
p1310
I0
sS'plunge-2-location'
p1311
I0
sS'dunk-1-location'
p1312
I0
sS'stir-2-food'
p1313
I206
sS'allow-2-location'
p1314
I0
sS'layer-2-food'
p1315
I5
sS'freezing-2-food'
p1316
I0
sS'dunk-2-food'
p1317
I0
sS'refrigerate-2-location'
p1318
I0
sS'crumb-2-location'
p1319
I0
sS'crumple-2-food'
p1320
I0
sS'baste-1-food'
p1321
I0
sS'melt-2-food-location'
p1322
I184
sS'bring-1-location'
p1323
I0
sS'alternate-2-location'
p1324
I1
sS'taste-1-food'
p1325
I0
sS'grill-2-location'
p1326
I0
sS'drizzle-1-location'
p1327
I0
sS'frost-1-food'
p1328
I1
sS'rest-1-food'
p1329
I0
sS'toss-1-food'
p1330
I17
sS'pick-2-food'
p1331
I0
sS'top-1-food'
p1332
I109
sS'wrap-2-food'
p1333
I0
sS'roll-2-food'
p1334
I3
sS'rinse-1-location'
p1335
I0
sS'quarter-1-food'
p1336
I0
sS'line-1-food'
p1337
I0
sS'crimp-1-location'
p1338
I0
sS'drain-1-location'
p1339
I28
sS'butter-1-location'
p1340
I12
sS'quarter-2-food'
p1341
I0
sS'spray-1-food'
p1342
I0
sS'leave-2-location'
p1343
I0
sS'adjust-2-location'
p1344
I0
sS'unroll-1-location'
p1345
I0
s.(dp0
S'scoop-DOBJPARG-false'
p1
I0
sS'peel-DOBJ-false'
p2
I0
sS'take-DOBJPARG-true'
p3
I2
sS'preheat-DOBJPARG-true'
p4
I728
sS'build-PARG-false'
p5
I0
sS'drizzle-DOBJPARG-false'
p6
I0
sS'break-DOBJPARG-false'
p7
I0
sS'mound-DOBJPARG-true'
p8
I6
sS'pierce-DOBJ-true'
p9
I1
sS'handle-DOBJ-true'
p10
I0
sS'dot--false'
p11
I0
sS'pat--false'
p12
I1
sS'drain-DOBJ-false'
p13
I0
sS'split-PARG-true'
p14
I1
sS'crumble-DOBJ-false'
p15
I0
sS'water-PARG-false'
p16
I0
sS'distribute-DOBJ-true'
p17
I1
sS'served-PARG-false'
p18
I0
sS'reheat-PARG-false'
p19
I0
sS'wrap-DOBJPARG-false'
p20
I0
sS'chop--false'
p21
I20
sS'clean-DOBJ-false'
p22
I0
sS'brush-DOBJPARG-true'
p23
I25
sS'gather-DOBJPARG-false'
p24
I0
sS'sift-DOBJPARG-true'
p25
I11
sS'lay-DOBJ-true'
p26
I1
sS'put-PARG-true'
p27
I6
sS'canned-DOBJ-true'
p28
I0
sS'mince-DOBJ-true'
p29
I1
sS'crimp-PARG-true'
p30
I0
sS'distribute-DOBJPARG-false'
p31
I0
sS'coating-PARG-true'
p32
I1
sS'beat-PARG-false'
p33
I0
sS'handle-DOBJPARG-true'
p34
I0
sS'dunk-DOBJ-true'
p35
I0
sS'lower-DOBJ-true'
p36
I7
sS'wipe-DOBJPARG-false'
p37
I0
sS'prepare-DOBJPARG-false'
p38
I0
sS'ready-PARG-true'
p39
I2
sS'dice-PARG-false'
p40
I0
sS'steam-DOBJPARG-false'
p41
I0
sS'scatter-PARG-true'
p42
I0
sS'stream-PARG-false'
p43
I0
sS'refrigerate--false'
p44
I62
sS'pat-DOBJPARG-false'
p45
I0
sS'run-PARG-false'
p46
I0
sS'braise-PARG-true'
p47
I1
sS'flour-DOBJ-true'
p48
I9
sS'finish-DOBJPARG-true'
p49
I4
sS'stack-PARG-false'
p50
I0
sS'freezing--false'
p51
I0
sS'position--false'
p52
I0
sS'fold-DOBJPARG-true'
p53
I43
sS'add-DOBJ-true'
p54
I848
sS'quarter--false'
p55
I1
sS'scramble-PARG-true'
p56
I0
sS'turn-DOBJPARG-false'
p57
I0
sS'replace-DOBJ-false'
p58
I0
sS'insert-DOBJPARG-true'
p59
I3
sS'flatten-DOBJPARG-true'
p60
I2
sS'raise-PARG-true'
p61
I0
sS'pulse-DOBJPARG-true'
p62
I8
sS'mash-PARG-true'
p63
I13
sS'pack-DOBJPARG-false'
p64
I0
sS'lock-PARG-false'
p65
I0
sS'distribute--false'
p66
I0
sS'garnish-DOBJPARG-false'
p67
I0
sS'slide-DOBJ-true'
p68
I0
sS'arrange-DOBJ-true'
p69
I0
sS'blanch-DOBJ-false'
p70
I0
sS'shred-DOBJPARG-true'
p71
I4
sS'crimp-DOBJPARG-false'
p72
I0
sS'braise-DOBJPARG-true'
p73
I0
sS'smooth-DOBJPARG-true'
p74
I3
sS'hollow-DOBJ-false'
p75
I0
sS'fluff-PARG-true'
p76
I2
sS'render-PARG-false'
p77
I0
sS'dry-DOBJPARG-true'
p78
I1
sS'stream--false'
p79
I1
sS'test-PARG-true'
p80
I1
sS'lie-DOBJ-true'
p81
I0
sS'shape-PARG-true'
p82
I33
sS'strain-DOBJ-true'
p83
I1
sS'take-PARG-true'
p84
I1
sS'mix--false'
p85
I173
sS'drain-PARG-true'
p86
I174
sS'grill-PARG-true'
p87
I16
sS'thicken-DOBJ-true'
p88
I0
sS'insert-PARG-false'
p89
I0
sS'reserve--false'
p90
I10
sS'tent--false'
p91
I0
sS'seal-DOBJ-true'
p92
I11
sS'wear-DOBJ-false'
p93
I0
sS'fry--false'
p94
I0
sS'flour-PARG-true'
p95
I11
sS'mix-DOBJ-true'
p96
I99
sS'thicken-DOBJ-false'
p97
I0
sS'dust-DOBJPARG-true'
p98
I3
sS'skim-DOBJPARG-true'
p99
I5
sS'reheat-DOBJPARG-true'
p100
I3
sS'grate-PARG-true'
p101
I1
sS'chill-DOBJ-true'
p102
I1
sS'sauce-DOBJPARG-false'
p103
I0
sS'flute-DOBJ-false'
p104
I0
sS'return--false'
p105
I6
sS'enjoy-DOBJPARG-false'
p106
I0
sS'mix-DOBJPARG-false'
p107
I0
sS'knead--false'
p108
I0
sS'dredge-DOBJPARG-true'
p109
I3
sS'tent-PARG-true'
p110
I1
sS'dab--false'
p111
I0
sS'dry-PARG-false'
p112
I0
sS'make-PARG-false'
p113
I0
sS'arrange--false'
p114
I1
sS'move-PARG-true'
p115
I2
sS'pass--false'
p116
I0
sS'change-PARG-false'
p117
I0
sS'open-DOBJPARG-false'
p118
I0
sS'empty-DOBJPARG-false'
p119
I0
sS'finish-DOBJPARG-false'
p120
I0
sS'roll-DOBJPARG-true'
p121
I26
sS'microwave-DOBJ-false'
p122
I0
sS'return-DOBJPARG-false'
p123
I0
sS'dunk-DOBJPARG-false'
p124
I0
sS'boil-DOBJ-true'
p125
I0
sS'mash-DOBJ-true'
p126
I6
sS'served--false'
p127
I0
sS'rub--false'
p128
I0
sS'spread-PARG-false'
p129
I0
sS'shake-DOBJPARG-false'
p130
I0
sS'sauce-DOBJ-false'
p131
I0
sS'toast-PARG-true'
p132
I6
sS'pound-DOBJ-false'
p133
I0
sS'gather-PARG-true'
p134
I0
sS'squeeze-PARG-false'
p135
I0
sS'crimp-DOBJPARG-true'
p136
I0
sS'thread-DOBJPARG-true'
p137
I1
sS'pierce-DOBJ-false'
p138
I0
sS'makes-DOBJPARG-true'
p139
I0
sS'pass-DOBJPARG-false'
p140
I0
sS'store-PARG-false'
p141
I0
sS'uncover-DOBJ-true'
p142
I7
sS'surround-PARG-true'
p143
I0
sS'flip-PARG-false'
p144
I0
sS'coat-DOBJPARG-false'
p145
I0
sS'roll-PARG-true'
p146
I23
sS'best-DOBJPARG-false'
p147
I0
sS'moisten-DOBJ-true'
p148
I0
sS'ensure-PARG-true'
p149
I0
sS'unwrap--false'
p150
I0
sS'garnish-PARG-false'
p151
I0
sS'dredge-PARG-false'
p152
I0
sS'garnish-DOBJ-false'
p153
I0
sS'strain-DOBJ-false'
p154
I0
sS'oil-DOBJPARG-true'
p155
I8
sS'wrap--false'
p156
I0
sS'allow-DOBJ-false'
p157
I0
sS'ready-DOBJ-false'
p158
I0
sS'shave-DOBJPARG-true'
p159
I0
sS'reposition-PARG-false'
p160
I0
sS'change-DOBJPARG-false'
p161
I0
sS'sift-DOBJ-true'
p162
I15
sS'ready-PARG-false'
p163
I0
sS'rinse-PARG-false'
p164
I0
sS'form-PARG-true'
p165
I33
sS'loosen-DOBJPARG-true'
p166
I0
sS'top-DOBJ-false'
p167
I0
sS'knead-PARG-false'
p168
I0
sS'note-DOBJ-false'
p169
I0
sS'loosen-DOBJ-false'
p170
I0
sS'put-DOBJ-true'
p171
I2
sS'portion-PARG-true'
p172
I0
sS'bring-DOBJPARG-false'
p173
I0
sS'warm--false'
p174
I5
sS'taste-DOBJ-false'
p175
I0
sS'note-DOBJPARG-true'
p176
I0
sS'pick-PARG-false'
p177
I0
sS'flute-DOBJPARG-false'
p178
I0
sS'scrub-DOBJ-true'
p179
I1
sS'seal-PARG-false'
p180
I0
sS'trim-PARG-true'
p181
I2
sS'fry-DOBJ-false'
p182
I0
sS'flour-DOBJPARG-false'
p183
I0
sS'open-DOBJPARG-true'
p184
I0
sS'peel--false'
p185
I47
sS'note-PARG-false'
p186
I0
sS'open-DOBJ-false'
p187
I0
sS'spread-DOBJPARG-false'
p188
I0
sS'beat--false'
p189
I10
sS'muddle-DOBJPARG-false'
p190
I0
sS'fluff-DOBJ-true'
p191
I0
sS'measure-DOBJ-true'
p192
I5
sS'salt-DOBJPARG-false'
p193
I0
sS'dunk-PARG-true'
p194
I0
sS'plunge--false'
p195
I0
sS'process-DOBJ-true'
p196
I0
sS'knead-DOBJPARG-true'
p197
I4
sS'simmer-DOBJ-false'
p198
I0
sS'reserve-DOBJ-true'
p199
I21
sS'pipe-PARG-true'
p200
I7
sS'fill--false'
p201
I0
sS'layer--false'
p202
I0
sS'discard-PARG-true'
p203
I4
sS'preheat--false'
p204
I0
sS'overlap-DOBJPARG-true'
p205
I1
sS'dip-DOBJPARG-true'
p206
I54
sS'surround-DOBJ-false'
p207
I0
sS'bake-DOBJ-false'
p208
I0
sS'form-DOBJ-true'
p209
I6
sS'stream-PARG-true'
p210
I1
sS'twist-DOBJ-true'
p211
I0
sS'baste-DOBJPARG-false'
p212
I0
sS'drizzle--false'
p213
I1
sS'fold-DOBJPARG-false'
p214
I0
sS'lay-DOBJPARG-true'
p215
I28
sS'peel-DOBJPARG-false'
p216
I0
sS'boil-PARG-true'
p217
I23
sS'spray-DOBJPARG-false'
p218
I0
sS'whisk-DOBJPARG-true'
p219
I274
sS'decorate-PARG-true'
p220
I1
sS'use-PARG-true'
p221
I1
sS'crust--false'
p222
I1
sS'sift-PARG-true'
p223
I1
sS'poach-PARG-true'
p224
I1
sS'bring-DOBJ-false'
p225
I0
sS'grind-DOBJPARG-true'
p226
I4
sS'braise-PARG-false'
p227
I0
sS'roast-PARG-false'
p228
I0
sS'toss-DOBJ-true'
p229
I6
sS'spray-DOBJ-false'
p230
I0
sS'uncover--false'
p231
I9
sS'decorate-DOBJ-true'
p232
I0
sS'serve-DOBJ-true'
p233
I81
sS'ask-DOBJPARG-false'
p234
I0
sS'squeeze-DOBJ-true'
p235
I2
sS'top-DOBJPARG-true'
p236
I72
sS'line-PARG-true'
p237
I31
sS'reduce-DOBJ-false'
p238
I0
sS'crumb-PARG-false'
p239
I0
sS'enjoy--false'
p240
I9
sS'pipe-DOBJ-true'
p241
I2
sS'work-DOBJPARG-true'
p242
I1
sS'keep-PARG-true'
p243
I2
sS'tilt-DOBJ-false'
p244
I0
sS'halve-PARG-true'
p245
I0
sS'reheat-PARG-true'
p246
I1
sS'blend--false'
p247
I9
sS'flour-DOBJ-false'
p248
I0
sS'rub-DOBJ-false'
p249
I0
sS'ask--false'
p250
I0
sS'continue-DOBJPARG-true'
p251
I58
sS'can-DOBJ-true'
p252
I1
sS'set-DOBJPARG-true'
p253
I32
sS'whirl--false'
p254
I0
sS'bring-DOBJPARG-true'
p255
I437
sS'marinate-DOBJPARG-true'
p256
I5
sS'tent-DOBJPARG-false'
p257
I0
sS'invert-DOBJPARG-true'
p258
I3
sS'pipe-DOBJPARG-false'
p259
I0
sS'line-DOBJPARG-false'
p260
I0
sS'grate-DOBJPARG-true'
p261
I6
sS'tip-PARG-true'
p262
I1
sS'fold-DOBJ-true'
p263
I1
sS'flour-DOBJPARG-true'
p264
I1
sS'pull-DOBJ-false'
p265
I0
sS'discard-DOBJPARG-false'
p266
I0
sS'process--false'
p267
I0
sS'open--false'
p268
I0
sS'wash--false'
p269
I2
sS'break-PARG-true'
p270
I5
sS'move-DOBJ-false'
p271
I0
sS'throw-DOBJPARG-false'
p272
I0
sS'lock-DOBJ-false'
p273
I0
sS'marinate--false'
p274
I0
sS'dip-DOBJPARG-false'
p275
I0
sS'pat-PARG-false'
p276
I0
sS'break-PARG-false'
p277
I0
sS'squeeze--false'
p278
I1
sS'trim-DOBJ-false'
p279
I0
sS'rest-DOBJPARG-true'
p280
I0
sS'knead-DOBJ-false'
p281
I0
sS'skim-PARG-false'
p282
I0
sS'open-DOBJ-true'
p283
I2
sS'skim-DOBJ-true'
p284
I0
sS'can-DOBJPARG-true'
p285
I4
sS'empty-DOBJPARG-true'
p286
I1
sS'keep-DOBJ-true'
p287
I14
sS'flatten-DOBJ-false'
p288
I0
sS'drop-DOBJPARG-true'
p289
I3
sS'water-DOBJPARG-true'
p290
I1
sS'blend-DOBJPARG-true'
p291
I39
sS'garnish-DOBJ-true'
p292
I1
sS'mix-PARG-true'
p293
I306
sS'set-PARG-true'
p294
I45
sS'crumple-PARG-true'
p295
I0
sS'rub-DOBJPARG-true'
p296
I11
sS'hollow-DOBJPARG-false'
p297
I0
sS'pinch-PARG-false'
p298
I0
sS'plunge-PARG-false'
p299
I0
sS'smooth-DOBJ-true'
p300
I2
sS'pick-DOBJ-true'
p301
I2
sS'warm-DOBJ-false'
p302
I0
sS'reduce-DOBJPARG-true'
p303
I275
sS'let--false'
p304
I15
sS'dredge-DOBJ-true'
p305
I0
sS'push--false'
p306
I0
sS'separate-DOBJPARG-true'
p307
I4
sS'plop-DOBJPARG-true'
p308
I1
sS'pass-DOBJ-true'
p309
I1
sS'pierce-PARG-true'
p310
I0
sS'simmer--false'
p311
I65
sS'serve-DOBJPARG-true'
p312
I65
sS'saute--false'
p313
I2
sS'position-DOBJPARG-true'
p314
I1
sS'surround-DOBJ-true'
p315
I0
sS'mound-PARG-false'
p316
I0
sS'set-DOBJ-false'
p317
I0
sS'run-DOBJ-false'
p318
I0
sS'best--false'
p319
I1
sS'shave-PARG-false'
p320
I0
sS'alternate-PARG-false'
p321
I0
sS'cheese-DOBJPARG-true'
p322
I2
sS'blend-DOBJ-true'
p323
I9
sS'thread-DOBJ-true'
p324
I0
sS'whirl-PARG-true'
p325
I1
sS'cut-DOBJ-false'
p326
I0
sS'return-PARG-true'
p327
I133
sS'freezing-DOBJPARG-true'
p328
I0
sS'change-DOBJ-true'
p329
I0
sS'puree--false'
p330
I1
sS'decorate-DOBJPARG-false'
p331
I0
sS'water-DOBJ-true'
p332
I1
sS'saute-DOBJPARG-true'
p333
I82
sS'turn-PARG-true'
p334
I22
sS'shred-DOBJPARG-false'
p335
I0
sS'lock-DOBJ-true'
p336
I2
sS'braise-DOBJPARG-false'
p337
I0
sS'tuck-PARG-false'
p338
I0
sS'shred-PARG-true'
p339
I3
sS'decrease-DOBJPARG-true'
p340
I1
sS'muddle-PARG-false'
p341
I0
sS'distribute-DOBJPARG-true'
p342
I3
sS'push-DOBJ-true'
p343
I1
sS'dip-PARG-true'
p344
I2
sS'stack-DOBJPARG-true'
p345
I0
sS'keep-DOBJPARG-true'
p346
I6
sS'discard-DOBJPARG-true'
p347
I2
sS'align-DOBJPARG-false'
p348
I0
sS'bake-DOBJPARG-true'
p349
I70
sS'stir-DOBJPARG-false'
p350
I0
sS'preheat-DOBJPARG-false'
p351
I0
sS'insert-DOBJPARG-false'
p352
I0
sS'reduce-PARG-true'
p353
I9
sS'scoop-DOBJ-false'
p354
I0
sS'stream-DOBJ-true'
p355
I0
sS'broil-DOBJ-false'
p356
I0
sS'push-PARG-false'
p357
I0
sS'pound-DOBJPARG-false'
p358
I0
sS'build-DOBJPARG-true'
p359
I1
sS'flute-PARG-true'
p360
I0
sS'dust-DOBJ-true'
p361
I0
sS'stuff-DOBJPARG-false'
p362
I0
sS'crumple--false'
p363
I0
sS'pat-DOBJPARG-true'
p364
I16
sS'toast-DOBJPARG-false'
p365
I0
sS'ensure-PARG-false'
p366
I0
sS'stack--false'
p367
I0
sS'skim-PARG-true'
p368
I1
sS'canned-PARG-false'
p369
I0
sS'simmer-DOBJPARG-false'
p370
I0
sS'clean-PARG-true'
p371
I0
sS'raise--false'
p372
I0
sS'return-DOBJ-true'
p373
I0
sS'make--false'
p374
I0
sS'divide-PARG-false'
p375
I0
sS'season-PARG-false'
p376
I0
sS'rinse-DOBJ-false'
p377
I0
sS'combine-PARG-false'
p378
I0
sS'combine-DOBJ-true'
p379
I58
sS'decrease-DOBJPARG-false'
p380
I0
sS'crumple-DOBJPARG-true'
p381
I1
sS'distribute-PARG-false'
p382
I0
sS'thaw-PARG-false'
p383
I0
sS'follow-DOBJ-true'
p384
I0
sS'portion-PARG-false'
p385
I0
sS'grind-PARG-false'
p386
I0
sS'served-DOBJPARG-false'
p387
I0
sS'store-DOBJ-true'
p388
I0
sS'crush-PARG-true'
p389
I0
sS'return-DOBJPARG-true'
p390
I87
sS'prepare-PARG-false'
p391
I0
sS'crush-DOBJPARG-false'
p392
I0
sS'combine-PARG-true'
p393
I11
sS'scrub-PARG-false'
p394
I0
sS'butter--false'
p395
I6
sS'pick--false'
p396
I0
sS'crimp--false'
p397
I0
sS'prepare-DOBJ-false'
p398
I0
sS'plop-DOBJPARG-false'
p399
I0
sS'tilt--false'
p400
I0
sS'load-DOBJ-false'
p401
I0
sS'makes-DOBJ-false'
p402
I0
sS'garnish-PARG-true'
p403
I64
sS'leave-DOBJ-false'
p404
I0
sS'leave-DOBJ-true'
p405
I0
sS'cake-DOBJ-false'
p406
I0
sS'halve-DOBJ-true'
p407
I9
sS'ensure-DOBJPARG-true'
p408
I1
sS'snip-DOBJPARG-false'
p409
I0
sS'decorate--false'
p410
I0
sS'squeeze-PARG-true'
p411
I8
sS'whisk-DOBJ-false'
p412
I0
sS'chill-PARG-false'
p413
I0
sS'blanch-PARG-true'
p414
I2
sS'strain-DOBJPARG-false'
p415
I0
sS'dredge-DOBJPARG-false'
p416
I0
sS'note-DOBJPARG-false'
p417
I0
sS'flute-DOBJPARG-true'
p418
I0
sS'wash-DOBJPARG-false'
p419
I0
sS'unwrap-DOBJPARG-true'
p420
I0
sS'slide-PARG-false'
p421
I0
sS'begin-PARG-true'
p422
I8
sS'dissolve-PARG-false'
p423
I0
sS'transfer-DOBJ-true'
p424
I3
sS'whisk-PARG-false'
p425
I0
sS'seal-DOBJ-false'
p426
I0
sS'spread--false'
p427
I6
sS'drizzle-DOBJ-false'
p428
I0
sS'knead-DOBJPARG-false'
p429
I0
sS'roast--false'
p430
I0
sS'process-DOBJ-false'
p431
I0
sS'invert-PARG-true'
p432
I1
sS'baste--false'
p433
I0
sS'chop-DOBJPARG-false'
p434
I0
sS'plop-DOBJ-false'
p435
I0
sS'adjust-PARG-true'
p436
I6
sS'scrape--false'
p437
I1
sS'divide-DOBJPARG-true'
p438
I50
sS'knife--false'
p439
I0
sS'uncover-DOBJPARG-true'
p440
I1
sS'steam-DOBJPARG-true'
p441
I4
sS'lie--false'
p442
I0
sS'refrigerate-DOBJPARG-false'
p443
I0
sS'unroll-PARG-true'
p444
I0
sS'sauce-PARG-false'
p445
I0
sS'invert-DOBJ-false'
p446
I0
sS'crumple-DOBJ-false'
p447
I0
sS'cover-DOBJ-false'
p448
I0
sS'build-DOBJ-false'
p449
I0
sS'snip-DOBJ-false'
p450
I0
sS'microwave-PARG-false'
p451
I0
sS'seat-PARG-true'
p452
I0
sS'dice--false'
p453
I3
sS'clean--false'
p454
I1
sS'can-DOBJ-false'
p455
I0
sS'cook--false'
p456
I53
sS'boil-DOBJ-false'
p457
I0
sS'freeze-DOBJPARG-false'
p458
I0
sS'steep-PARG-false'
p459
I0
sS'separate--false'
p460
I0
sS'alternate-DOBJ-true'
p461
I0
sS'prepare--false'
p462
I0
sS'skim--false'
p463
I0
sS'let-PARG-false'
p464
I0
sS'replace-DOBJ-true'
p465
I0
sS'repeat-DOBJPARG-false'
p466
I0
sS'cake--false'
p467
I3
sS'poke-DOBJ-false'
p468
I0
sS'pack-DOBJ-true'
p469
I0
sS'dump-DOBJPARG-true'
p470
I1
sS'portion-DOBJPARG-false'
p471
I0
sS'crumble-DOBJPARG-false'
p472
I0
sS'drizzle-PARG-false'
p473
I0
sS'return-DOBJ-false'
p474
I0
sS'crack-DOBJ-true'
p475
I1
sS'assemble-PARG-true'
p476
I0
sS'coat-PARG-false'
p477
I0
sS'drop-PARG-false'
p478
I0
sS'cool--false'
p479
I100
sS'chill-DOBJPARG-false'
p480
I0
sS'handle-PARG-false'
p481
I0
sS'pulse-DOBJ-true'
p482
I1
sS'lock-DOBJPARG-true'
p483
I0
sS'soak-DOBJ-false'
p484
I0
sS'tuck-DOBJ-true'
p485
I0
sS'toast-DOBJ-true'
p486
I2
sS'split-DOBJPARG-true'
p487
I0
sS'taste--false'
p488
I4
sS'mince--false'
p489
I2
sS'remove-DOBJPARG-false'
p490
I0
sS'keep-DOBJ-false'
p491
I0
sS'dunk--false'
p492
I0
sS'dip-DOBJ-true'
p493
I1
sS'prick-DOBJPARG-false'
p494
I0
sS'arrange-DOBJ-false'
p495
I0
sS'butter-DOBJ-false'
p496
I0
sS'measure-PARG-false'
p497
I0
sS'knead-PARG-true'
p498
I2
sS'shake-DOBJPARG-true'
p499
I1
sS'muddle--false'
p500
I0
sS'spray-DOBJ-true'
p501
I0
sS'blend-PARG-true'
p502
I48
sS'hold-DOBJPARG-false'
p503
I0
sS'pack-PARG-true'
p504
I3
sS'fry-PARG-false'
p505
I0
sS'slice-DOBJ-true'
p506
I17
sS'begin-DOBJ-true'
p507
I0
sS'coat--false'
p508
I2
sS'mix-DOBJPARG-true'
p509
I534
sS'stuff-DOBJ-false'
p510
I0
sS'form--false'
p511
I3
sS'whip-DOBJPARG-false'
p512
I0
sS'test-DOBJPARG-false'
p513
I0
sS'tap-DOBJPARG-false'
p514
I0
sS'steep--false'
p515
I0
sS'icing-DOBJ-true'
p516
I0
sS'tilt-PARG-false'
p517
I0
sS'coating-DOBJPARG-false'
p518
I0
sS'whirl-DOBJPARG-false'
p519
I0
sS'ladle-DOBJ-false'
p520
I0
sS'combine-DOBJPARG-false'
p521
I0
sS'refrigerate-DOBJ-false'
p522
I0
sS'grease-DOBJPARG-false'
p523
I0
sS'pull--false'
p524
I1
sS'fluff-DOBJPARG-true'
p525
I3
sS'poach-DOBJPARG-false'
p526
I0
sS'dunk-DOBJPARG-true'
p527
I2
sS'line-DOBJPARG-true'
p528
I36
sS'sort-PARG-false'
p529
I0
sS'icing-DOBJPARG-true'
p530
I0
sS'set-DOBJ-true'
p531
I48
sS'uncover-DOBJPARG-false'
p532
I0
sS'warm-DOBJ-true'
p533
I1
sS'freeze-DOBJ-true'
p534
I0
sS'align-PARG-false'
p535
I0
sS'roast-DOBJPARG-false'
p536
I0
sS'rest-DOBJPARG-false'
p537
I0
sS'lift-DOBJPARG-false'
p538
I0
sS'best-DOBJ-false'
p539
I0
sS'thread--false'
p540
I0
sS'drizzle-DOBJPARG-true'
p541
I29
sS'soak-DOBJ-true'
p542
I0
sS'reshape-DOBJ-false'
p543
I0
sS'dab-DOBJPARG-true'
p544
I1
sS'salt-PARG-false'
p545
I0
sS'cake-DOBJ-true'
p546
I5
sS'quarter-DOBJPARG-false'
p547
I0
sS'dust-PARG-true'
p548
I9
sS'marinate-DOBJ-true'
p549
I0
sS'taste-DOBJPARG-false'
p550
I0
sS'mince-DOBJPARG-false'
p551
I0
sS'trim-DOBJ-true'
p552
I2
sS'plunge-DOBJ-false'
p553
I0
sS'dunk-PARG-false'
p554
I0
sS'rest--false'
p555
I1
sS'drop-DOBJ-false'
p556
I0
sS'julienne-PARG-true'
p557
I0
sS'melt-DOBJ-true'
p558
I7
sS'handle-DOBJ-false'
p559
I0
sS'stir-PARG-true'
p560
I1523
sS'spoon-PARG-true'
p561
I53
sS'load--false'
p562
I0
sS'squeeze-DOBJ-false'
p563
I0
sS'fit--false'
p564
I0
sS'prepare-DOBJ-true'
p565
I11
sS'dry-PARG-true'
p566
I1
sS'prepare-PARG-true'
p567
I1
sS'pound-DOBJPARG-true'
p568
I0
sS'assemble-DOBJ-false'
p569
I0
sS'moisten-PARG-true'
p570
I0
sS'set-PARG-false'
p571
I0
sS'ensure-DOBJ-true'
p572
I0
sS'freezing-PARG-false'
p573
I0
sS'best-PARG-false'
p574
I0
sS'invert-DOBJ-true'
p575
I0
sS'run-DOBJPARG-false'
p576
I0
sS'mince-DOBJ-false'
p577
I0
sS'dump-DOBJ-false'
p578
I0
sS'move--false'
p579
I0
sS'cube-DOBJ-false'
p580
I0
sS'cut-PARG-true'
p581
I65
sS'pick-DOBJPARG-true'
p582
I2
sS'put-PARG-false'
p583
I0
sS'dredge--false'
p584
I0
sS'julienne--false'
p585
I0
sS'scrape-DOBJ-false'
p586
I0
sS'run-PARG-true'
p587
I4
sS'shake-PARG-true'
p588
I20
sS'continue-PARG-false'
p589
I0
sS'stir--false'
p590
I224
sS'lower-DOBJ-false'
p591
I0
sS'marinate-DOBJPARG-false'
p592
I0
sS'chill-PARG-true'
p593
I88
sS'stream-DOBJ-false'
p594
I0
sS'puree-PARG-false'
p595
I0
sS'portion-DOBJ-true'
p596
I0
sS'oil-DOBJ-true'
p597
I29
sS'sprinkle-PARG-true'
p598
I274
sS'puree-DOBJ-true'
p599
I1
sS'season-DOBJPARG-false'
p600
I0
sS'arrange-DOBJPARG-true'
p601
I107
sS'fill-PARG-true'
p602
I29
sS'poach-DOBJ-false'
p603
I0
sS'knife-DOBJPARG-false'
p604
I0
sS'start-DOBJPARG-true'
p605
I2
sS'saute-DOBJ-false'
p606
I0
sS'freezing-DOBJPARG-false'
p607
I0
sS'thread-DOBJ-false'
p608
I0
sS'spoon-PARG-false'
p609
I0
sS'place-DOBJPARG-true'
p610
I824
sS'separate-PARG-true'
p611
I3
sS'brown-DOBJ-false'
p612
I0
sS'increase-PARG-true'
p613
I0
sS'flute-DOBJ-true'
p614
I1
sS'dredge-DOBJ-false'
p615
I0
sS'cover-DOBJPARG-true'
p616
I112
sS'take--false'
p617
I0
sS'thread-PARG-false'
p618
I0
sS'reduce-DOBJPARG-false'
p619
I0
sS'flour-PARG-false'
p620
I0
sS'mix-PARG-false'
p621
I0
sS'raise-DOBJ-false'
p622
I0
sS'build-DOBJPARG-false'
p623
I0
sS'cool-DOBJ-false'
p624
I0
sS'cut-DOBJPARG-false'
p625
I0
sS'preheat-PARG-true'
p626
I1
sS'best-DOBJ-true'
p627
I0
sS'soak-PARG-false'
p628
I0
sS'frost-PARG-true'
p629
I7
sS'cube-DOBJPARG-true'
p630
I2
sS'unroll-PARG-false'
p631
I0
sS'ready--false'
p632
I0
sS'alternate-DOBJPARG-false'
p633
I0
sS'spray-DOBJPARG-true'
p634
I56
sS'reserve-DOBJPARG-true'
p635
I14
sS'toss-DOBJ-false'
p636
I0
sS'store-PARG-true'
p637
I7
sS'braise-DOBJ-true'
p638
I0
sS'thaw--false'
p639
I0
sS'pinch-DOBJ-true'
p640
I1
sS'allow-DOBJPARG-true'
p641
I44
sS'grill-DOBJPARG-true'
p642
I13
sS'surround-DOBJPARG-true'
p643
I1
sS'chop-DOBJPARG-true'
p644
I13
sS'wash-DOBJPARG-true'
p645
I0
sS'align-DOBJ-true'
p646
I0
sS'sort-DOBJ-true'
p647
I1
sS'pack-DOBJPARG-true'
p648
I7
sS'pour-DOBJPARG-true'
p649
I425
sS'serve-PARG-true'
p650
I114
sS'remove-PARG-true'
p651
I333
sS'reserve-DOBJPARG-false'
p652
I0
sS'core--false'
p653
I0
sS'salt-DOBJ-true'
p654
I0
sS'grease-DOBJ-true'
p655
I197
sS'icing-DOBJ-false'
p656
I0
sS'tap-DOBJ-true'
p657
I1
sS'freeze-PARG-true'
p658
I2
sS'check-DOBJPARG-false'
p659
I0
sS'cut-DOBJPARG-true'
p660
I130
sS'pick-PARG-true'
p661
I1
sS'pipe-PARG-false'
p662
I0
sS'press-DOBJPARG-true'
p663
I42
sS'smother-DOBJ-true'
p664
I0
sS'cool-PARG-true'
p665
I112
sS'round-DOBJPARG-true'
p666
I0
sS'freeze-PARG-false'
p667
I0
sS'scrape-PARG-true'
p668
I1
sS'spread-DOBJ-true'
p669
I5
sS'put-DOBJPARG-false'
p670
I0
sS'gather-DOBJPARG-true'
p671
I0
sS'butter-DOBJPARG-true'
p672
I3
sS'serve-DOBJPARG-false'
p673
I0
sS'flatten-DOBJPARG-false'
p674
I0
sS'grill-DOBJPARG-false'
p675
I0
sS'run-DOBJ-true'
p676
I0
sS'cube-PARG-true'
p677
I0
sS'plop-PARG-true'
p678
I0
sS'toss-PARG-true'
p679
I198
sS'slide-PARG-true'
p680
I1
sS'shave-DOBJ-false'
p681
I0
sS'heat--false'
p682
I7
sS'crack-PARG-true'
p683
I0
sS'taste-DOBJ-true'
p684
I8
sS'note-DOBJ-true'
p685
I0
sS'can--false'
p686
I0
sS'grease-PARG-false'
p687
I0
sS'separate-DOBJPARG-false'
p688
I0
sS'flip-PARG-true'
p689
I0
sS'halve--false'
p690
I0
sS'store-DOBJPARG-false'
p691
I0
sS'grind-PARG-true'
p692
I1
sS'icing-DOBJPARG-false'
p693
I0
sS'lower-PARG-false'
p694
I0
sS'make-DOBJPARG-true'
p695
I33
sS'enjoy-PARG-true'
p696
I0
sS'prick--false'
p697
I0
sS'open-PARG-false'
p698
I0
sS'simmer-PARG-false'
p699
I0
sS'shake-PARG-false'
p700
I0
sS'halve-DOBJPARG-false'
p701
I0
sS'drain-DOBJPARG-false'
p702
I0
sS'build-DOBJ-true'
p703
I0
sS'wear-PARG-false'
p704
I0
sS'sprinkle-DOBJPARG-false'
p705
I0
sS'heat-DOBJPARG-false'
p706
I0
sS'continue-DOBJPARG-false'
p707
I0
sS'thaw-PARG-true'
p708
I1
sS'tent-DOBJ-true'
p709
I0
sS'quarter-DOBJPARG-true'
p710
I0
sS'divide-DOBJ-false'
p711
I0
sS'clean-PARG-false'
p712
I0
sS'thaw-DOBJPARG-false'
p713
I0
sS'shred--false'
p714
I5
sS'steam-PARG-true'
p715
I3
sS'baste-DOBJPARG-true'
p716
I2
sS'have-DOBJPARG-true'
p717
I0
sS'coat-DOBJ-false'
p718
I0
sS'scrub-DOBJPARG-false'
p719
I0
sS'wear-DOBJPARG-true'
p720
I0
sS'create-DOBJPARG-true'
p721
I2
sS'rest-DOBJ-true'
p722
I0
sS'chop-PARG-false'
p723
I0
sS'puree-DOBJPARG-false'
p724
I0
sS'check-PARG-true'
p725
I4
sS'end-DOBJ-true'
p726
I0
sS'quarter-DOBJ-true'
p727
I0
sS'end-PARG-true'
p728
I1
sS'load-PARG-true'
p729
I0
sS'scramble-DOBJ-false'
p730
I0
sS'let-DOBJ-true'
p731
I43
sS'bake-PARG-true'
p732
I775
sS'freeze--false'
p733
I3
sS'mound-DOBJ-false'
p734
I0
sS'smother-PARG-true'
p735
I2
sS'rinse-DOBJPARG-false'
p736
I0
sS'lay-PARG-false'
p737
I0
sS'sift--false'
p738
I0
sS'plop-PARG-false'
p739
I0
sS'flip-DOBJPARG-false'
p740
I0
sS'dump-DOBJ-true'
p741
I0
sS'increase-DOBJPARG-true'
p742
I22
sS'gather-DOBJ-true'
p743
I2
sS'freezing-DOBJ-false'
p744
I0
sS'round-DOBJPARG-false'
p745
I0
sS'unwrap-DOBJ-true'
p746
I1
sS'boil-DOBJPARG-true'
p747
I17
sS'muddle-DOBJPARG-true'
p748
I1
sS'portion-DOBJPARG-true'
p749
I1
sS'watch-DOBJ-true'
p750
I2
sS'fill-DOBJPARG-true'
p751
I112
sS'throw-DOBJPARG-true'
p752
I1
sS'sauce-DOBJ-true'
p753
I1
sS'layer-PARG-true'
p754
I17
sS'place-DOBJ-false'
p755
I0
sS'ensure-DOBJ-false'
p756
I0
sS'decorate-DOBJ-false'
p757
I0
sS'seat-DOBJPARG-true'
p758
I0
sS'coating-DOBJ-true'
p759
I2
sS'grill--false'
p760
I1
sS'lift-DOBJ-true'
p761
I2
sS'turn-DOBJ-false'
p762
I0
sS'loosen-PARG-true'
p763
I1
sS'skim-DOBJ-false'
p764
I0
sS'move-DOBJPARG-false'
p765
I0
sS'crimp-DOBJ-true'
p766
I1
sS'tent-DOBJ-false'
p767
I0
sS'drain-PARG-false'
p768
I0
sS'whip-DOBJPARG-true'
p769
I4
sS'crack-DOBJPARG-false'
p770
I0
sS'bring--false'
p771
I2
sS'makes--false'
p772
I0
sS'line-DOBJ-true'
p773
I0
sS'broil-DOBJ-true'
p774
I0
sS'process-PARG-true'
p775
I17
sS'chill--false'
p776
I34
sS'blend-PARG-false'
p777
I0
sS'pulse-DOBJPARG-false'
p778
I0
sS'prick-DOBJ-true'
p779
I1
sS'turn-DOBJ-true'
p780
I2
sS'cube-DOBJ-true'
p781
I1
sS'baste-PARG-false'
p782
I0
sS'crumble-PARG-false'
p783
I0
sS'align--false'
p784
I0
sS'adjust-DOBJPARG-false'
p785
I0
sS'pour-DOBJ-false'
p786
I0
sS'flavor-DOBJPARG-false'
p787
I0
sS'rest-PARG-true'
p788
I1
sS'oil--false'
p789
I2
sS'tap-PARG-false'
p790
I0
sS'pare-PARG-false'
p791
I0
sS'assemble--false'
p792
I0
sS'core-PARG-false'
p793
I0
sS'top-PARG-true'
p794
I248
sS'split-DOBJ-false'
p795
I0
sS'arrange-DOBJPARG-false'
p796
I0
sS'lock-PARG-true'
p797
I0
sS'poke-PARG-false'
p798
I0
sS'tear-DOBJPARG-false'
p799
I0
sS'muddle-DOBJ-true'
p800
I0
sS'sort-PARG-true'
p801
I0
sS'tilt-PARG-true'
p802
I1
sS'transfer--false'
p803
I12
sS'refrigerate-DOBJ-true'
p804
I9
sS'plop--false'
p805
I0
sS'cream-DOBJ-true'
p806
I4
sS'grease-DOBJPARG-true'
p807
I18
sS'flavor--false'
p808
I1
sS'dump--false'
p809
I0
sS'tear-DOBJ-true'
p810
I0
sS'scrape-DOBJPARG-true'
p811
I7
sS'replace-PARG-false'
p812
I0
sS'make-DOBJ-true'
p813
I4
sS'wear-DOBJ-true'
p814
I1
sS'continue-DOBJ-false'
p815
I0
sS'flip-DOBJ-false'
p816
I0
sS'grill-PARG-false'
p817
I0
sS'hollow-PARG-true'
p818
I1
sS'split-DOBJ-true'
p819
I1
sS'taste-DOBJPARG-true'
p820
I0
sS'move-PARG-false'
p821
I0
sS'set-DOBJPARG-false'
p822
I0
sS'knife-DOBJ-true'
p823
I1
sS'position-DOBJPARG-false'
p824
I0
sS'hold-DOBJ-false'
p825
I0
sS'fluff--false'
p826
I0
sS'drop-PARG-true'
p827
I7
sS'pare-PARG-true'
p828
I0
sS'allow-PARG-false'
p829
I0
sS'poach-DOBJ-true'
p830
I0
sS'julienne-DOBJ-false'
p831
I0
sS'cook-PARG-true'
p832
I942
sS'finish-DOBJ-true'
p833
I0
sS'chop-PARG-true'
p834
I6
sS'marinate-PARG-false'
p835
I0
sS'hold--false'
p836
I2
sS'unwrap-PARG-true'
p837
I0
sS'assemble-DOBJPARG-false'
p838
I0
sS'pinch-PARG-true'
p839
I0
sS'reheat-DOBJ-false'
p840
I0
sS'add-DOBJPARG-false'
p841
I0
sS'create-DOBJPARG-false'
p842
I0
sS'makes-DOBJ-true'
p843
I1
sS'push-PARG-true'
p844
I1
sS'frost-DOBJPARG-true'
p845
I1
sS'start-PARG-true'
p846
I3
sS'melt--false'
p847
I0
sS'dice-PARG-true'
p848
I2
sS'scatter-DOBJPARG-false'
p849
I0
sS'tear-PARG-false'
p850
I0
sS'adjust-DOBJ-true'
p851
I1
sS'prick-PARG-true'
p852
I0
sS'use-DOBJPARG-false'
p853
I0
sS'cool-DOBJPARG-false'
p854
I0
sS'dab-DOBJ-true'
p855
I0
sS'repeat-DOBJPARG-true'
p856
I28
sS'lift--false'
p857
I0
sS'unwrap-DOBJPARG-false'
p858
I0
sS'empty--false'
p859
I0
sS'peel-DOBJ-true'
p860
I35
sS'let-DOBJPARG-true'
p861
I151
sS'garnish-DOBJPARG-true'
p862
I15
sS'coat-PARG-true'
p863
I11
sS'pass-PARG-false'
p864
I0
sS'steam-PARG-false'
p865
I0
sS'smother-DOBJ-false'
p866
I0
sS'chop-DOBJ-true'
p867
I17
sS'lie-PARG-true'
p868
I0
sS'spread-PARG-true'
p869
I75
sS'water-PARG-true'
p870
I2
sS'scramble-PARG-false'
p871
I0
sS'cook-DOBJPARG-true'
p872
I588
sS'top--false'
p873
I1
sS'boil--false'
p874
I2
sS'seal-DOBJPARG-true'
p875
I1
sS'line-DOBJ-false'
p876
I0
sS'sprinkle-DOBJ-true'
p877
I6
sS'dot-DOBJPARG-false'
p878
I0
sS'replace--false'
p879
I0
sS'create-PARG-true'
p880
I0
sS'stuff-DOBJ-true'
p881
I1
sS'discard--false'
p882
I53
sS'tip-PARG-false'
p883
I0
sS'use-DOBJ-false'
p884
I0
sS'tap-DOBJ-false'
p885
I0
sS'core-DOBJ-true'
p886
I1
sS'halve-DOBJ-false'
p887
I0
sS'reshape-DOBJPARG-false'
p888
I0
sS'layer-DOBJ-true'
p889
I5
sS'smooth-DOBJ-false'
p890
I0
sS'adjust--false'
p891
I3
sS'hold-PARG-false'
p892
I0
sS'whip--false'
p893
I0
sS'ask-DOBJ-true'
p894
I0
sS'pipe--false'
p895
I0
sS'roast-DOBJPARG-true'
p896
I4
sS'prick-DOBJPARG-true'
p897
I2
sS'whirl-DOBJ-true'
p898
I0
sS'melt-PARG-false'
p899
I0
sS'press-DOBJPARG-false'
p900
I0
sS'handle--false'
p901
I0
sS'shape--false'
p902
I1
sS'let-DOBJPARG-false'
p903
I0
sS'turn-PARG-false'
p904
I0
sS'pull-DOBJPARG-false'
p905
I0
sS'quarter-DOBJ-false'
p906
I0
sS'sprinkle-DOBJ-false'
p907
I0
sS'smother-PARG-false'
p908
I0
sS'crumble-DOBJPARG-true'
p909
I43
sS'flavor-DOBJPARG-true'
p910
I0
sS'divide-DOBJPARG-false'
p911
I0
sS'scatter-PARG-false'
p912
I0
sS'let-DOBJ-false'
p913
I0
sS'sort--false'
p914
I1
sS'place--false'
p915
I9
sS'grind-DOBJPARG-false'
p916
I0
sS'slice-PARG-false'
p917
I0
sS'water-DOBJ-false'
p918
I0
sS'rub-PARG-true'
p919
I1
sS'scrub--false'
p920
I0
sS'separate-PARG-false'
p921
I0
sS'grease-DOBJ-false'
p922
I0
sS'boil-PARG-false'
p923
I0
sS'fit-PARG-true'
p924
I1
sS'measure-DOBJPARG-false'
p925
I0
sS'lie-DOBJ-false'
p926
I0
sS'enjoy-PARG-false'
p927
I0
sS'shred-DOBJ-false'
p928
I0
sS'pipe-DOBJPARG-true'
p929
I13
sS'surround-PARG-false'
p930
I0
sS'grease-PARG-true'
p931
I7
sS'mound-PARG-true'
p932
I1
sS'shape-PARG-false'
p933
I0
sS'toss--false'
p934
I48
sS'fit-DOBJPARG-false'
p935
I0
sS'mince-PARG-true'
p936
I0
sS'dice-DOBJ-false'
p937
I0
sS'snip-DOBJPARG-true'
p938
I5
sS'spread-DOBJ-false'
p939
I0
sS'mince-DOBJPARG-true'
p940
I0
sS'remove-PARG-false'
p941
I0
sS'note--false'
p942
I8
sS'round-PARG-true'
p943
I0
sS'repeat-DOBJ-true'
p944
I30
sS'saute-DOBJPARG-false'
p945
I0
sS'pound--false'
p946
I0
sS'puree-PARG-true'
p947
I14
sS'reheat--false'
p948
I0
sS'break-DOBJ-false'
p949
I0
sS'broil-PARG-true'
p950
I11
sS'cake-DOBJPARG-false'
p951
I0
sS'dissolve-DOBJPARG-false'
p952
I0
sS'replace-DOBJPARG-false'
p953
I0
sS'tent-DOBJPARG-true'
p954
I0
sS'preheat-DOBJ-true'
p955
I8
sS'sauce--false'
p956
I5
sS'watch-DOBJ-false'
p957
I0
sS'measure-DOBJ-false'
p958
I0
sS'dot-PARG-false'
p959
I0
sS'twist-DOBJPARG-false'
p960
I0
sS'refrigerate-PARG-false'
p961
I0
sS'cake-PARG-false'
p962
I0
sS'twist-DOBJ-false'
p963
I0
sS'dry--false'
p964
I1
sS'steep-DOBJPARG-true'
p965
I1
sS'rinse--false'
p966
I22
sS'process-PARG-false'
p967
I0
sS'press-DOBJ-true'
p968
I1
sS'pare-DOBJ-true'
p969
I0
sS'toast-DOBJPARG-true'
p970
I7
sS'split-DOBJPARG-false'
p971
I0
sS'transfer-DOBJPARG-false'
p972
I0
sS'sauce-PARG-true'
p973
I12
sS'moisten-PARG-false'
p974
I0
sS'stir-DOBJ-false'
p975
I0
sS'fold-PARG-true'
p976
I66
sS'slide-DOBJ-false'
p977
I0
sS'begin-DOBJPARG-false'
p978
I0
sS'continue-DOBJ-true'
p979
I0
sS'season-DOBJ-false'
p980
I0
sS'hollow-PARG-false'
p981
I0
sS'form-PARG-false'
p982
I0
sS'uncover-PARG-false'
p983
I0
sS'icing--false'
p984
I3
sS'cube--false'
p985
I5
sS'fold--false'
p986
I0
sS'pulse-PARG-false'
p987
I0
sS'follow--false'
p988
I0
sS'heat-PARG-false'
p989
I0
sS'icing-PARG-true'
p990
I0
sS'snip--false'
p991
I0
sS'use-DOBJ-true'
p992
I8
sS'watch-PARG-false'
p993
I0
sS'dust-DOBJ-false'
p994
I0
sS'stream-DOBJPARG-true'
p995
I2
sS'make-DOBJ-false'
p996
I0
sS'leave-DOBJPARG-true'
p997
I6
sS'seat-DOBJPARG-false'
p998
I0
sS'transfer-DOBJ-false'
p999
I0
sS'scoop-PARG-true'
p1000
I8
sS'ask-DOBJPARG-true'
p1001
I1
sS'start-DOBJ-false'
p1002
I0
sS'lift-DOBJ-false'
p1003
I0
sS'crush-PARG-false'
p1004
I0
sS'run-DOBJPARG-true'
p1005
I3
sS'toss-DOBJPARG-false'
p1006
I0
sS'cut--false'
p1007
I6
sS'alternate--false'
p1008
I0
sS'test-DOBJPARG-true'
p1009
I0
sS'smooth-PARG-true'
p1010
I5
sS'bring-PARG-true'
p1011
I408
sS'follow-DOBJPARG-true'
p1012
I3
sS'scramble-DOBJPARG-false'
p1013
I0
sS'best-PARG-true'
p1014
I1
sS'reserve-PARG-false'
p1015
I0
sS'coat-DOBJPARG-true'
p1016
I25
sS'scrape-DOBJ-true'
p1017
I4
sS'adjust-DOBJ-false'
p1018
I0
sS'separate-DOBJ-true'
p1019
I5
sS'dot-DOBJPARG-true'
p1020
I4
sS'brush-DOBJPARG-false'
p1021
I0
sS'stack-DOBJPARG-false'
p1022
I0
sS'refrigerate-DOBJPARG-true'
p1023
I10
sS'loosen-DOBJPARG-false'
p1024
I0
sS'flavor-PARG-true'
p1025
I1
sS'start-PARG-false'
p1026
I0
sS'fluff-DOBJ-false'
p1027
I0
sS'melt-DOBJ-false'
p1028
I0
sS'saute-PARG-true'
p1029
I49
sS'surround--false'
p1030
I0
sS'tuck-DOBJPARG-true'
p1031
I1
sS'shred-DOBJ-true'
p1032
I5
sS'press--false'
p1033
I4
sS'crack-DOBJ-false'
p1034
I0
sS'unroll--false'
p1035
I0
sS'core-DOBJPARG-true'
p1036
I0
sS'flavor-PARG-false'
p1037
I0
sS'test-PARG-false'
p1038
I0
sS'create-DOBJ-true'
p1039
I0
sS'flip-DOBJ-true'
p1040
I3
sS'brush-PARG-false'
p1041
I0
sS'work-DOBJPARG-false'
p1042
I0
sS'season-PARG-true'
p1043
I373
sS'scoop-DOBJ-true'
p1044
I1
sS'decrease--false'
p1045
I0
sS'cake-PARG-true'
p1046
I0
sS'simmer-PARG-true'
p1047
I273
sS'rest-DOBJ-false'
p1048
I0
sS'test-DOBJ-false'
p1049
I0
sS'broil-DOBJPARG-true'
p1050
I5
sS'strain--false'
p1051
I1
sS'test--false'
p1052
I0
sS'cream-DOBJPARG-true'
p1053
I16
sS'overlap-DOBJ-true'
p1054
I0
sS'cream-DOBJ-false'
p1055
I0
sS'brown-DOBJ-true'
p1056
I10
sS'hollow-DOBJPARG-true'
p1057
I0
sS'slide-DOBJPARG-false'
p1058
I0
sS'spoon-DOBJ-false'
p1059
I0
sS'follow-DOBJ-false'
p1060
I0
sS'scramble-DOBJPARG-true'
p1061
I2
sS'blend-DOBJPARG-false'
p1062
I0
sS'crumble-DOBJ-true'
p1063
I5
sS'raise-DOBJPARG-true'
p1064
I3
sS'flute-PARG-false'
p1065
I0
sS'pull-DOBJ-true'
p1066
I0
sS'dissolve--false'
p1067
I2
sS'spoon-DOBJPARG-true'
p1068
I149
sS'brown-DOBJPARG-true'
p1069
I110
sS'knife-DOBJPARG-true'
p1070
I1
sS'knife-PARG-true'
p1071
I1
sS'have-DOBJPARG-false'
p1072
I0
sS'place-PARG-true'
p1073
I165
sS'make-PARG-true'
p1074
I0
sS'stuff-PARG-true'
p1075
I1
sS'fry-DOBJPARG-false'
p1076
I0
sS'water--false'
p1077
I1
sS'coat-DOBJ-true'
p1078
I0
sS'muddle-DOBJ-false'
p1079
I0
sS'break-DOBJPARG-true'
p1080
I18
sS'oil-PARG-true'
p1081
I5
sS'wrap-PARG-true'
p1082
I9
sS'ready-DOBJPARG-true'
p1083
I3
sS'toss-DOBJPARG-true'
p1084
I133
sS'empty-DOBJ-false'
p1085
I0
sS'reposition--false'
p1086
I0
sS'butter-DOBJ-true'
p1087
I19
sS'tear-DOBJ-false'
p1088
I0
sS'blanch-DOBJPARG-false'
p1089
I0
sS'simmer-DOBJPARG-true'
p1090
I44
sS'fill-PARG-false'
p1091
I0
sS'roast-DOBJ-true'
p1092
I0
sS'rest-PARG-false'
p1093
I0
sS'empty-DOBJ-true'
p1094
I0
sS'julienne-DOBJPARG-true'
p1095
I1
sS'lie-PARG-false'
p1096
I0
sS'pack-DOBJ-false'
p1097
I0
sS'mash-DOBJPARG-true'
p1098
I66
sS'round--false'
p1099
I0
sS'take-DOBJPARG-false'
p1100
I0
sS'cream-PARG-false'
p1101
I0
sS'turn--false'
p1102
I1
sS'load-DOBJ-true'
p1103
I0
sS'store-DOBJPARG-true'
p1104
I4
sS'wash-DOBJ-true'
p1105
I2
sS'salt-DOBJPARG-true'
p1106
I1
sS'bake-DOBJ-true'
p1107
I5
sS'simmer-DOBJ-true'
p1108
I1
sS'create-PARG-false'
p1109
I0
sS'enjoy-DOBJ-true'
p1110
I0
sS'put-DOBJPARG-true'
p1111
I16
sS'twist--false'
p1112
I0
sS'loosen--false'
p1113
I0
sS'whip-DOBJ-false'
p1114
I0
sS'pass-DOBJ-false'
p1115
I0
sS'finish-PARG-true'
p1116
I3
sS'pass-DOBJPARG-true'
p1117
I1
sS'flatten--false'
p1118
I0
sS'taste-PARG-false'
p1119
I0
sS'knife-DOBJ-false'
p1120
I0
sS'tilt-DOBJPARG-true'
p1121
I1
sS'thaw-DOBJ-true'
p1122
I0
sS'thicken-PARG-false'
p1123
I0
sS'serve--false'
p1124
I153
sS'measure--false'
p1125
I0
sS'unroll-DOBJPARG-true'
p1126
I2
sS'microwave-DOBJPARG-false'
p1127
I0
sS'tilt-DOBJ-true'
p1128
I0
sS'loosen-DOBJ-true'
p1129
I0
sS'canned-DOBJPARG-false'
p1130
I0
sS'microwave--false'
p1131
I0
sS'fluff-PARG-false'
p1132
I0
sS'fry-DOBJPARG-true'
p1133
I28
sS'transfer-DOBJPARG-true'
p1134
I109
sS'prepare-DOBJPARG-true'
p1135
I43
sS'warm-DOBJPARG-true'
p1136
I6
sS'beat-PARG-true'
p1137
I55
sS'pound-PARG-true'
p1138
I2
sS'peel-PARG-false'
p1139
I0
sS'shake-DOBJ-false'
p1140
I0
sS'scrape-DOBJPARG-false'
p1141
I0
sS'lay-DOBJ-false'
p1142
I0
sS'sift-PARG-false'
p1143
I0
sS'taste-PARG-true'
p1144
I3
sS'place-DOBJ-true'
p1145
I7
sS'dab-PARG-true'
p1146
I1
sS'form-DOBJPARG-true'
p1147
I27
sS'fold-DOBJ-false'
p1148
I0
sS'trim-DOBJPARG-false'
p1149
I0
sS'enjoy-DOBJ-false'
p1150
I0
sS'hold-DOBJPARG-true'
p1151
I4
sS'pound-PARG-false'
p1152
I0
sS'bake-DOBJPARG-false'
p1153
I0
sS'increase-DOBJ-false'
p1154
I0
sS'reposition-DOBJ-true'
p1155
I1
sS'plunge-DOBJ-true'
p1156
I0
sS'thread-PARG-true'
p1157
I0
sS'smother-DOBJPARG-true'
p1158
I0
sS'remove-DOBJ-false'
p1159
I0
sS'mash-PARG-false'
p1160
I0
sS'reshape-DOBJPARG-true'
p1161
I1
sS'whip-PARG-false'
p1162
I0
sS'saute-PARG-false'
p1163
I0
sS'peel-PARG-true'
p1164
I6
sS'shave-PARG-true'
p1165
I1
sS'dump-PARG-true'
p1166
I1
sS'brush-DOBJ-true'
p1167
I2
sS'wash-PARG-false'
p1168
I0
sS'pour-DOBJPARG-false'
p1169
I0
sS'thaw-DOBJPARG-true'
p1170
I0
sS'butter-DOBJPARG-false'
p1171
I0
sS'ladle-DOBJPARG-false'
p1172
I0
sS'distribute-PARG-true'
p1173
I0
sS'adjust-PARG-false'
p1174
I0
sS'scatter-DOBJ-true'
p1175
I0
sS'crust-DOBJ-true'
p1176
I0
sS'crumple-DOBJPARG-false'
p1177
I0
sS'dot-PARG-true'
p1178
I5
sS'watch-PARG-true'
p1179
I1
sS'dry-DOBJ-false'
p1180
I0
sS'moisten--false'
p1181
I0
sS'coating-DOBJ-false'
p1182
I0
sS'dust--false'
p1183
I0
sS'makes-PARG-false'
p1184
I0
sS'cool-DOBJ-true'
p1185
I8
sS'unroll-DOBJ-true'
p1186
I1
sS'cover-PARG-true'
p1187
I262
sS'arrange-PARG-false'
p1188
I0
sS'tip-DOBJ-true'
p1189
I2
sS'melt-DOBJPARG-true'
p1190
I200
sS'discard-PARG-false'
p1191
I0
sS'ladle--false'
p1192
I0
sS'dust-PARG-false'
p1193
I0
sS'fill-DOBJ-true'
p1194
I9
sS'run--false'
p1195
I0
sS'have-PARG-false'
p1196
I0
sS'skim-DOBJPARG-false'
p1197
I0
sS'overlap-PARG-false'
p1198
I0
sS'flavor-DOBJ-true'
p1199
I0
sS'use-PARG-false'
p1200
I0
sS'check-DOBJ-false'
p1201
I0
sS'tuck--false'
p1202
I0
sS'decrease-PARG-true'
p1203
I0
sS'layer-DOBJPARG-false'
p1204
I0
sS'keep-DOBJPARG-false'
p1205
I0
sS'coating--false'
p1206
I3
sS'cook-DOBJ-true'
p1207
I223
sS'wrap-PARG-false'
p1208
I0
sS'brown-PARG-true'
p1209
I36
sS'finish-PARG-false'
p1210
I0
sS'steep-DOBJPARG-false'
p1211
I0
sS'moisten-DOBJPARG-true'
p1212
I2
sS'core-DOBJPARG-false'
p1213
I0
sS'pierce--false'
p1214
I0
sS'brown--false'
p1215
I6
sS'stack-DOBJ-false'
p1216
I0
sS'chill-DOBJ-false'
p1217
I0
sS'moisten-DOBJ-false'
p1218
I0
sS'drop-DOBJPARG-false'
p1219
I0
sS'overlap-PARG-true'
p1220
I0
sS'crumb-DOBJPARG-false'
p1221
I0
sS'cook-PARG-false'
p1222
I0
sS'seat-PARG-false'
p1223
I0
sS'work-PARG-false'
p1224
I0
sS'crimp-DOBJ-false'
p1225
I0
sS'fluff-DOBJPARG-false'
p1226
I0
sS'bring-PARG-false'
p1227
I0
sS'swirl-DOBJ-true'
p1228
I0
sS'alternate-DOBJ-false'
p1229
I0
sS'trim--false'
p1230
I0
sS'follow-PARG-false'
p1231
I0
sS'butter-PARG-false'
p1232
I0
sS'stream-DOBJPARG-false'
p1233
I0
sS'repeat-PARG-true'
p1234
I28
sS'toast-PARG-false'
p1235
I0
sS'rinse-PARG-true'
p1236
I32
sS'pour-PARG-false'
p1237
I0
sS'can-DOBJPARG-false'
p1238
I0
sS'pull-PARG-true'
p1239
I3
sS'grate-DOBJ-false'
p1240
I0
sS'brush-PARG-true'
p1241
I6
sS'rinse-DOBJ-true'
p1242
I3
sS'replace-PARG-true'
p1243
I1
sS'mound-DOBJ-true'
p1244
I0
sS'grate-PARG-false'
p1245
I0
sS'check-DOBJ-true'
p1246
I0
sS'round-DOBJ-false'
p1247
I0
sS'scoop-PARG-false'
p1248
I0
sS'steam--false'
p1249
I1
sS'leave-DOBJPARG-false'
p1250
I0
sS'blanch--false'
p1251
I0
sS'serve-DOBJ-false'
p1252
I0
sS'wrap-DOBJ-true'
p1253
I0
sS'icing-PARG-false'
p1254
I0
sS'crush-DOBJPARG-true'
p1255
I3
sS'makes-PARG-true'
p1256
I0
sS'hollow-DOBJ-true'
p1257
I0
sS'alternate-PARG-true'
p1258
I1
sS'sort-DOBJ-false'
p1259
I0
sS'sprinkle-DOBJPARG-true'
p1260
I183
sS'pinch-DOBJPARG-true'
p1261
I3
sS'raise-DOBJ-true'
p1262
I0
sS'keep--false'
p1263
I3
sS'wrap-DOBJPARG-true'
p1264
I11
sS'tip--false'
p1265
I2
sS'lay--false'
p1266
I0
sS'watch-DOBJPARG-true'
p1267
I0
sS'wipe-DOBJ-false'
p1268
I0
sS'throw-PARG-true'
p1269
I0
sS'assemble-PARG-false'
p1270
I0
sS'tuck-PARG-true'
p1271
I0
sS'pinch-DOBJPARG-false'
p1272
I0
sS'pulse--false'
p1273
I0
sS'use--false'
p1274
I0
sS'take-DOBJ-false'
p1275
I0
sS'seal--false'
p1276
I10
sS'change-DOBJ-false'
p1277
I0
sS'reshape-DOBJ-true'
p1278
I0
sS'ready-DOBJ-true'
p1279
I0
sS'throw-PARG-false'
p1280
I0
sS'smooth-DOBJPARG-false'
p1281
I0
sS'coating-DOBJPARG-true'
p1282
I0
sS'cheese-PARG-false'
p1283
I0
sS'dunk-DOBJ-false'
p1284
I0
sS'gather-PARG-false'
p1285
I0
sS'add--false'
p1286
I6
sS'continue-PARG-true'
p1287
I52
sS'smother-DOBJPARG-false'
p1288
I0
sS'freezing-DOBJ-true'
p1289
I1
sS'grill-DOBJ-false'
p1290
I0
sS'fit-DOBJ-true'
p1291
I0
sS'seal-DOBJPARG-false'
p1292
I0
sS'serve-PARG-false'
p1293
I0
sS'lock--false'
p1294
I0
sS'melt-DOBJPARG-false'
p1295
I0
sS'put-DOBJ-false'
p1296
I0
sS'follow-DOBJPARG-false'
p1297
I0
sS'tap-PARG-true'
p1298
I2
sS'dab-PARG-false'
p1299
I0
sS'season--false'
p1300
I2
sS'allow-DOBJ-true'
p1301
I4
sS'flavor-DOBJ-false'
p1302
I0
sS'scatter--false'
p1303
I0
sS'boil-DOBJPARG-false'
p1304
I0
sS'tent-PARG-false'
p1305
I0
sS'cube-DOBJPARG-false'
p1306
I0
sS'invert-DOBJPARG-false'
p1307
I0
sS'smother--false'
p1308
I0
sS'cheese-PARG-true'
p1309
I2
sS'beat-DOBJPARG-true'
p1310
I141
sS'work-DOBJ-false'
p1311
I0
sS'watch-DOBJPARG-false'
p1312
I0
sS'flour--false'
p1313
I31
sS'roll-DOBJ-false'
p1314
I0
sS'gather--false'
p1315
I0
sS'sift-DOBJPARG-false'
p1316
I0
sS'assemble-DOBJ-true'
p1317
I0
sS'lay-PARG-true'
p1318
I2
sS'move-DOBJPARG-true'
p1319
I0
sS'strain-DOBJPARG-true'
p1320
I2
sS'stuff-DOBJPARG-true'
p1321
I3
sS'transfer-PARG-false'
p1322
I0
sS'crumble--false'
p1323
I27
sS'can-PARG-false'
p1324
I0
sS'pare-DOBJ-false'
p1325
I0
sS'start--false'
p1326
I1
sS'grind--false'
p1327
I0
sS'change-DOBJPARG-true'
p1328
I1
sS'makes-DOBJPARG-false'
p1329
I0
sS'blanch-PARG-false'
p1330
I0
sS'wipe-PARG-true'
p1331
I1
sS'mince-PARG-false'
p1332
I0
sS'pound-DOBJ-true'
p1333
I0
sS'portion-DOBJ-false'
p1334
I0
sS'mound--false'
p1335
I0
sS'lift-PARG-false'
p1336
I0
sS'soak-PARG-true'
p1337
I3
sS'salt-DOBJ-false'
p1338
I0
sS'squeeze-DOBJPARG-true'
p1339
I8
sS'crust-PARG-true'
p1340
I6
sS'crack-DOBJPARG-true'
p1341
I1
sS'smooth-PARG-false'
p1342
I0
sS'heat-DOBJ-true'
p1343
I50
sS'marinate-PARG-true'
p1344
I14
sS'peel-DOBJPARG-true'
p1345
I2
sS'dump-PARG-false'
p1346
I0
sS'microwave-DOBJPARG-true'
p1347
I1
sS'rub-PARG-false'
p1348
I0
sS'tap--false'
p1349
I0
sS'change--false'
p1350
I0
sS'tear--false'
p1351
I0
sS'make-DOBJPARG-false'
p1352
I0
sS'lock-DOBJPARG-false'
p1353
I0
sS'leave--false'
p1354
I0
sS'seat-DOBJ-true'
p1355
I0
sS'lift-DOBJPARG-true'
p1356
I3
sS'soak-DOBJPARG-false'
p1357
I0
sS'build--false'
p1358
I0
sS'seal-PARG-true'
p1359
I0
sS'pierce-DOBJPARG-false'
p1360
I0
sS'soak-DOBJPARG-true'
p1361
I20
sS'flute--false'
p1362
I1
sS'process-DOBJPARG-false'
p1363
I0
sS'decrease-DOBJ-true'
p1364
I0
sS'have-PARG-true'
p1365
I0
sS'layer-DOBJPARG-true'
p1366
I40
sS'reposition-DOBJPARG-true'
p1367
I0
sS'poach--false'
p1368
I0
sS'load-PARG-false'
p1369
I0
sS'scramble-DOBJ-true'
p1370
I1
sS'wear--false'
p1371
I0
sS'divide--false'
p1372
I1
sS'steam-DOBJ-true'
p1373
I0
sS'begin-PARG-false'
p1374
I0
sS'reserve-PARG-true'
p1375
I8
sS'move-DOBJ-true'
p1376
I1
sS'cheese-DOBJ-false'
p1377
I0
sS'add-PARG-true'
p1378
I71
sS'water-DOBJPARG-false'
p1379
I0
sS'stuff-PARG-false'
p1380
I0
sS'marinate-DOBJ-false'
p1381
I0
sS'thicken--false'
p1382
I0
sS'fry-DOBJ-true'
p1383
I3
sS'ask-PARG-true'
p1384
I0
sS'core-PARG-true'
p1385
I0
sS'overlap-DOBJPARG-false'
p1386
I0
sS'throw-DOBJ-false'
p1387
I0
sS'combine--false'
p1388
I3
sS'cut-PARG-false'
p1389
I0
sS'braise-DOBJ-false'
p1390
I0
sS'shape-DOBJ-false'
p1391
I0
sS'fill-DOBJ-false'
p1392
I0
sS'spoon-DOBJ-true'
p1393
I5
sS'roast-DOBJ-false'
p1394
I0
sS'crumb--false'
p1395
I0
sS'slide-DOBJPARG-true'
p1396
I2
sS'pare--false'
p1397
I0
sS'heat-DOBJ-false'
p1398
I0
sS'create--false'
p1399
I0
sS'julienne-DOBJ-true'
p1400
I0
sS'heat-PARG-true'
p1401
I43
sS'load-DOBJPARG-false'
p1402
I0
sS'sprinkle--false'
p1403
I0
sS'tuck-DOBJ-false'
p1404
I0
sS'finish--false'
p1405
I0
sS'can-PARG-true'
p1406
I2
sS'dust-DOBJPARG-false'
p1407
I0
sS'dissolve-PARG-true'
p1408
I1
sS'have-DOBJ-true'
p1409
I1
sS'crimp-PARG-false'
p1410
I0
sS'oil-DOBJPARG-false'
p1411
I0
sS'sauce-DOBJPARG-true'
p1412
I7
sS'pull-PARG-false'
p1413
I0
sS'knead-DOBJ-true'
p1414
I1
sS'dice-DOBJPARG-true'
p1415
I1
sS'unwrap-DOBJ-false'
p1416
I0
sS'pat-DOBJ-true'
p1417
I1
sS'reheat-DOBJ-true'
p1418
I1
sS'pare-DOBJPARG-false'
p1419
I0
sS'pat-PARG-true'
p1420
I11
sS'unroll-DOBJPARG-false'
p1421
I0
sS'ensure--false'
p1422
I0
sS'lower-DOBJPARG-false'
p1423
I0
sS'crumb-DOBJ-false'
p1424
I0
sS'press-PARG-true'
p1425
I21
sS'pick-DOBJPARG-false'
p1426
I0
sS'repeat-DOBJ-false'
p1427
I0
sS'poach-DOBJPARG-true'
p1428
I2
sS'crumple-DOBJ-true'
p1429
I1
sS'plunge-PARG-true'
p1430
I1
sS'trim-DOBJPARG-true'
p1431
I3
sS'discard-DOBJ-true'
p1432
I28
sS'tip-DOBJ-false'
p1433
I0
sS'cheese-DOBJ-true'
p1434
I2
sS'squeeze-DOBJPARG-false'
p1435
I0
sS'dot-DOBJ-true'
p1436
I0
sS'freezing-PARG-true'
p1437
I0
sS'whip-DOBJ-true'
p1438
I0
sS'roast-PARG-true'
p1439
I5
sS'chill-DOBJPARG-true'
p1440
I9
sS'store--false'
p1441
I1
sS'render-PARG-true'
p1442
I0
sS'finish-DOBJ-false'
p1443
I0
sS'slide--false'
p1444
I0
sS'increase-DOBJPARG-false'
p1445
I0
sS'season-DOBJ-true'
p1446
I1
sS'beat-DOBJ-true'
p1447
I22
sS'decorate-DOBJPARG-true'
p1448
I3
sS'spread-DOBJPARG-true'
p1449
I229
sS'quarter-PARG-false'
p1450
I0
sS'form-DOBJPARG-false'
p1451
I0
sS'allow--false'
p1452
I33
sS'beat-DOBJPARG-false'
p1453
I0
sS'steep-DOBJ-true'
p1454
I0
sS'loosen-PARG-false'
p1455
I0
sS'bring-DOBJ-true'
p1456
I2
sS'cheese-DOBJPARG-false'
p1457
I0
sS'cake-DOBJPARG-true'
p1458
I0
sS'wipe-PARG-false'
p1459
I0
sS'plop-DOBJ-true'
p1460
I0
sS'align-PARG-true'
p1461
I0
sS'butter-PARG-true'
p1462
I11
sS'fill-DOBJPARG-false'
p1463
I0
sS'poke-DOBJPARG-true'
p1464
I1
sS'adjust-DOBJPARG-true'
p1465
I13
sS'broil--false'
p1466
I1
sS'swirl-DOBJPARG-true'
p1467
I1
sS'throw--false'
p1468
I0
sS'poke-DOBJPARG-false'
p1469
I0
sS'served-DOBJPARG-true'
p1470
I3
sS'add-DOBJ-false'
p1471
I0
sS'overlap-DOBJ-false'
p1472
I0
sS'spray--false'
p1473
I2
sS'microwave-DOBJ-true'
p1474
I1
sS'work--false'
p1475
I0
sS'top-DOBJPARG-false'
p1476
I0
sS'poke--false'
p1477
I0
sS'salt--false'
p1478
I2
sS'sort-DOBJPARG-false'
p1479
I0
sS'frost-DOBJPARG-false'
p1480
I0
sS'pierce-DOBJPARG-true'
p1481
I3
sS'wrap-DOBJ-false'
p1482
I0
sS'reposition-DOBJPARG-false'
p1483
I0
sS'layer-PARG-false'
p1484
I0
sS'scoop--false'
p1485
I0
sS'clean-DOBJPARG-false'
p1486
I0
sS'microwave-PARG-true'
p1487
I10
sS'cream-PARG-true'
p1488
I4
sS'shave-DOBJPARG-false'
p1489
I0
sS'remove-DOBJPARG-true'
p1490
I243
sS'shake--false'
p1491
I4
sS'grate-DOBJ-true'
p1492
I3
sS'transfer-PARG-true'
p1493
I84
sS'rinse-DOBJPARG-true'
p1494
I8
sS'seat--false'
p1495
I1
sS'render--false'
p1496
I0
sS'halve-PARG-false'
p1497
I0
sS'reshape-PARG-false'
p1498
I0
sS'pulse-DOBJ-false'
p1499
I0
sS'work-DOBJ-true'
p1500
I0
sS'ensure-DOBJPARG-false'
p1501
I0
sS'refrigerate-PARG-true'
p1502
I174
sS'portion--false'
p1503
I0
sS'wear-PARG-true'
p1504
I0
sS'prick-DOBJ-false'
p1505
I0
sS'take-PARG-false'
p1506
I0
sS'pack-PARG-false'
p1507
I0
sS'pierce-PARG-false'
p1508
I0
sS'brush-DOBJ-false'
p1509
I0
sS'scatter-DOBJPARG-true'
p1510
I5
sS'hollow--false'
p1511
I0
sS'frost-DOBJ-true'
p1512
I4
sS'spray-PARG-true'
p1513
I7
sS'scatter-DOBJ-false'
p1514
I0
sS'oil-PARG-false'
p1515
I0
sS'return-PARG-false'
p1516
I0
sS'crush-DOBJ-true'
p1517
I2
sS'slice-PARG-true'
p1518
I19
sS'spoon-DOBJPARG-false'
p1519
I0
sS'drain-DOBJPARG-true'
p1520
I72
sS'process-DOBJPARG-true'
p1521
I3
sS'beat-DOBJ-false'
p1522
I0
sS'slice-DOBJ-false'
p1523
I0
sS'swirl-DOBJ-false'
p1524
I0
sS'julienne-PARG-false'
p1525
I0
sS'have--false'
p1526
I0
sS'load-DOBJPARG-true'
p1527
I1
sS'twist-PARG-false'
p1528
I0
sS'gather-DOBJ-false'
p1529
I0
sS'end-DOBJPARG-true'
p1530
I1
sS'swirl-PARG-false'
p1531
I0
sS'dissolve-DOBJPARG-true'
p1532
I15
sS'set--false'
p1533
I330
sS'steep-DOBJ-false'
p1534
I0
sS'assemble-DOBJPARG-true'
p1535
I3
sS'press-DOBJ-false'
p1536
I0
sS'dab-DOBJ-false'
p1537
I0
sS'plunge-DOBJPARG-false'
p1538
I0
sS'press-PARG-false'
p1539
I0
sS'cover-DOBJ-true'
p1540
I116
sS'scramble--false'
p1541
I0
sS'separate-DOBJ-false'
p1542
I0
sS'pour-DOBJ-true'
p1543
I10
sS'braise--false'
p1544
I0
sS'reshape-PARG-true'
p1545
I0
sS'thread-DOBJPARG-false'
p1546
I0
sS'warm-PARG-true'
p1547
I2
sS'enjoy-DOBJPARG-true'
p1548
I0
sS'wipe--false'
p1549
I0
sS'tear-PARG-true'
p1550
I2
sS'sift-DOBJ-false'
p1551
I0
sS'grate-DOBJPARG-false'
p1552
I0
sS'clean-DOBJPARG-true'
p1553
I1
sS'melt-PARG-true'
p1554
I3
sS'dry-DOBJPARG-false'
p1555
I0
sS'stack-DOBJ-true'
p1556
I1
sS'garnish--false'
p1557
I0
sS'crush--false'
p1558
I1
sS'poach-PARG-false'
p1559
I0
sS'bake-PARG-false'
p1560
I0
sS'swirl-DOBJPARG-false'
p1561
I0
sS'flatten-PARG-true'
p1562
I4
sS'strain-PARG-false'
p1563
I0
sS'scrub-PARG-true'
p1564
I0
sS'uncover-DOBJ-false'
p1565
I0
sS'pinch-DOBJ-false'
p1566
I0
sS'repeat-PARG-false'
p1567
I0
sS'drain-DOBJ-true'
p1568
I216
sS'dump-DOBJPARG-false'
p1569
I0
sS'decrease-PARG-false'
p1570
I0
sS'julienne-DOBJPARG-false'
p1571
I0
sS'blanch-DOBJPARG-true'
p1572
I0
sS'reposition-DOBJ-false'
p1573
I0
sS'stack-PARG-true'
p1574
I0
sS'end-DOBJ-false'
p1575
I0
sS'reduce--false'
p1576
I1
sS'crust-DOBJ-false'
p1577
I0
sS'round-PARG-false'
p1578
I0
sS'preheat-DOBJ-false'
p1579
I0
sS'invert-PARG-false'
p1580
I0
sS'shave-DOBJ-true'
p1581
I0
sS'place-PARG-false'
p1582
I0
sS'toss-PARG-false'
p1583
I0
sS'arrange-PARG-true'
p1584
I8
sS'shape-DOBJPARG-true'
p1585
I14
sS'ask-PARG-false'
p1586
I0
sS'trim-PARG-false'
p1587
I0
sS'break-DOBJ-true'
p1588
I3
sS'tip-DOBJPARG-false'
p1589
I0
sS'start-DOBJ-true'
p1590
I0
sS'saute-DOBJ-true'
p1591
I0
sS'dip-DOBJ-false'
p1592
I0
sS'layer-DOBJ-false'
p1593
I0
sS'cream-DOBJPARG-false'
p1594
I0
sS'drizzle-DOBJ-true'
p1595
I0
sS'insert-PARG-true'
p1596
I0
sS'ask-DOBJ-false'
p1597
I0
sS'dab-DOBJPARG-false'
p1598
I0
sS'drizzle-PARG-true'
p1599
I34
sS'flip-DOBJPARG-true'
p1600
I1
sS'pour-PARG-true'
p1601
I318
sS'sort-DOBJPARG-true'
p1602
I0
sS'poke-DOBJ-true'
p1603
I0
sS'flatten-DOBJ-true'
p1604
I0
sS'poke-PARG-true'
p1605
I0
sS'pass-PARG-true'
p1606
I0
sS'strain-PARG-true'
p1607
I2
sS'put--false'
p1608
I1
sS'scrub-DOBJPARG-true'
p1609
I0
sS'begin--false'
p1610
I2
sS'split-PARG-false'
p1611
I0
sS'render-DOBJ-true'
p1612
I0
sS'check-DOBJPARG-true'
p1613
I2
sS'allow-DOBJPARG-false'
p1614
I0
sS'mound-DOBJPARG-false'
p1615
I0
sS'throw-DOBJ-true'
p1616
I0
sS'pulse-PARG-true'
p1617
I11
sS'mash-DOBJPARG-false'
p1618
I0
sS'ladle-PARG-true'
p1619
I11
sS'cheese--false'
p1620
I5
sS'crumb-DOBJPARG-true'
p1621
I1
sS'stir-DOBJPARG-true'
p1622
I595
sS'freeze-DOBJ-false'
p1623
I0
sS'hold-DOBJ-true'
p1624
I1
sS'crush-DOBJ-false'
p1625
I0
sS'round-DOBJ-true'
p1626
I1
sS'fry-PARG-true'
p1627
I19
sS'cook-DOBJPARG-false'
p1628
I0
sS'break--false'
p1629
I0
sS'slice-DOBJPARG-false'
p1630
I0
sS'unwrap-PARG-false'
p1631
I0
sS'cover-PARG-false'
p1632
I0
sS'brush--false'
p1633
I0
sS'core-DOBJ-false'
p1634
I0
sS'empty-PARG-false'
p1635
I0
sS'open-PARG-true'
p1636
I1
sS'served-PARG-true'
p1637
I0
sS'pull-DOBJPARG-true'
p1638
I3
sS'canned-DOBJ-false'
p1639
I0
sS'ready-DOBJPARG-false'
p1640
I0
sS'spray-PARG-false'
p1641
I0
sS'shave--false'
p1642
I0
sS'pipe-DOBJ-false'
p1643
I0
sS'steep-PARG-true'
p1644
I0
sS'have-DOBJ-false'
p1645
I0
sS'roll-PARG-false'
p1646
I0
sS'pick-DOBJ-false'
p1647
I0
sS'ladle-PARG-false'
p1648
I0
sS'leave-PARG-false'
p1649
I0
sS'lie-DOBJPARG-true'
p1650
I1
sS'remove--false'
p1651
I10
sS'dry-DOBJ-true'
p1652
I2
sS'position-PARG-false'
p1653
I0
sS'season-DOBJPARG-true'
p1654
I36
sS'rub-DOBJPARG-false'
p1655
I0
sS'insert--false'
p1656
I0
sS'dice-DOBJ-true'
p1657
I8
sS'thicken-DOBJPARG-true'
p1658
I3
sS'remove-DOBJ-true'
p1659
I124
sS'reduce-PARG-false'
p1660
I0
sS'thaw-DOBJ-false'
p1661
I0
sS'end-DOBJPARG-false'
p1662
I0
sS'grill-DOBJ-true'
p1663
I3
sS'unroll-DOBJ-false'
p1664
I0
sS'push-DOBJ-false'
p1665
I0
sS'allow-PARG-true'
p1666
I78
sS'drop--false'
p1667
I0
sS'knife-PARG-false'
p1668
I0
sS'flip--false'
p1669
I1
sS'end--false'
p1670
I0
sS'frost-PARG-false'
p1671
I0
sS'ladle-DOBJ-true'
p1672
I0
sS'reduce-DOBJ-true'
p1673
I78
sS'canned-DOBJPARG-true'
p1674
I1
sS'lower-DOBJPARG-true'
p1675
I9
sS'steam-DOBJ-false'
p1676
I0
sS'begin-DOBJ-false'
p1677
I0
sS'cool-DOBJPARG-true'
p1678
I27
sS'dredge-PARG-true'
p1679
I2
sS'mash--false'
p1680
I3
sS'ladle-DOBJPARG-true'
p1681
I12
sS'store-DOBJ-false'
p1682
I0
sS'cook-DOBJ-false'
p1683
I0
sS'measure-PARG-true'
p1684
I2
sS'grate--false'
p1685
I1
sS'divide-PARG-true'
p1686
I9
sS'stuff--false'
p1687
I0
sS'crack--false'
p1688
I0
sS'dissolve-DOBJ-false'
p1689
I0
sS'keep-PARG-false'
p1690
I0
sS'raise-PARG-false'
p1691
I0
sS'roll--false'
p1692
I2
sS'empty-PARG-true'
p1693
I0
sS'wipe-DOBJ-true'
p1694
I1
sS'swirl-PARG-true'
p1695
I3
sS'chop-DOBJ-false'
p1696
I0
sS'render-DOBJ-false'
p1697
I0
sS'heat-DOBJPARG-true'
p1698
I442
sS'stir-PARG-false'
p1699
I0
sS'insert-DOBJ-true'
p1700
I0
sS'warm-DOBJPARG-false'
p1701
I0
sS'swirl--false'
p1702
I0
sS'increase--false'
p1703
I0
sS'take-DOBJ-true'
p1704
I3
sS'place-DOBJPARG-false'
p1705
I0
sS'work-PARG-true'
p1706
I3
sS'broil-DOBJPARG-false'
p1707
I0
sS'whisk-PARG-true'
p1708
I83
sS'replace-DOBJPARG-true'
p1709
I2
sS'served-DOBJ-false'
p1710
I0
sS'prick-PARG-false'
p1711
I0
sS'crumple-PARG-false'
p1712
I0
sS'whirl-DOBJPARG-true'
p1713
I0
sS'pour--false'
p1714
I4
sS'fold-PARG-false'
p1715
I0
sS'warm-PARG-false'
p1716
I0
sS'snip-PARG-true'
p1717
I5
sS'use-DOBJPARG-true'
p1718
I25
sS'add-PARG-false'
p1719
I0
sS'split--false'
p1720
I0
sS'oil-DOBJ-false'
p1721
I0
sS'start-DOBJPARG-false'
p1722
I0
sS'sprinkle-PARG-false'
p1723
I0
sS'position-PARG-true'
p1724
I0
sS'scrape-PARG-false'
p1725
I0
sS'flatten-PARG-false'
p1726
I0
sS'check-PARG-false'
p1727
I0
sS'tear-DOBJPARG-true'
p1728
I6
sS'quarter-PARG-true'
p1729
I0
sS'whisk--false'
p1730
I2
sS'render-DOBJPARG-false'
p1731
I0
sS'overlap--false'
p1732
I0
sS'thicken-DOBJPARG-false'
p1733
I0
sS'push-DOBJPARG-true'
p1734
I7
sS'snip-DOBJ-true'
p1735
I0
sS'freeze-DOBJPARG-true'
p1736
I0
sS'form-DOBJ-false'
p1737
I0
sS'shape-DOBJ-true'
p1738
I0
sS'combine-DOBJ-false'
p1739
I0
sS'divide-DOBJ-true'
p1740
I4
sS'thicken-PARG-true'
p1741
I0
sS'brown-PARG-false'
p1742
I0
sS'moisten-DOBJPARG-false'
p1743
I0
sS'slice-DOBJPARG-true'
p1744
I42
sS'crust-DOBJPARG-false'
p1745
I0
sS'cover--false'
p1746
I153
sS'push-DOBJPARG-false'
p1747
I0
sS'baste-PARG-true'
p1748
I2
sS'snip-PARG-false'
p1749
I0
sS'seat-DOBJ-false'
p1750
I0
sS'scrub-DOBJ-false'
p1751
I0
sS'clean-DOBJ-true'
p1752
I0
sS'pack--false'
p1753
I0
sS'twist-PARG-true'
p1754
I0
sS'top-PARG-false'
p1755
I0
sS'position-DOBJ-false'
p1756
I0
sS'let-PARG-true'
p1757
I76
sS'check--false'
p1758
I1
sS'frost--false'
p1759
I2
sS'alternate-DOBJPARG-true'
p1760
I2
sS'roll-DOBJPARG-false'
p1761
I0
sS'baste-DOBJ-false'
p1762
I0
sS'scoop-DOBJPARG-true'
p1763
I37
sS'cover-DOBJPARG-false'
p1764
I0
sS'crack-PARG-false'
p1765
I0
sS'twist-DOBJPARG-true'
p1766
I1
sS'repeat--false'
p1767
I8
sS'discard-DOBJ-false'
p1768
I0
sS'watch--false'
p1769
I2
sS'whirl-PARG-false'
p1770
I0
sS'combine-DOBJPARG-true'
p1771
I536
sS'rub-DOBJ-true'
p1772
I0
sS'plunge-DOBJPARG-true'
p1773
I1
sS'roll-DOBJ-true'
p1774
I10
sS'begin-DOBJPARG-true'
p1775
I3
sS'crust-PARG-false'
p1776
I0
sS'baste-DOBJ-true'
p1777
I0
sS'dot-DOBJ-false'
p1778
I0
sS'align-DOBJ-false'
p1779
I0
sS'brown-DOBJPARG-false'
p1780
I0
sS'reshape--false'
p1781
I0
sS'build-PARG-true'
p1782
I1
sS'served-DOBJ-true'
p1783
I2
sS'slice--false'
p1784
I12
sS'hold-PARG-true'
p1785
I0
sS'cream--false'
p1786
I3
sS'puree-DOBJ-false'
p1787
I0
sS'lift-PARG-true'
p1788
I0
sS'cool-PARG-false'
p1789
I0
sS'dip-PARG-false'
p1790
I0
sS'bake--false'
p1791
I15
sS'broil-PARG-false'
p1792
I0
sS'cut-DOBJ-true'
p1793
I3
sS'cube-PARG-false'
p1794
I0
sS'tuck-DOBJPARG-false'
p1795
I0
sS'position-DOBJ-true'
p1796
I0
sS'lower--false'
p1797
I0
sS'canned--false'
p1798
I0
sS'fit-DOBJPARG-true'
p1799
I4
sS'drain--false'
p1800
I472
sS'lower-PARG-true'
p1801
I0
sS'render-DOBJPARG-true'
p1802
I1
sS'add-DOBJPARG-true'
p1803
I342
sS'canned-PARG-true'
p1804
I0
sS'shape-DOBJPARG-false'
p1805
I0
sS'toast-DOBJ-false'
p1806
I0
sS'crumb-PARG-true'
p1807
I0
sS'grind-DOBJ-false'
p1808
I0
sS'pat-DOBJ-false'
p1809
I0
sS'crust-DOBJPARG-true'
p1810
I2
sS'top-DOBJ-true'
p1811
I19
sS'frost-DOBJ-false'
p1812
I0
sS'line-PARG-false'
p1813
I0
sS'tilt-DOBJPARG-false'
p1814
I0
sS'decorate-PARG-false'
p1815
I0
sS'whisk-DOBJPARG-false'
p1816
I0
sS'stir-DOBJ-true'
p1817
I51
sS'reserve-DOBJ-false'
p1818
I0
sS'surround-DOBJPARG-false'
p1819
I0
sS'puree-DOBJPARG-true'
p1820
I7
sS'note-PARG-true'
p1821
I0
sS'halve-DOBJPARG-true'
p1822
I1
sS'best-DOBJPARG-true'
p1823
I0
sS'fit-PARG-false'
p1824
I0
sS'distribute-DOBJ-false'
p1825
I0
sS'wash-DOBJ-false'
p1826
I0
sS'reheat-DOBJPARG-false'
p1827
I0
sS'leave-PARG-true'
p1828
I2
sS'grease--false'
p1829
I6
sS'fit-DOBJ-false'
p1830
I0
sS'tip-DOBJPARG-true'
p1831
I1
sS'mash-DOBJ-false'
p1832
I0
sS'smooth--false'
p1833
I13
sS'shred-PARG-false'
p1834
I0
sS'pinch--false'
p1835
I0
sS'wash-PARG-true'
p1836
I0
sS'decrease-DOBJ-false'
p1837
I0
sS'whirl-DOBJ-false'
p1838
I0
sS'end-PARG-false'
p1839
I0
sS'muddle-PARG-true'
p1840
I0
sS'lie-DOBJPARG-false'
p1841
I0
sS'crumb-DOBJ-true'
p1842
I0
sS'whip-PARG-true'
p1843
I2
sS'soak--false'
p1844
I0
sS'pare-DOBJPARG-true'
p1845
I1
sS'create-DOBJ-false'
p1846
I0
sS'wear-DOBJPARG-false'
p1847
I0
sS'uncover-PARG-true'
p1848
I3
sS'toast--false'
p1849
I0
sS'test-DOBJ-true'
p1850
I0
sS'line--false'
p1851
I0
sS'lay-DOBJPARG-false'
p1852
I0
sS'handle-PARG-true'
p1853
I1
sS'change-PARG-true'
p1854
I0
sS'mix-DOBJ-false'
p1855
I0
sS'insert-DOBJ-false'
p1856
I0
sS'dissolve-DOBJ-true'
p1857
I0
sS'dice-DOBJPARG-false'
p1858
I0
sS'turn-DOBJPARG-true'
p1859
I13
sS'grind-DOBJ-true'
p1860
I0
sS'raise-DOBJPARG-false'
p1861
I0
sS'blend-DOBJ-false'
p1862
I0
sS'salt-PARG-true'
p1863
I1
sS'preheat-PARG-false'
p1864
I0
sS'crumble-PARG-true'
p1865
I10
sS'whisk-DOBJ-true'
p1866
I28
sS'spoon--false'
p1867
I0
sS'reposition-PARG-true'
p1868
I0
sS'blanch-DOBJ-true'
p1869
I0
sS'dip--false'
p1870
I1
sS'wipe-DOBJPARG-true'
p1871
I3
sS'shake-DOBJ-true'
p1872
I2
sS'align-DOBJPARG-true'
p1873
I1
sS'increase-DOBJ-true'
p1874
I0
sS'measure-DOBJPARG-true'
p1875
I4
sS'follow-PARG-true'
p1876
I1
sS'coating-PARG-false'
p1877
I0
sS'invert--false'
p1878
I1
sS'handle-DOBJPARG-false'
p1879
I0
sS'tap-DOBJPARG-true'
p1880
I2
sS'continue--false'
p1881
I4
sS'drop-DOBJ-true'
p1882
I0
sS'increase-PARG-false'
p1883
I0
s.(dp0
.(dp0
.